SF:/Users/ken/git_for_collab4/tensor4all-rs/crates/matrixci/src/matrixaca.rs
FN:361,_RNvNtNtCsjoPG8AIhCtl_8matrixci9matrixaca5testss_18test_matrixaca_new
FN:388,_RNvNtNtCsjoPG8AIhCtl_8matrixci9matrixaca5testss_24test_matrixaca_add_pivot
FN:370,_RNvNtNtCsjoPG8AIhCtl_8matrixci9matrixaca5testss_26test_matrixaca_from_matrix
FN:50,_RNCNvMNtCsjoPG8AIhCtl_8matrixci9matrixacaINtB4_9MatrixACAdE22from_matrix_with_pivot0B6_
FN:88,_RNvMNtCsjoPG8AIhCtl_8matrixci9matrixacaINtB2_9MatrixACAdE10compute_ukB4_
FN:111,_RNvMNtCsjoPG8AIhCtl_8matrixci9matrixacaINtB2_9MatrixACAdE10compute_vkB4_
FN:134,_RNvMNtCsjoPG8AIhCtl_8matrixci9matrixacaINtB2_9MatrixACAdE13add_pivot_colB4_
FN:152,_RNvMNtCsjoPG8AIhCtl_8matrixci9matrixacaINtB2_9MatrixACAdE13add_pivot_rowB4_
FN:44,_RNvMNtCsjoPG8AIhCtl_8matrixci9matrixacaINtB2_9MatrixACAdE22from_matrix_with_pivotB4_
FN:33,_RNvMNtCsjoPG8AIhCtl_8matrixci9matrixacaINtB2_9MatrixACAdE3newB4_
FN:175,_RNvMNtCsjoPG8AIhCtl_8matrixci9matrixacaINtB2_9MatrixACAdE9add_pivotB4_
FN:310,_RNvXs_NtCsjoPG8AIhCtl_8matrixci9matrixacaINtB4_9MatrixACAdEINtNtB6_6traits16AbstractMatrixCIdE4rankB6_
FN:306,_RNvXs_NtCsjoPG8AIhCtl_8matrixci9matrixacaINtB4_9MatrixACAdEINtNtB6_6traits16AbstractMatrixCIdE5ncolsB6_
FN:302,_RNvXs_NtCsjoPG8AIhCtl_8matrixci9matrixacaINtB4_9MatrixACAdEINtNtB6_6traits16AbstractMatrixCIdE5nrowsB6_
FN:322,_RNvXs_NtCsjoPG8AIhCtl_8matrixci9matrixacaINtB4_9MatrixACAdEINtNtB6_6traits16AbstractMatrixCIdE8evaluateB6_
FN:237,_RNCNvMNtCsjoPG8AIhCtl_8matrixci9matrixacaINtB4_9MatrixACApE8set_cols0B6_
FN:252,_RNCNvMNtCsjoPG8AIhCtl_8matrixci9matrixacaINtB4_9MatrixACApE8set_colss_0B6_
FN:270,_RNCNvMNtCsjoPG8AIhCtl_8matrixci9matrixacaINtB4_9MatrixACApE8set_rows0B6_
FN:285,_RNCNvMNtCsjoPG8AIhCtl_8matrixci9matrixacaINtB4_9MatrixACApE8set_rowss_0B6_
FN:182,_RNvMNtCsjoPG8AIhCtl_8matrixci9matrixacaINtB2_9MatrixACApE14add_best_pivotB4_
FN:73,_RNvMNtCsjoPG8AIhCtl_8matrixci9matrixacaINtB2_9MatrixACApE1uB4_
FN:78,_RNvMNtCsjoPG8AIhCtl_8matrixci9matrixacaINtB2_9MatrixACApE1vB4_
FN:83,_RNvMNtCsjoPG8AIhCtl_8matrixci9matrixacaINtB2_9MatrixACApE5alphaB4_
FN:68,_RNvMNtCsjoPG8AIhCtl_8matrixci9matrixacaINtB2_9MatrixACApE7npivotsB4_
FN:235,_RNvMNtCsjoPG8AIhCtl_8matrixci9matrixacaINtB2_9MatrixACApE8set_colsB4_
FN:268,_RNvMNtCsjoPG8AIhCtl_8matrixci9matrixacaINtB2_9MatrixACApE8set_rowsB4_
FN:318,_RNvXININtCsjoPG8AIhCtl_8matrixci9matrixacas_0pEINtB5_9MatrixACApEINtNtB7_6traits16AbstractMatrixCIpE11col_indicesB7_
FN:314,_RNvXININtCsjoPG8AIhCtl_8matrixci9matrixacas_0pEINtB5_9MatrixACApEINtNtB7_6traits16AbstractMatrixCIpE11row_indicesB7_
FN:334,_RNvXININtCsjoPG8AIhCtl_8matrixci9matrixacas_0pEINtB5_9MatrixACApEINtNtB7_6traits16AbstractMatrixCIpE9submatrixB7_
FN:50,_RNCNvMNtCsh2ySt9yG5fK_8matrixci9matrixacaINtB4_9MatrixACAdE22from_matrix_with_pivot0CsjOkKuSgKfGs_19tensor4all_tensorci
FN:237,_RNCNvMNtCsh2ySt9yG5fK_8matrixci9matrixacaINtB4_9MatrixACAdE8set_cols0CsjOkKuSgKfGs_19tensor4all_tensorci
FN:252,_RNCNvMNtCsh2ySt9yG5fK_8matrixci9matrixacaINtB4_9MatrixACAdE8set_colss_0CsjOkKuSgKfGs_19tensor4all_tensorci
FN:270,_RNCNvMNtCsh2ySt9yG5fK_8matrixci9matrixacaINtB4_9MatrixACAdE8set_rows0CsjOkKuSgKfGs_19tensor4all_tensorci
FN:285,_RNCNvMNtCsh2ySt9yG5fK_8matrixci9matrixacaINtB4_9MatrixACAdE8set_rowss_0CsjOkKuSgKfGs_19tensor4all_tensorci
FN:88,_RNvMNtCsh2ySt9yG5fK_8matrixci9matrixacaINtB2_9MatrixACAdE10compute_ukCsjOkKuSgKfGs_19tensor4all_tensorci
FN:111,_RNvMNtCsh2ySt9yG5fK_8matrixci9matrixacaINtB2_9MatrixACAdE10compute_vkCsjOkKuSgKfGs_19tensor4all_tensorci
FN:134,_RNvMNtCsh2ySt9yG5fK_8matrixci9matrixacaINtB2_9MatrixACAdE13add_pivot_colCsjOkKuSgKfGs_19tensor4all_tensorci
FN:152,_RNvMNtCsh2ySt9yG5fK_8matrixci9matrixacaINtB2_9MatrixACAdE13add_pivot_rowCsjOkKuSgKfGs_19tensor4all_tensorci
FN:44,_RNvMNtCsh2ySt9yG5fK_8matrixci9matrixacaINtB2_9MatrixACAdE22from_matrix_with_pivotCsjOkKuSgKfGs_19tensor4all_tensorci
FN:33,_RNvMNtCsh2ySt9yG5fK_8matrixci9matrixacaINtB2_9MatrixACAdE3newCsjOkKuSgKfGs_19tensor4all_tensorci
FN:235,_RNvMNtCsh2ySt9yG5fK_8matrixci9matrixacaINtB2_9MatrixACAdE8set_colsCsjOkKuSgKfGs_19tensor4all_tensorci
FN:268,_RNvMNtCsh2ySt9yG5fK_8matrixci9matrixacaINtB2_9MatrixACAdE8set_rowsCsjOkKuSgKfGs_19tensor4all_tensorci
FN:318,_RNvXs_NtCsh2ySt9yG5fK_8matrixci9matrixacaINtB4_9MatrixACAdEINtNtB6_6traits16AbstractMatrixCIdE11col_indicesCsjOkKuSgKfGs_19tensor4all_tensorci
FN:314,_RNvXs_NtCsh2ySt9yG5fK_8matrixci9matrixacaINtB4_9MatrixACAdEINtNtB6_6traits16AbstractMatrixCIdE11row_indicesCsjOkKuSgKfGs_19tensor4all_tensorci
FN:310,_RNvXs_NtCsh2ySt9yG5fK_8matrixci9matrixacaINtB4_9MatrixACAdEINtNtB6_6traits16AbstractMatrixCIdE4rankCsjOkKuSgKfGs_19tensor4all_tensorci
FN:306,_RNvXs_NtCsh2ySt9yG5fK_8matrixci9matrixacaINtB4_9MatrixACAdEINtNtB6_6traits16AbstractMatrixCIdE5ncolsCsjOkKuSgKfGs_19tensor4all_tensorci
FN:302,_RNvXs_NtCsh2ySt9yG5fK_8matrixci9matrixacaINtB4_9MatrixACAdEINtNtB6_6traits16AbstractMatrixCIdE5nrowsCsjOkKuSgKfGs_19tensor4all_tensorci
FN:334,_RNvXs_NtCsh2ySt9yG5fK_8matrixci9matrixacaINtB4_9MatrixACAdEINtNtB6_6traits16AbstractMatrixCIdE9submatrixCsjOkKuSgKfGs_19tensor4all_tensorci
FNDA:1,_RNvNtNtCsjoPG8AIhCtl_8matrixci9matrixaca5testss_18test_matrixaca_new
FNDA:1,_RNvNtNtCsjoPG8AIhCtl_8matrixci9matrixaca5testss_24test_matrixaca_add_pivot
FNDA:1,_RNvNtNtCsjoPG8AIhCtl_8matrixci9matrixaca5testss_26test_matrixaca_from_matrix
FNDA:6,_RNCNvMNtCsjoPG8AIhCtl_8matrixci9matrixacaINtB4_9MatrixACAdE22from_matrix_with_pivot0B6_
FNDA:1,_RNvMNtCsjoPG8AIhCtl_8matrixci9matrixacaINtB2_9MatrixACAdE10compute_ukB4_
FNDA:1,_RNvMNtCsjoPG8AIhCtl_8matrixci9matrixacaINtB2_9MatrixACAdE10compute_vkB4_
FNDA:1,_RNvMNtCsjoPG8AIhCtl_8matrixci9matrixacaINtB2_9MatrixACAdE13add_pivot_colB4_
FNDA:1,_RNvMNtCsjoPG8AIhCtl_8matrixci9matrixacaINtB2_9MatrixACAdE13add_pivot_rowB4_
FNDA:2,_RNvMNtCsjoPG8AIhCtl_8matrixci9matrixacaINtB2_9MatrixACAdE22from_matrix_with_pivotB4_
FNDA:1,_RNvMNtCsjoPG8AIhCtl_8matrixci9matrixacaINtB2_9MatrixACAdE3newB4_
FNDA:1,_RNvMNtCsjoPG8AIhCtl_8matrixci9matrixacaINtB2_9MatrixACAdE9add_pivotB4_
FNDA:6,_RNvXs_NtCsjoPG8AIhCtl_8matrixci9matrixacaINtB4_9MatrixACAdEINtNtB6_6traits16AbstractMatrixCIdE4rankB6_
FNDA:3,_RNvXs_NtCsjoPG8AIhCtl_8matrixci9matrixacaINtB4_9MatrixACAdEINtNtB6_6traits16AbstractMatrixCIdE5ncolsB6_
FNDA:3,_RNvXs_NtCsjoPG8AIhCtl_8matrixci9matrixacaINtB4_9MatrixACAdEINtNtB6_6traits16AbstractMatrixCIdE5nrowsB6_
FNDA:1,_RNvXs_NtCsjoPG8AIhCtl_8matrixci9matrixacaINtB4_9MatrixACAdEINtNtB6_6traits16AbstractMatrixCIdE8evaluateB6_
FNDA:0,_RNCNvMNtCsjoPG8AIhCtl_8matrixci9matrixacaINtB4_9MatrixACApE8set_cols0B6_
FNDA:0,_RNCNvMNtCsjoPG8AIhCtl_8matrixci9matrixacaINtB4_9MatrixACApE8set_colss_0B6_
FNDA:0,_RNCNvMNtCsjoPG8AIhCtl_8matrixci9matrixacaINtB4_9MatrixACApE8set_rows0B6_
FNDA:0,_RNCNvMNtCsjoPG8AIhCtl_8matrixci9matrixacaINtB4_9MatrixACApE8set_rowss_0B6_
FNDA:0,_RNvMNtCsjoPG8AIhCtl_8matrixci9matrixacaINtB2_9MatrixACApE14add_best_pivotB4_
FNDA:0,_RNvMNtCsjoPG8AIhCtl_8matrixci9matrixacaINtB2_9MatrixACApE1uB4_
FNDA:0,_RNvMNtCsjoPG8AIhCtl_8matrixci9matrixacaINtB2_9MatrixACApE1vB4_
FNDA:0,_RNvMNtCsjoPG8AIhCtl_8matrixci9matrixacaINtB2_9MatrixACApE5alphaB4_
FNDA:0,_RNvMNtCsjoPG8AIhCtl_8matrixci9matrixacaINtB2_9MatrixACApE7npivotsB4_
FNDA:0,_RNvMNtCsjoPG8AIhCtl_8matrixci9matrixacaINtB2_9MatrixACApE8set_colsB4_
FNDA:0,_RNvMNtCsjoPG8AIhCtl_8matrixci9matrixacaINtB2_9MatrixACApE8set_rowsB4_
FNDA:0,_RNvXININtCsjoPG8AIhCtl_8matrixci9matrixacas_0pEINtB5_9MatrixACApEINtNtB7_6traits16AbstractMatrixCIpE11col_indicesB7_
FNDA:0,_RNvXININtCsjoPG8AIhCtl_8matrixci9matrixacas_0pEINtB5_9MatrixACApEINtNtB7_6traits16AbstractMatrixCIpE11row_indicesB7_
FNDA:0,_RNvXININtCsjoPG8AIhCtl_8matrixci9matrixacas_0pEINtB5_9MatrixACApEINtNtB7_6traits16AbstractMatrixCIpE9submatrixB7_
FNDA:27,_RNCNvMNtCsh2ySt9yG5fK_8matrixci9matrixacaINtB4_9MatrixACAdE22from_matrix_with_pivot0CsjOkKuSgKfGs_19tensor4all_tensorci
FNDA:2,_RNCNvMNtCsh2ySt9yG5fK_8matrixci9matrixacaINtB4_9MatrixACAdE8set_cols0CsjOkKuSgKfGs_19tensor4all_tensorci
FNDA:4,_RNCNvMNtCsh2ySt9yG5fK_8matrixci9matrixacaINtB4_9MatrixACAdE8set_colss_0CsjOkKuSgKfGs_19tensor4all_tensorci
FNDA:1,_RNCNvMNtCsh2ySt9yG5fK_8matrixci9matrixacaINtB4_9MatrixACAdE8set_rows0CsjOkKuSgKfGs_19tensor4all_tensorci
FNDA:4,_RNCNvMNtCsh2ySt9yG5fK_8matrixci9matrixacaINtB4_9MatrixACAdE8set_rowss_0CsjOkKuSgKfGs_19tensor4all_tensorci
FNDA:8,_RNvMNtCsh2ySt9yG5fK_8matrixci9matrixacaINtB2_9MatrixACAdE10compute_ukCsjOkKuSgKfGs_19tensor4all_tensorci
FNDA:8,_RNvMNtCsh2ySt9yG5fK_8matrixci9matrixacaINtB2_9MatrixACAdE10compute_vkCsjOkKuSgKfGs_19tensor4all_tensorci
FNDA:8,_RNvMNtCsh2ySt9yG5fK_8matrixci9matrixacaINtB2_9MatrixACAdE13add_pivot_colCsjOkKuSgKfGs_19tensor4all_tensorci
FNDA:8,_RNvMNtCsh2ySt9yG5fK_8matrixci9matrixacaINtB2_9MatrixACAdE13add_pivot_rowCsjOkKuSgKfGs_19tensor4all_tensorci
FNDA:9,_RNvMNtCsh2ySt9yG5fK_8matrixci9matrixacaINtB2_9MatrixACAdE22from_matrix_with_pivotCsjOkKuSgKfGs_19tensor4all_tensorci
FNDA:20,_RNvMNtCsh2ySt9yG5fK_8matrixci9matrixacaINtB2_9MatrixACAdE3newCsjOkKuSgKfGs_19tensor4all_tensorci
FNDA:1,_RNvMNtCsh2ySt9yG5fK_8matrixci9matrixacaINtB2_9MatrixACAdE8set_colsCsjOkKuSgKfGs_19tensor4all_tensorci
FNDA:1,_RNvMNtCsh2ySt9yG5fK_8matrixci9matrixacaINtB2_9MatrixACAdE8set_rowsCsjOkKuSgKfGs_19tensor4all_tensorci
FNDA:14,_RNvXs_NtCsh2ySt9yG5fK_8matrixci9matrixacaINtB4_9MatrixACAdEINtNtB6_6traits16AbstractMatrixCIdE11col_indicesCsjOkKuSgKfGs_19tensor4all_tensorci
FNDA:14,_RNvXs_NtCsh2ySt9yG5fK_8matrixci9matrixacaINtB4_9MatrixACAdEINtNtB6_6traits16AbstractMatrixCIdE11row_indicesCsjOkKuSgKfGs_19tensor4all_tensorci
FNDA:59,_RNvXs_NtCsh2ySt9yG5fK_8matrixci9matrixacaINtB4_9MatrixACAdEINtNtB6_6traits16AbstractMatrixCIdE4rankCsjOkKuSgKfGs_19tensor4all_tensorci
FNDA:36,_RNvXs_NtCsh2ySt9yG5fK_8matrixci9matrixacaINtB4_9MatrixACAdEINtNtB6_6traits16AbstractMatrixCIdE5ncolsCsjOkKuSgKfGs_19tensor4all_tensorci
FNDA:36,_RNvXs_NtCsh2ySt9yG5fK_8matrixci9matrixacaINtB4_9MatrixACAdEINtNtB6_6traits16AbstractMatrixCIdE5nrowsCsjOkKuSgKfGs_19tensor4all_tensorci
FNDA:14,_RNvXs_NtCsh2ySt9yG5fK_8matrixci9matrixacaINtB4_9MatrixACAdEINtNtB6_6traits16AbstractMatrixCIdE9submatrixCsjOkKuSgKfGs_19tensor4all_tensorci
FNF:29
FNH:24
DA:33,21
DA:34,21
DA:35,21
DA:36,21
DA:37,21
DA:38,21
DA:39,21
DA:40,21
DA:41,21
DA:44,11
DA:45,11
DA:46,11
DA:49,11
DA:50,33
DA:53,11
DA:54,11
DA:56,11
DA:58,11
DA:59,11
DA:60,11
DA:61,11
DA:62,11
DA:63,11
DA:64,11
DA:65,11
DA:68,0
DA:69,0
DA:70,0
DA:73,0
DA:74,0
DA:75,0
DA:78,0
DA:79,0
DA:80,0
DA:83,0
DA:84,0
DA:85,0
DA:88,9
DA:89,9
DA:90,9
DA:93,9
DA:96,15
DA:97,15
DA:98,15
DA:99,15
DA:100,15
DA:102,66
DA:103,66
DA:104,66
DA:107,9
DA:108,9
DA:111,9
DA:112,9
DA:113,9
DA:116,9
DA:119,15
DA:120,15
DA:121,15
DA:122,15
DA:123,15
DA:125,64
DA:126,64
DA:127,64
DA:130,9
DA:131,9
DA:134,9
DA:135,9
DA:136,0
DA:137,0
DA:138,0
DA:139,0
DA:140,0
DA:141,0
DA:142,9
DA:144,9
DA:145,9
DA:146,9
DA:148,9
DA:149,9
DA:152,9
DA:153,9
DA:154,0
DA:155,0
DA:156,0
DA:157,0
DA:158,0
DA:159,0
DA:160,9
DA:162,9
DA:163,9
DA:164,9
DA:167,9
DA:168,9
DA:169,9
DA:171,9
DA:172,9
DA:175,1
DA:176,1
DA:177,1
DA:178,1
DA:179,1
DA:182,0
DA:183,0
DA:185,0
DA:186,0
DA:187,0
DA:188,0
DA:189,0
DA:190,0
DA:193,0
DA:194,0
DA:195,0
DA:196,0
DA:199,0
DA:200,0
DA:201,0
DA:202,0
DA:203,0
DA:204,0
DA:205,0
DA:206,0
DA:207,0
DA:210,0
DA:213,0
DA:214,0
DA:215,0
DA:216,0
DA:218,0
DA:219,0
DA:220,0
DA:221,0
DA:222,0
DA:223,0
DA:224,0
DA:225,0
DA:226,0
DA:229,0
DA:231,0
DA:232,0
DA:235,1
DA:237,2
DA:240,1
DA:241,2
DA:242,4
DA:243,4
DA:244,2
DA:245,2
DA:248,1
DA:251,1
DA:252,4
DA:253,1
DA:255,2
DA:256,6
DA:257,4
DA:258,4
DA:259,2
DA:260,2
DA:261,2
DA:262,4
DA:265,1
DA:268,1
DA:270,1
DA:273,1
DA:274,2
DA:275,2
DA:276,2
DA:277,2
DA:278,2
DA:279,0
DA:281,1
DA:284,1
DA:285,4
DA:286,1
DA:288,1
DA:289,3
DA:290,2
DA:291,2
DA:292,0
DA:293,0
DA:294,0
DA:295,2
DA:298,1
DA:302,39
DA:303,39
DA:304,39
DA:306,39
DA:307,39
DA:308,39
DA:310,65
DA:311,65
DA:312,65
DA:314,14
DA:315,14
DA:316,14
DA:318,14
DA:319,14
DA:320,14
DA:322,1
DA:323,1
DA:324,0
DA:325,1
DA:327,1
DA:328,1
DA:329,1
DA:330,1
DA:331,1
DA:332,1
DA:334,14
DA:335,14
DA:336,0
DA:337,14
DA:339,14
DA:340,14
DA:342,29
DA:343,65
DA:344,65
DA:345,90
DA:346,90
DA:347,90
DA:348,65
DA:352,14
DA:353,14
DA:361,1
DA:362,1
DA:363,1
DA:364,1
DA:365,1
DA:366,1
DA:367,1
DA:370,1
DA:371,1
DA:372,1
DA:373,1
DA:374,1
DA:377,1
DA:378,1
DA:379,1
DA:380,1
DA:383,1
DA:384,1
DA:385,1
DA:388,1
DA:389,1
DA:390,1
DA:391,1
DA:392,1
DA:395,1
DA:396,1
DA:397,1
DA:398,1
BRF:0
BRH:0
LF:255
LH:187
end_of_record
SF:/Users/ken/git_for_collab4/tensor4all-rs/crates/matrixci/src/matrixci.rs
FN:302,_RINvNtCsjoPG8AIhCtl_8matrixci8matrixci16crossinterpolatedEB4_
FN:74,_RNCNvMNtCsjoPG8AIhCtl_8matrixci8matrixciINtB4_8MatrixCIdE22from_matrix_with_pivot0B6_
FN:103,_RNvMNtCsjoPG8AIhCtl_8matrixci8matrixciINtB2_8MatrixCIdE11left_matrixB4_
FN:97,_RNvMNtCsjoPG8AIhCtl_8matrixci8matrixciINtB2_8MatrixCIdE12pivot_matrixB4_
FN:159,_RNvMNtCsjoPG8AIhCtl_8matrixci8matrixciINtB2_8MatrixCIdE13add_pivot_colB4_
FN:128,_RNvMNtCsjoPG8AIhCtl_8matrixci8matrixciINtB2_8MatrixCIdE13add_pivot_rowB4_
FN:66,_RNvMNtCsjoPG8AIhCtl_8matrixci8matrixciINtB2_8MatrixCIdE22from_matrix_with_pivotB4_
FN:35,_RNvMNtCsjoPG8AIhCtl_8matrixci8matrixciINtB2_8MatrixCIdE3newB4_
FN:190,_RNvMNtCsjoPG8AIhCtl_8matrixci8matrixciINtB2_8MatrixCIdE9add_pivotB4_
FN:250,_RNvXs_NtCsjoPG8AIhCtl_8matrixci8matrixciINtB4_8MatrixCIdEINtNtB6_6traits16AbstractMatrixCIdE11col_indicesB6_
FN:246,_RNvXs_NtCsjoPG8AIhCtl_8matrixci8matrixciINtB4_8MatrixCIdEINtNtB6_6traits16AbstractMatrixCIdE11row_indicesB6_
FN:242,_RNvXs_NtCsjoPG8AIhCtl_8matrixci8matrixciINtB4_8MatrixCIdEINtNtB6_6traits16AbstractMatrixCIdE4rankB6_
FN:238,_RNvXs_NtCsjoPG8AIhCtl_8matrixci8matrixciINtB4_8MatrixCIdEINtNtB6_6traits16AbstractMatrixCIdE5ncolsB6_
FN:234,_RNvXs_NtCsjoPG8AIhCtl_8matrixci8matrixciINtB4_8MatrixCIdEINtNtB6_6traits16AbstractMatrixCIdE5nrowsB6_
FN:268,_RNvXs_NtCsjoPG8AIhCtl_8matrixci8matrixciINtB4_8MatrixCIdEINtNtB6_6traits16AbstractMatrixCIdE9submatrixB6_
FN:293,_RNvXs0_NtCsjoPG8AIhCtl_8matrixci8matrixciNtB5_23CrossInterpolateOptionsNtNtCskzPJi2J8k3N_4core7default7Default7default
FN:337,_RNvNtNtCsjoPG8AIhCtl_8matrixci8matrixci5testss_17test_matrixci_new
FN:375,_RNvNtNtCsjoPG8AIhCtl_8matrixci8matrixci5testss_21test_crossinterpolate
FN:362,_RNvNtNtCsjoPG8AIhCtl_8matrixci8matrixci5testss_23test_matrixci_add_pivot
FN:346,_RNvNtNtCsjoPG8AIhCtl_8matrixci8matrixci5testss_25test_matrixci_from_matrix
FN:260,_RNCNvXININtCsjoPG8AIhCtl_8matrixci8matrixcis_0pEINtB7_8MatrixCIpEINtNtB9_6traits16AbstractMatrixCIpE8evaluate0B9_
FN:262,_RNCNvXININtCsjoPG8AIhCtl_8matrixci8matrixcis_0pEINtB7_8MatrixCIpEINtNtB9_6traits16AbstractMatrixCIpE8evaluates_0B9_
FN:51,_RNvMNtCsjoPG8AIhCtl_8matrixci8matrixciINtB2_8MatrixCIpE10from_partsB4_
FN:111,_RNvMNtCsjoPG8AIhCtl_8matrixci8matrixciINtB2_8MatrixCIpE12right_matrixB4_
FN:226,_RNvMNtCsjoPG8AIhCtl_8matrixci8matrixciINtB2_8MatrixCIpE14add_best_pivotB4_
FN:119,_RNvMNtCsjoPG8AIhCtl_8matrixci8matrixciINtB2_8MatrixCIpE17first_pivot_valueB4_
FN:87,_RNvMNtCsjoPG8AIhCtl_8matrixci8matrixciINtB2_8MatrixCIpE4isetB4_
FN:92,_RNvMNtCsjoPG8AIhCtl_8matrixci8matrixciINtB2_8MatrixCIpE4jsetB4_
FN:254,_RNvXININtCsjoPG8AIhCtl_8matrixci8matrixcis_0pEINtB5_8MatrixCIpEINtNtB7_6traits16AbstractMatrixCIpE8evaluateB7_
FNDA:1,_RINvNtCsjoPG8AIhCtl_8matrixci8matrixci16crossinterpolatedEB4_
FNDA:9,_RNCNvMNtCsjoPG8AIhCtl_8matrixci8matrixciINtB4_8MatrixCIdE22from_matrix_with_pivot0B6_
FNDA:2,_RNvMNtCsjoPG8AIhCtl_8matrixci8matrixciINtB2_8MatrixCIdE11left_matrixB4_
FNDA:2,_RNvMNtCsjoPG8AIhCtl_8matrixci8matrixciINtB2_8MatrixCIdE12pivot_matrixB4_
FNDA:1,_RNvMNtCsjoPG8AIhCtl_8matrixci8matrixciINtB2_8MatrixCIdE13add_pivot_colB4_
FNDA:1,_RNvMNtCsjoPG8AIhCtl_8matrixci8matrixciINtB2_8MatrixCIdE13add_pivot_rowB4_
FNDA:3,_RNvMNtCsjoPG8AIhCtl_8matrixci8matrixciINtB2_8MatrixCIdE22from_matrix_with_pivotB4_
FNDA:1,_RNvMNtCsjoPG8AIhCtl_8matrixci8matrixciINtB2_8MatrixCIdE3newB4_
FNDA:1,_RNvMNtCsjoPG8AIhCtl_8matrixci8matrixciINtB2_8MatrixCIdE9add_pivotB4_
FNDA:2,_RNvXs_NtCsjoPG8AIhCtl_8matrixci8matrixciINtB4_8MatrixCIdEINtNtB6_6traits16AbstractMatrixCIdE11col_indicesB6_
FNDA:2,_RNvXs_NtCsjoPG8AIhCtl_8matrixci8matrixciINtB4_8MatrixCIdEINtNtB6_6traits16AbstractMatrixCIdE11row_indicesB6_
FNDA:14,_RNvXs_NtCsjoPG8AIhCtl_8matrixci8matrixciINtB4_8MatrixCIdEINtNtB6_6traits16AbstractMatrixCIdE4rankB6_
FNDA:10,_RNvXs_NtCsjoPG8AIhCtl_8matrixci8matrixciINtB4_8MatrixCIdEINtNtB6_6traits16AbstractMatrixCIdE5ncolsB6_
FNDA:10,_RNvXs_NtCsjoPG8AIhCtl_8matrixci8matrixciINtB4_8MatrixCIdEINtNtB6_6traits16AbstractMatrixCIdE5nrowsB6_
FNDA:2,_RNvXs_NtCsjoPG8AIhCtl_8matrixci8matrixciINtB4_8MatrixCIdEINtNtB6_6traits16AbstractMatrixCIdE9submatrixB6_
FNDA:1,_RNvXs0_NtCsjoPG8AIhCtl_8matrixci8matrixciNtB5_23CrossInterpolateOptionsNtNtCskzPJi2J8k3N_4core7default7Default7default
FNDA:1,_RNvNtNtCsjoPG8AIhCtl_8matrixci8matrixci5testss_17test_matrixci_new
FNDA:1,_RNvNtNtCsjoPG8AIhCtl_8matrixci8matrixci5testss_21test_crossinterpolate
FNDA:1,_RNvNtNtCsjoPG8AIhCtl_8matrixci8matrixci5testss_23test_matrixci_add_pivot
FNDA:1,_RNvNtNtCsjoPG8AIhCtl_8matrixci8matrixci5testss_25test_matrixci_from_matrix
FNDA:0,_RNCNvXININtCsjoPG8AIhCtl_8matrixci8matrixcis_0pEINtB7_8MatrixCIpEINtNtB9_6traits16AbstractMatrixCIpE8evaluate0B9_
FNDA:0,_RNCNvXININtCsjoPG8AIhCtl_8matrixci8matrixcis_0pEINtB7_8MatrixCIpEINtNtB9_6traits16AbstractMatrixCIpE8evaluates_0B9_
FNDA:0,_RNvMNtCsjoPG8AIhCtl_8matrixci8matrixciINtB2_8MatrixCIpE10from_partsB4_
FNDA:0,_RNvMNtCsjoPG8AIhCtl_8matrixci8matrixciINtB2_8MatrixCIpE12right_matrixB4_
FNDA:0,_RNvMNtCsjoPG8AIhCtl_8matrixci8matrixciINtB2_8MatrixCIpE14add_best_pivotB4_
FNDA:0,_RNvMNtCsjoPG8AIhCtl_8matrixci8matrixciINtB2_8MatrixCIpE17first_pivot_valueB4_
FNDA:0,_RNvMNtCsjoPG8AIhCtl_8matrixci8matrixciINtB2_8MatrixCIpE4isetB4_
FNDA:0,_RNvMNtCsjoPG8AIhCtl_8matrixci8matrixciINtB2_8MatrixCIpE4jsetB4_
FNDA:0,_RNvXININtCsjoPG8AIhCtl_8matrixci8matrixcis_0pEINtB5_8MatrixCIpEINtNtB7_6traits16AbstractMatrixCIpE8evaluateB7_
FNF:29
FNH:20
DA:35,1
DA:36,1
DA:37,1
DA:38,1
DA:39,1
DA:40,1
DA:41,1
DA:42,1
DA:51,0
DA:52,0
DA:53,0
DA:54,0
DA:55,0
DA:56,0
DA:57,0
DA:58,0
DA:59,0
DA:60,0
DA:61,0
DA:62,0
DA:63,0
DA:66,3
DA:67,3
DA:68,3
DA:69,3
DA:71,3
DA:72,3
DA:74,9
DA:76,3
DA:78,3
DA:79,3
DA:80,3
DA:81,3
DA:82,3
DA:83,3
DA:84,3
DA:87,0
DA:88,0
DA:89,0
DA:92,0
DA:93,0
DA:94,0
DA:97,2
DA:98,2
DA:99,2
DA:100,2
DA:103,2
DA:104,2
DA:105,0
DA:106,2
DA:107,2
DA:108,2
DA:111,0
DA:112,0
DA:113,0
DA:114,0
DA:115,0
DA:116,0
DA:119,0
DA:120,0
DA:121,0
DA:123,0
DA:125,0
DA:128,1
DA:129,1
DA:130,0
DA:131,0
DA:132,0
DA:133,0
DA:134,0
DA:135,0
DA:136,1
DA:138,1
DA:139,0
DA:140,0
DA:141,0
DA:142,0
DA:143,0
DA:144,0
DA:145,1
DA:147,1
DA:148,0
DA:149,1
DA:151,1
DA:152,1
DA:153,1
DA:155,1
DA:156,1
DA:159,1
DA:160,1
DA:161,0
DA:162,0
DA:163,0
DA:164,0
DA:165,0
DA:166,0
DA:167,1
DA:169,1
DA:170,0
DA:171,0
DA:172,0
DA:173,0
DA:174,0
DA:175,0
DA:176,1
DA:178,1
DA:179,0
DA:180,1
DA:182,1
DA:183,1
DA:184,1
DA:186,1
DA:187,1
DA:190,1
DA:191,1
DA:193,1
DA:194,0
DA:195,0
DA:196,0
DA:197,0
DA:198,0
DA:199,0
DA:200,1
DA:202,1
DA:203,0
DA:204,0
DA:205,0
DA:206,0
DA:207,0
DA:208,0
DA:209,1
DA:211,1
DA:212,0
DA:213,1
DA:215,1
DA:216,0
DA:217,1
DA:219,1
DA:220,1
DA:222,1
DA:223,1
DA:226,0
DA:227,0
DA:228,0
DA:229,0
DA:230,0
DA:234,10
DA:235,10
DA:236,10
DA:238,10
DA:239,10
DA:240,10
DA:242,14
DA:243,14
DA:244,14
DA:246,2
DA:247,2
DA:248,2
DA:250,2
DA:251,2
DA:252,2
DA:254,0
DA:255,0
DA:256,0
DA:257,0
DA:259,0
DA:260,0
DA:261,0
DA:262,0
DA:263,0
DA:265,0
DA:266,0
DA:268,2
DA:269,2
DA:270,0
DA:271,2
DA:273,2
DA:274,2
DA:275,2
DA:277,2
DA:279,2
DA:280,2
DA:293,1
DA:294,1
DA:295,1
DA:296,1
DA:297,1
DA:298,1
DA:302,1
DA:303,1
DA:304,1
DA:305,1
DA:306,1
DA:309,1
DA:310,1
DA:311,1
DA:313,1
DA:315,1
DA:316,1
DA:317,1
DA:318,1
DA:319,1
DA:320,1
DA:321,1
DA:322,0
DA:323,0
DA:325,0
DA:329,1
DA:330,1
DA:337,1
DA:338,1
DA:339,1
DA:340,1
DA:341,1
DA:342,1
DA:343,1
DA:346,1
DA:347,1
DA:348,1
DA:349,1
DA:350,1
DA:353,1
DA:354,1
DA:355,1
DA:356,1
DA:357,1
DA:358,1
DA:359,1
DA:362,1
DA:363,1
DA:364,1
DA:365,1
DA:366,1
DA:369,1
DA:370,1
DA:371,1
DA:372,1
DA:375,1
DA:377,1
DA:378,1
DA:379,1
DA:380,1
DA:383,1
DA:386,1
DA:389,1
DA:390,4
DA:391,12
DA:392,9
DA:393,9
DA:394,9
DA:395,0
DA:401,1
BRF:0
BRH:0
LF:255
LH:161
end_of_record
SF:/Users/ken/git_for_collab4/tensor4all-rs/crates/matrixci/src/matrixlu.rs
FN:177,_RINvNtCsh2ySt9yG5fK_8matrixci8matrixlu12rrlu_inplaceINtCseyqKeAT1xJ3_11num_complex7ComplexdEECs55lPmkOpiMP_15tensor4all_core
FN:177,_RINvNtCsh2ySt9yG5fK_8matrixci8matrixlu12rrlu_inplacedECs55lPmkOpiMP_15tensor4all_core
FN:306,_RINvNtCsh2ySt9yG5fK_8matrixci8matrixlu4rrluINtCseyqKeAT1xJ3_11num_complex7ComplexdEECs55lPmkOpiMP_15tensor4all_core
FN:306,_RINvNtCsh2ySt9yG5fK_8matrixci8matrixlu4rrludECs55lPmkOpiMP_15tensor4all_core
FN:67,_RNvMNtCsh2ySt9yG5fK_8matrixci8matrixluINtB2_4RrLUINtCseyqKeAT1xJ3_11num_complex7ComplexdEE15col_permutationCs55lPmkOpiMP_15tensor4all_core
FN:62,_RNvMNtCsh2ySt9yG5fK_8matrixci8matrixluINtB2_4RrLUINtCseyqKeAT1xJ3_11num_complex7ComplexdEE15row_permutationCs55lPmkOpiMP_15tensor4all_core
FN:147,_RNvMNtCsh2ySt9yG5fK_8matrixci8matrixluINtB2_4RrLUINtCseyqKeAT1xJ3_11num_complex7ComplexdEE18is_left_orthogonalCs55lPmkOpiMP_15tensor4all_core
FN:34,_RNvMNtCsh2ySt9yG5fK_8matrixci8matrixluINtB2_4RrLUINtCseyqKeAT1xJ3_11num_complex7ComplexdEE3newCs55lPmkOpiMP_15tensor4all_core
FN:82,_RNvMNtCsh2ySt9yG5fK_8matrixci8matrixluINtB2_4RrLUINtCseyqKeAT1xJ3_11num_complex7ComplexdEE4leftCs55lPmkOpiMP_15tensor4all_core
FN:52,_RNvMNtCsh2ySt9yG5fK_8matrixci8matrixluINtB2_4RrLUINtCseyqKeAT1xJ3_11num_complex7ComplexdEE5ncolsCs55lPmkOpiMP_15tensor4all_core
FN:47,_RNvMNtCsh2ySt9yG5fK_8matrixci8matrixluINtB2_4RrLUINtCseyqKeAT1xJ3_11num_complex7ComplexdEE5nrowsCs55lPmkOpiMP_15tensor4all_core
FN:97,_RNvMNtCsh2ySt9yG5fK_8matrixci8matrixluINtB2_4RrLUINtCseyqKeAT1xJ3_11num_complex7ComplexdEE5rightCs55lPmkOpiMP_15tensor4all_core
FN:57,_RNvMNtCsh2ySt9yG5fK_8matrixci8matrixluINtB2_4RrLUINtCseyqKeAT1xJ3_11num_complex7ComplexdEE7npivotsCs55lPmkOpiMP_15tensor4all_core
FN:67,_RNvMNtCsh2ySt9yG5fK_8matrixci8matrixluINtB2_4RrLUdE15col_permutationCs55lPmkOpiMP_15tensor4all_core
FN:62,_RNvMNtCsh2ySt9yG5fK_8matrixci8matrixluINtB2_4RrLUdE15row_permutationCs55lPmkOpiMP_15tensor4all_core
FN:147,_RNvMNtCsh2ySt9yG5fK_8matrixci8matrixluINtB2_4RrLUdE18is_left_orthogonalCs55lPmkOpiMP_15tensor4all_core
FN:34,_RNvMNtCsh2ySt9yG5fK_8matrixci8matrixluINtB2_4RrLUdE3newCs55lPmkOpiMP_15tensor4all_core
FN:82,_RNvMNtCsh2ySt9yG5fK_8matrixci8matrixluINtB2_4RrLUdE4leftCs55lPmkOpiMP_15tensor4all_core
FN:52,_RNvMNtCsh2ySt9yG5fK_8matrixci8matrixluINtB2_4RrLUdE5ncolsCs55lPmkOpiMP_15tensor4all_core
FN:47,_RNvMNtCsh2ySt9yG5fK_8matrixci8matrixluINtB2_4RrLUdE5nrowsCs55lPmkOpiMP_15tensor4all_core
FN:97,_RNvMNtCsh2ySt9yG5fK_8matrixci8matrixluINtB2_4RrLUdE5rightCs55lPmkOpiMP_15tensor4all_core
FN:57,_RNvMNtCsh2ySt9yG5fK_8matrixci8matrixluINtB2_4RrLUdE7npivotsCs55lPmkOpiMP_15tensor4all_core
FN:166,_RNvXs_NtCsh2ySt9yG5fK_8matrixci8matrixluNtB4_11RrLUOptionsNtNtCskzPJi2J8k3N_4core7default7Default7default
FN:166,_RNvXs_NtCsjoPG8AIhCtl_8matrixci8matrixluNtB4_11RrLUOptionsNtNtCskzPJi2J8k3N_4core7default7Default7default
FN:401,_RNvNtNtCsjoPG8AIhCtl_8matrixci8matrixlu5testss_18test_rrlu_identity
FN:425,_RNvNtNtCsjoPG8AIhCtl_8matrixci8matrixlu5testss_19test_rrlu_full_rank
FN:438,_RNvNtNtCsjoPG8AIhCtl_8matrixci8matrixlu5testss_21test_rrlu_reconstruct
FN:410,_RNvNtNtCsjoPG8AIhCtl_8matrixci8matrixlu5testss_24test_rrlu_rank_deficient
FN:177,_RINvNtCsjoPG8AIhCtl_8matrixci8matrixlu12rrlu_inplacedEB4_
FN:306,_RINvNtCsjoPG8AIhCtl_8matrixci8matrixlu4rrludEB4_
FN:67,_RNvMNtCsjoPG8AIhCtl_8matrixci8matrixluINtB2_4RrLUdE15col_permutationB4_
FN:62,_RNvMNtCsjoPG8AIhCtl_8matrixci8matrixluINtB2_4RrLUdE15row_permutationB4_
FN:147,_RNvMNtCsjoPG8AIhCtl_8matrixci8matrixluINtB2_4RrLUdE18is_left_orthogonalB4_
FN:34,_RNvMNtCsjoPG8AIhCtl_8matrixci8matrixluINtB2_4RrLUdE3newB4_
FN:82,_RNvMNtCsjoPG8AIhCtl_8matrixci8matrixluINtB2_4RrLUdE4leftB4_
FN:52,_RNvMNtCsjoPG8AIhCtl_8matrixci8matrixluINtB2_4RrLUdE5ncolsB4_
FN:47,_RNvMNtCsjoPG8AIhCtl_8matrixci8matrixluINtB2_4RrLUdE5nrowsB4_
FN:97,_RNvMNtCsjoPG8AIhCtl_8matrixci8matrixluINtB2_4RrLUdE5rightB4_
FN:57,_RNvMNtCsjoPG8AIhCtl_8matrixci8matrixluINtB2_4RrLUdE7npivotsB4_
FN:312,_RINvNtCsjoPG8AIhCtl_8matrixci8matrixlu16cols_to_l_matrixpEB4_
FN:336,_RINvNtCsjoPG8AIhCtl_8matrixci8matrixlu16rows_to_u_matrixpEB4_
FN:360,_RINvNtCsjoPG8AIhCtl_8matrixci8matrixlu8solve_lupEB4_
FN:123,_RNCNvMNtCsjoPG8AIhCtl_8matrixci8matrixluINtB4_4RrLUpE12pivot_errors0B6_
FN:115,_RNCNvMNtCsjoPG8AIhCtl_8matrixci8matrixluINtB4_4RrLUpE4diag0B6_
FN:117,_RNCNvMNtCsjoPG8AIhCtl_8matrixci8matrixluINtB4_4RrLUpE4diags_0B6_
FN:77,_RNvMNtCsjoPG8AIhCtl_8matrixci8matrixluINtB2_4RrLUpE11col_indicesB4_
FN:72,_RNvMNtCsjoPG8AIhCtl_8matrixci8matrixluINtB2_4RrLUpE11row_indicesB4_
FN:122,_RNvMNtCsjoPG8AIhCtl_8matrixci8matrixluINtB2_4RrLUpE12pivot_errorsB4_
FN:129,_RNvMNtCsjoPG8AIhCtl_8matrixci8matrixluINtB2_4RrLUpE16last_pivot_errorB4_
FN:112,_RNvMNtCsjoPG8AIhCtl_8matrixci8matrixluINtB2_4RrLUpE4diagB4_
FN:134,_RNvMNtCsjoPG8AIhCtl_8matrixci8matrixluINtB2_4RrLUpE9transposeB4_
FN:123,_RNCNvMNtCsh2ySt9yG5fK_8matrixci8matrixluINtB4_4RrLUdE12pivot_errors0CsdnTG4X9gKe5_15tensor4all_capi
FN:115,_RNCNvMNtCsh2ySt9yG5fK_8matrixci8matrixluINtB4_4RrLUdE4diag0CsdnTG4X9gKe5_15tensor4all_capi
FN:117,_RNCNvMNtCsh2ySt9yG5fK_8matrixci8matrixluINtB4_4RrLUdE4diags_0CsdnTG4X9gKe5_15tensor4all_capi
FN:122,_RNvMNtCsh2ySt9yG5fK_8matrixci8matrixluINtB2_4RrLUdE12pivot_errorsCsdnTG4X9gKe5_15tensor4all_capi
FN:112,_RNvMNtCsh2ySt9yG5fK_8matrixci8matrixluINtB2_4RrLUdE4diagCsdnTG4X9gKe5_15tensor4all_capi
FN:177,_RINvNtCsh2ySt9yG5fK_8matrixci8matrixlu12rrlu_inplacedECscSOxaV92jfc_22tensor4all_quanticstci
FN:306,_RINvNtCsh2ySt9yG5fK_8matrixci8matrixlu4rrludECscSOxaV92jfc_22tensor4all_quanticstci
FN:123,_RNCNvMNtCsh2ySt9yG5fK_8matrixci8matrixluINtB4_4RrLUdE12pivot_errors0CscSOxaV92jfc_22tensor4all_quanticstci
FN:115,_RNCNvMNtCsh2ySt9yG5fK_8matrixci8matrixluINtB4_4RrLUdE4diag0CscSOxaV92jfc_22tensor4all_quanticstci
FN:117,_RNCNvMNtCsh2ySt9yG5fK_8matrixci8matrixluINtB4_4RrLUdE4diags_0CscSOxaV92jfc_22tensor4all_quanticstci
FN:122,_RNvMNtCsh2ySt9yG5fK_8matrixci8matrixluINtB2_4RrLUdE12pivot_errorsCscSOxaV92jfc_22tensor4all_quanticstci
FN:67,_RNvMNtCsh2ySt9yG5fK_8matrixci8matrixluINtB2_4RrLUdE15col_permutationCscSOxaV92jfc_22tensor4all_quanticstci
FN:62,_RNvMNtCsh2ySt9yG5fK_8matrixci8matrixluINtB2_4RrLUdE15row_permutationCscSOxaV92jfc_22tensor4all_quanticstci
FN:147,_RNvMNtCsh2ySt9yG5fK_8matrixci8matrixluINtB2_4RrLUdE18is_left_orthogonalCscSOxaV92jfc_22tensor4all_quanticstci
FN:34,_RNvMNtCsh2ySt9yG5fK_8matrixci8matrixluINtB2_4RrLUdE3newCscSOxaV92jfc_22tensor4all_quanticstci
FN:112,_RNvMNtCsh2ySt9yG5fK_8matrixci8matrixluINtB2_4RrLUdE4diagCscSOxaV92jfc_22tensor4all_quanticstci
FN:82,_RNvMNtCsh2ySt9yG5fK_8matrixci8matrixluINtB2_4RrLUdE4leftCscSOxaV92jfc_22tensor4all_quanticstci
FN:52,_RNvMNtCsh2ySt9yG5fK_8matrixci8matrixluINtB2_4RrLUdE5ncolsCscSOxaV92jfc_22tensor4all_quanticstci
FN:47,_RNvMNtCsh2ySt9yG5fK_8matrixci8matrixluINtB2_4RrLUdE5nrowsCscSOxaV92jfc_22tensor4all_quanticstci
FN:97,_RNvMNtCsh2ySt9yG5fK_8matrixci8matrixluINtB2_4RrLUdE5rightCscSOxaV92jfc_22tensor4all_quanticstci
FN:57,_RNvMNtCsh2ySt9yG5fK_8matrixci8matrixluINtB2_4RrLUdE7npivotsCscSOxaV92jfc_22tensor4all_quanticstci
FN:177,_RINvNtCsh2ySt9yG5fK_8matrixci8matrixlu12rrlu_inplacedECs8Utr2TeDrCM_19tensor4all_simplett
FN:306,_RINvNtCsh2ySt9yG5fK_8matrixci8matrixlu4rrludECs8Utr2TeDrCM_19tensor4all_simplett
FN:67,_RNvMNtCsh2ySt9yG5fK_8matrixci8matrixluINtB2_4RrLUdE15col_permutationCs8Utr2TeDrCM_19tensor4all_simplett
FN:62,_RNvMNtCsh2ySt9yG5fK_8matrixci8matrixluINtB2_4RrLUdE15row_permutationCs8Utr2TeDrCM_19tensor4all_simplett
FN:147,_RNvMNtCsh2ySt9yG5fK_8matrixci8matrixluINtB2_4RrLUdE18is_left_orthogonalCs8Utr2TeDrCM_19tensor4all_simplett
FN:34,_RNvMNtCsh2ySt9yG5fK_8matrixci8matrixluINtB2_4RrLUdE3newCs8Utr2TeDrCM_19tensor4all_simplett
FN:82,_RNvMNtCsh2ySt9yG5fK_8matrixci8matrixluINtB2_4RrLUdE4leftCs8Utr2TeDrCM_19tensor4all_simplett
FN:52,_RNvMNtCsh2ySt9yG5fK_8matrixci8matrixluINtB2_4RrLUdE5ncolsCs8Utr2TeDrCM_19tensor4all_simplett
FN:47,_RNvMNtCsh2ySt9yG5fK_8matrixci8matrixluINtB2_4RrLUdE5nrowsCs8Utr2TeDrCM_19tensor4all_simplett
FN:97,_RNvMNtCsh2ySt9yG5fK_8matrixci8matrixluINtB2_4RrLUdE5rightCs8Utr2TeDrCM_19tensor4all_simplett
FN:57,_RNvMNtCsh2ySt9yG5fK_8matrixci8matrixluINtB2_4RrLUdE7npivotsCs8Utr2TeDrCM_19tensor4all_simplett
FN:177,_RINvNtCsh2ySt9yG5fK_8matrixci8matrixlu12rrlu_inplacedECsjOkKuSgKfGs_19tensor4all_tensorci
FN:306,_RINvNtCsh2ySt9yG5fK_8matrixci8matrixlu4rrludECsjOkKuSgKfGs_19tensor4all_tensorci
FN:123,_RNCNvMNtCsh2ySt9yG5fK_8matrixci8matrixluINtB4_4RrLUdE12pivot_errors0CsjOkKuSgKfGs_19tensor4all_tensorci
FN:115,_RNCNvMNtCsh2ySt9yG5fK_8matrixci8matrixluINtB4_4RrLUdE4diag0CsjOkKuSgKfGs_19tensor4all_tensorci
FN:117,_RNCNvMNtCsh2ySt9yG5fK_8matrixci8matrixluINtB4_4RrLUdE4diags_0CsjOkKuSgKfGs_19tensor4all_tensorci
FN:122,_RNvMNtCsh2ySt9yG5fK_8matrixci8matrixluINtB2_4RrLUdE12pivot_errorsCsjOkKuSgKfGs_19tensor4all_tensorci
FN:67,_RNvMNtCsh2ySt9yG5fK_8matrixci8matrixluINtB2_4RrLUdE15col_permutationCsjOkKuSgKfGs_19tensor4all_tensorci
FN:62,_RNvMNtCsh2ySt9yG5fK_8matrixci8matrixluINtB2_4RrLUdE15row_permutationCsjOkKuSgKfGs_19tensor4all_tensorci
FN:147,_RNvMNtCsh2ySt9yG5fK_8matrixci8matrixluINtB2_4RrLUdE18is_left_orthogonalCsjOkKuSgKfGs_19tensor4all_tensorci
FN:34,_RNvMNtCsh2ySt9yG5fK_8matrixci8matrixluINtB2_4RrLUdE3newCsjOkKuSgKfGs_19tensor4all_tensorci
FN:112,_RNvMNtCsh2ySt9yG5fK_8matrixci8matrixluINtB2_4RrLUdE4diagCsjOkKuSgKfGs_19tensor4all_tensorci
FN:82,_RNvMNtCsh2ySt9yG5fK_8matrixci8matrixluINtB2_4RrLUdE4leftCsjOkKuSgKfGs_19tensor4all_tensorci
FN:52,_RNvMNtCsh2ySt9yG5fK_8matrixci8matrixluINtB2_4RrLUdE5ncolsCsjOkKuSgKfGs_19tensor4all_tensorci
FN:47,_RNvMNtCsh2ySt9yG5fK_8matrixci8matrixluINtB2_4RrLUdE5nrowsCsjOkKuSgKfGs_19tensor4all_tensorci
FN:97,_RNvMNtCsh2ySt9yG5fK_8matrixci8matrixluINtB2_4RrLUdE5rightCsjOkKuSgKfGs_19tensor4all_tensorci
FN:57,_RNvMNtCsh2ySt9yG5fK_8matrixci8matrixluINtB2_4RrLUdE7npivotsCsjOkKuSgKfGs_19tensor4all_tensorci
FNDA:44,_RINvNtCsh2ySt9yG5fK_8matrixci8matrixlu12rrlu_inplaceINtCseyqKeAT1xJ3_11num_complex7ComplexdEECs55lPmkOpiMP_15tensor4all_core
FNDA:14,_RINvNtCsh2ySt9yG5fK_8matrixci8matrixlu12rrlu_inplacedECs55lPmkOpiMP_15tensor4all_core
FNDA:44,_RINvNtCsh2ySt9yG5fK_8matrixci8matrixlu4rrluINtCseyqKeAT1xJ3_11num_complex7ComplexdEECs55lPmkOpiMP_15tensor4all_core
FNDA:14,_RINvNtCsh2ySt9yG5fK_8matrixci8matrixlu4rrludECs55lPmkOpiMP_15tensor4all_core
FNDA:0,_RNvMNtCsh2ySt9yG5fK_8matrixci8matrixluINtB2_4RrLUINtCseyqKeAT1xJ3_11num_complex7ComplexdEE15col_permutationCs55lPmkOpiMP_15tensor4all_core
FNDA:0,_RNvMNtCsh2ySt9yG5fK_8matrixci8matrixluINtB2_4RrLUINtCseyqKeAT1xJ3_11num_complex7ComplexdEE15row_permutationCs55lPmkOpiMP_15tensor4all_core
FNDA:0,_RNvMNtCsh2ySt9yG5fK_8matrixci8matrixluINtB2_4RrLUINtCseyqKeAT1xJ3_11num_complex7ComplexdEE18is_left_orthogonalCs55lPmkOpiMP_15tensor4all_core
FNDA:44,_RNvMNtCsh2ySt9yG5fK_8matrixci8matrixluINtB2_4RrLUINtCseyqKeAT1xJ3_11num_complex7ComplexdEE3newCs55lPmkOpiMP_15tensor4all_core
FNDA:44,_RNvMNtCsh2ySt9yG5fK_8matrixci8matrixluINtB2_4RrLUINtCseyqKeAT1xJ3_11num_complex7ComplexdEE4leftCs55lPmkOpiMP_15tensor4all_core
FNDA:0,_RNvMNtCsh2ySt9yG5fK_8matrixci8matrixluINtB2_4RrLUINtCseyqKeAT1xJ3_11num_complex7ComplexdEE5ncolsCs55lPmkOpiMP_15tensor4all_core
FNDA:0,_RNvMNtCsh2ySt9yG5fK_8matrixci8matrixluINtB2_4RrLUINtCseyqKeAT1xJ3_11num_complex7ComplexdEE5nrowsCs55lPmkOpiMP_15tensor4all_core
FNDA:44,_RNvMNtCsh2ySt9yG5fK_8matrixci8matrixluINtB2_4RrLUINtCseyqKeAT1xJ3_11num_complex7ComplexdEE5rightCs55lPmkOpiMP_15tensor4all_core
FNDA:44,_RNvMNtCsh2ySt9yG5fK_8matrixci8matrixluINtB2_4RrLUINtCseyqKeAT1xJ3_11num_complex7ComplexdEE7npivotsCs55lPmkOpiMP_15tensor4all_core
FNDA:3,_RNvMNtCsh2ySt9yG5fK_8matrixci8matrixluINtB2_4RrLUdE15col_permutationCs55lPmkOpiMP_15tensor4all_core
FNDA:6,_RNvMNtCsh2ySt9yG5fK_8matrixci8matrixluINtB2_4RrLUdE15row_permutationCs55lPmkOpiMP_15tensor4all_core
FNDA:14,_RNvMNtCsh2ySt9yG5fK_8matrixci8matrixluINtB2_4RrLUdE18is_left_orthogonalCs55lPmkOpiMP_15tensor4all_core
FNDA:14,_RNvMNtCsh2ySt9yG5fK_8matrixci8matrixluINtB2_4RrLUdE3newCs55lPmkOpiMP_15tensor4all_core
FNDA:15,_RNvMNtCsh2ySt9yG5fK_8matrixci8matrixluINtB2_4RrLUdE4leftCs55lPmkOpiMP_15tensor4all_core
FNDA:2,_RNvMNtCsh2ySt9yG5fK_8matrixci8matrixluINtB2_4RrLUdE5ncolsCs55lPmkOpiMP_15tensor4all_core
FNDA:5,_RNvMNtCsh2ySt9yG5fK_8matrixci8matrixluINtB2_4RrLUdE5nrowsCs55lPmkOpiMP_15tensor4all_core
FNDA:16,_RNvMNtCsh2ySt9yG5fK_8matrixci8matrixluINtB2_4RrLUdE5rightCs55lPmkOpiMP_15tensor4all_core
FNDA:30,_RNvMNtCsh2ySt9yG5fK_8matrixci8matrixluINtB2_4RrLUdE7npivotsCs55lPmkOpiMP_15tensor4all_core
FNDA:0,_RNvXs_NtCsh2ySt9yG5fK_8matrixci8matrixluNtB4_11RrLUOptionsNtNtCskzPJi2J8k3N_4core7default7Default7default
FNDA:7,_RNvXs_NtCsjoPG8AIhCtl_8matrixci8matrixluNtB4_11RrLUOptionsNtNtCskzPJi2J8k3N_4core7default7Default7default
FNDA:1,_RNvNtNtCsjoPG8AIhCtl_8matrixci8matrixlu5testss_18test_rrlu_identity
FNDA:1,_RNvNtNtCsjoPG8AIhCtl_8matrixci8matrixlu5testss_19test_rrlu_full_rank
FNDA:1,_RNvNtNtCsjoPG8AIhCtl_8matrixci8matrixlu5testss_21test_rrlu_reconstruct
FNDA:1,_RNvNtNtCsjoPG8AIhCtl_8matrixci8matrixlu5testss_24test_rrlu_rank_deficient
FNDA:7,_RINvNtCsjoPG8AIhCtl_8matrixci8matrixlu12rrlu_inplacedEB4_
FNDA:7,_RINvNtCsjoPG8AIhCtl_8matrixci8matrixlu4rrludEB4_
FNDA:0,_RNvMNtCsjoPG8AIhCtl_8matrixci8matrixluINtB2_4RrLUdE15col_permutationB4_
FNDA:1,_RNvMNtCsjoPG8AIhCtl_8matrixci8matrixluINtB2_4RrLUdE15row_permutationB4_
FNDA:2,_RNvMNtCsjoPG8AIhCtl_8matrixci8matrixluINtB2_4RrLUdE18is_left_orthogonalB4_
FNDA:7,_RNvMNtCsjoPG8AIhCtl_8matrixci8matrixluINtB2_4RrLUdE3newB4_
FNDA:2,_RNvMNtCsjoPG8AIhCtl_8matrixci8matrixluINtB2_4RrLUdE4leftB4_
FNDA:2,_RNvMNtCsjoPG8AIhCtl_8matrixci8matrixluINtB2_4RrLUdE5ncolsB4_
FNDA:3,_RNvMNtCsjoPG8AIhCtl_8matrixci8matrixluINtB2_4RrLUdE5nrowsB4_
FNDA:2,_RNvMNtCsjoPG8AIhCtl_8matrixci8matrixluINtB2_4RrLUdE5rightB4_
FNDA:8,_RNvMNtCsjoPG8AIhCtl_8matrixci8matrixluINtB2_4RrLUdE7npivotsB4_
FNDA:0,_RINvNtCsjoPG8AIhCtl_8matrixci8matrixlu16cols_to_l_matrixpEB4_
FNDA:0,_RINvNtCsjoPG8AIhCtl_8matrixci8matrixlu16rows_to_u_matrixpEB4_
FNDA:0,_RINvNtCsjoPG8AIhCtl_8matrixci8matrixlu8solve_lupEB4_
FNDA:0,_RNCNvMNtCsjoPG8AIhCtl_8matrixci8matrixluINtB4_4RrLUpE12pivot_errors0B6_
FNDA:0,_RNCNvMNtCsjoPG8AIhCtl_8matrixci8matrixluINtB4_4RrLUpE4diag0B6_
FNDA:0,_RNCNvMNtCsjoPG8AIhCtl_8matrixci8matrixluINtB4_4RrLUpE4diags_0B6_
FNDA:0,_RNvMNtCsjoPG8AIhCtl_8matrixci8matrixluINtB2_4RrLUpE11col_indicesB4_
FNDA:0,_RNvMNtCsjoPG8AIhCtl_8matrixci8matrixluINtB2_4RrLUpE11row_indicesB4_
FNDA:0,_RNvMNtCsjoPG8AIhCtl_8matrixci8matrixluINtB2_4RrLUpE12pivot_errorsB4_
FNDA:0,_RNvMNtCsjoPG8AIhCtl_8matrixci8matrixluINtB2_4RrLUpE16last_pivot_errorB4_
FNDA:0,_RNvMNtCsjoPG8AIhCtl_8matrixci8matrixluINtB2_4RrLUpE4diagB4_
FNDA:0,_RNvMNtCsjoPG8AIhCtl_8matrixci8matrixluINtB2_4RrLUpE9transposeB4_
FNDA:1,_RNCNvMNtCsh2ySt9yG5fK_8matrixci8matrixluINtB4_4RrLUdE12pivot_errors0CsdnTG4X9gKe5_15tensor4all_capi
FNDA:1,_RNCNvMNtCsh2ySt9yG5fK_8matrixci8matrixluINtB4_4RrLUdE4diag0CsdnTG4X9gKe5_15tensor4all_capi
FNDA:0,_RNCNvMNtCsh2ySt9yG5fK_8matrixci8matrixluINtB4_4RrLUdE4diags_0CsdnTG4X9gKe5_15tensor4all_capi
FNDA:1,_RNvMNtCsh2ySt9yG5fK_8matrixci8matrixluINtB2_4RrLUdE12pivot_errorsCsdnTG4X9gKe5_15tensor4all_capi
FNDA:1,_RNvMNtCsh2ySt9yG5fK_8matrixci8matrixluINtB2_4RrLUdE4diagCsdnTG4X9gKe5_15tensor4all_capi
FNDA:2,_RINvNtCsh2ySt9yG5fK_8matrixci8matrixlu12rrlu_inplacedECscSOxaV92jfc_22tensor4all_quanticstci
FNDA:2,_RINvNtCsh2ySt9yG5fK_8matrixci8matrixlu4rrludECscSOxaV92jfc_22tensor4all_quanticstci
FNDA:4,_RNCNvMNtCsh2ySt9yG5fK_8matrixci8matrixluINtB4_4RrLUdE12pivot_errors0CscSOxaV92jfc_22tensor4all_quanticstci
FNDA:4,_RNCNvMNtCsh2ySt9yG5fK_8matrixci8matrixluINtB4_4RrLUdE4diag0CscSOxaV92jfc_22tensor4all_quanticstci
FNDA:0,_RNCNvMNtCsh2ySt9yG5fK_8matrixci8matrixluINtB4_4RrLUdE4diags_0CscSOxaV92jfc_22tensor4all_quanticstci
FNDA:2,_RNvMNtCsh2ySt9yG5fK_8matrixci8matrixluINtB2_4RrLUdE12pivot_errorsCscSOxaV92jfc_22tensor4all_quanticstci
FNDA:2,_RNvMNtCsh2ySt9yG5fK_8matrixci8matrixluINtB2_4RrLUdE15col_permutationCscSOxaV92jfc_22tensor4all_quanticstci
FNDA:4,_RNvMNtCsh2ySt9yG5fK_8matrixci8matrixluINtB2_4RrLUdE15row_permutationCscSOxaV92jfc_22tensor4all_quanticstci
FNDA:4,_RNvMNtCsh2ySt9yG5fK_8matrixci8matrixluINtB2_4RrLUdE18is_left_orthogonalCscSOxaV92jfc_22tensor4all_quanticstci
FNDA:2,_RNvMNtCsh2ySt9yG5fK_8matrixci8matrixluINtB2_4RrLUdE3newCscSOxaV92jfc_22tensor4all_quanticstci
FNDA:2,_RNvMNtCsh2ySt9yG5fK_8matrixci8matrixluINtB2_4RrLUdE4diagCscSOxaV92jfc_22tensor4all_quanticstci
FNDA:4,_RNvMNtCsh2ySt9yG5fK_8matrixci8matrixluINtB2_4RrLUdE4leftCscSOxaV92jfc_22tensor4all_quanticstci
FNDA:0,_RNvMNtCsh2ySt9yG5fK_8matrixci8matrixluINtB2_4RrLUdE5ncolsCscSOxaV92jfc_22tensor4all_quanticstci
FNDA:2,_RNvMNtCsh2ySt9yG5fK_8matrixci8matrixluINtB2_4RrLUdE5nrowsCscSOxaV92jfc_22tensor4all_quanticstci
FNDA:2,_RNvMNtCsh2ySt9yG5fK_8matrixci8matrixluINtB2_4RrLUdE5rightCscSOxaV92jfc_22tensor4all_quanticstci
FNDA:10,_RNvMNtCsh2ySt9yG5fK_8matrixci8matrixluINtB2_4RrLUdE7npivotsCscSOxaV92jfc_22tensor4all_quanticstci
FNDA:54,_RINvNtCsh2ySt9yG5fK_8matrixci8matrixlu12rrlu_inplacedECs8Utr2TeDrCM_19tensor4all_simplett
FNDA:54,_RINvNtCsh2ySt9yG5fK_8matrixci8matrixlu4rrludECs8Utr2TeDrCM_19tensor4all_simplett
FNDA:0,_RNvMNtCsh2ySt9yG5fK_8matrixci8matrixluINtB2_4RrLUdE15col_permutationCs8Utr2TeDrCM_19tensor4all_simplett
FNDA:1,_RNvMNtCsh2ySt9yG5fK_8matrixci8matrixluINtB2_4RrLUdE15row_permutationCs8Utr2TeDrCM_19tensor4all_simplett
FNDA:2,_RNvMNtCsh2ySt9yG5fK_8matrixci8matrixluINtB2_4RrLUdE18is_left_orthogonalCs8Utr2TeDrCM_19tensor4all_simplett
FNDA:54,_RNvMNtCsh2ySt9yG5fK_8matrixci8matrixluINtB2_4RrLUdE3newCs8Utr2TeDrCM_19tensor4all_simplett
FNDA:55,_RNvMNtCsh2ySt9yG5fK_8matrixci8matrixluINtB2_4RrLUdE4leftCs8Utr2TeDrCM_19tensor4all_simplett
FNDA:0,_RNvMNtCsh2ySt9yG5fK_8matrixci8matrixluINtB2_4RrLUdE5ncolsCs8Utr2TeDrCM_19tensor4all_simplett
FNDA:1,_RNvMNtCsh2ySt9yG5fK_8matrixci8matrixluINtB2_4RrLUdE5nrowsCs8Utr2TeDrCM_19tensor4all_simplett
FNDA:54,_RNvMNtCsh2ySt9yG5fK_8matrixci8matrixluINtB2_4RrLUdE5rightCs8Utr2TeDrCM_19tensor4all_simplett
FNDA:13,_RNvMNtCsh2ySt9yG5fK_8matrixci8matrixluINtB2_4RrLUdE7npivotsCs8Utr2TeDrCM_19tensor4all_simplett
FNDA:12,_RINvNtCsh2ySt9yG5fK_8matrixci8matrixlu12rrlu_inplacedECsjOkKuSgKfGs_19tensor4all_tensorci
FNDA:12,_RINvNtCsh2ySt9yG5fK_8matrixci8matrixlu4rrludECsjOkKuSgKfGs_19tensor4all_tensorci
FNDA:14,_RNCNvMNtCsh2ySt9yG5fK_8matrixci8matrixluINtB4_4RrLUdE12pivot_errors0CsjOkKuSgKfGs_19tensor4all_tensorci
FNDA:14,_RNCNvMNtCsh2ySt9yG5fK_8matrixci8matrixluINtB4_4RrLUdE4diag0CsjOkKuSgKfGs_19tensor4all_tensorci
FNDA:0,_RNCNvMNtCsh2ySt9yG5fK_8matrixci8matrixluINtB4_4RrLUdE4diags_0CsjOkKuSgKfGs_19tensor4all_tensorci
FNDA:12,_RNvMNtCsh2ySt9yG5fK_8matrixci8matrixluINtB2_4RrLUdE12pivot_errorsCsjOkKuSgKfGs_19tensor4all_tensorci
FNDA:12,_RNvMNtCsh2ySt9yG5fK_8matrixci8matrixluINtB2_4RrLUdE15col_permutationCsjOkKuSgKfGs_19tensor4all_tensorci
FNDA:24,_RNvMNtCsh2ySt9yG5fK_8matrixci8matrixluINtB2_4RrLUdE15row_permutationCsjOkKuSgKfGs_19tensor4all_tensorci
FNDA:24,_RNvMNtCsh2ySt9yG5fK_8matrixci8matrixluINtB2_4RrLUdE18is_left_orthogonalCsjOkKuSgKfGs_19tensor4all_tensorci
FNDA:12,_RNvMNtCsh2ySt9yG5fK_8matrixci8matrixluINtB2_4RrLUdE3newCsjOkKuSgKfGs_19tensor4all_tensorci
FNDA:12,_RNvMNtCsh2ySt9yG5fK_8matrixci8matrixluINtB2_4RrLUdE4diagCsjOkKuSgKfGs_19tensor4all_tensorci
FNDA:24,_RNvMNtCsh2ySt9yG5fK_8matrixci8matrixluINtB2_4RrLUdE4leftCsjOkKuSgKfGs_19tensor4all_tensorci
FNDA:0,_RNvMNtCsh2ySt9yG5fK_8matrixci8matrixluINtB2_4RrLUdE5ncolsCsjOkKuSgKfGs_19tensor4all_tensorci
FNDA:12,_RNvMNtCsh2ySt9yG5fK_8matrixci8matrixluINtB2_4RrLUdE5nrowsCsjOkKuSgKfGs_19tensor4all_tensorci
FNDA:12,_RNvMNtCsh2ySt9yG5fK_8matrixci8matrixluINtB2_4RrLUdE5rightCsjOkKuSgKfGs_19tensor4all_tensorci
FNDA:60,_RNvMNtCsh2ySt9yG5fK_8matrixci8matrixluINtB2_4RrLUdE7npivotsCsjOkKuSgKfGs_19tensor4all_tensorci
FNF:28
FNH:20
DA:34,133
DA:35,133
DA:36,133
DA:37,133
DA:38,133
DA:39,133
DA:40,133
DA:41,133
DA:42,133
DA:43,133
DA:44,133
DA:47,23
DA:48,23
DA:49,23
DA:52,4
DA:53,4
DA:54,4
DA:57,165
DA:58,165
DA:59,165
DA:62,36
DA:63,36
DA:64,36
DA:67,17
DA:68,17
DA:69,17
DA:72,0
DA:73,0
DA:74,0
DA:77,0
DA:78,0
DA:79,0
DA:82,144
DA:83,144
DA:84,107
DA:85,412
DA:86,1267
DA:87,1267
DA:88,1267
DA:90,107
DA:92,37
DA:94,144
DA:97,130
DA:98,130
DA:99,126
DA:100,244
DA:101,2862
DA:102,2862
DA:103,2862
DA:105,126
DA:107,4
DA:109,130
DA:112,15
DA:113,15
DA:114,15
DA:115,19
DA:117,0
DA:119,15
DA:122,15
DA:123,19
DA:124,15
DA:125,15
DA:126,15
DA:129,0
DA:130,0
DA:131,0
DA:134,0
DA:135,0
DA:136,0
DA:137,0
DA:138,0
DA:139,0
DA:140,0
DA:141,0
DA:142,0
DA:143,0
DA:144,0
DA:147,46
DA:148,46
DA:149,46
DA:166,7
DA:167,7
DA:168,7
DA:169,7
DA:170,7
DA:171,7
DA:172,7
DA:173,7
DA:177,133
DA:178,133
DA:179,133
DA:180,133
DA:182,133
DA:183,133
DA:184,133
DA:186,392
DA:187,308
DA:188,308
DA:189,308
DA:191,308
DA:192,0
DA:193,308
DA:196,308
DA:198,308
DA:199,308
DA:202,308
DA:203,49
DA:204,259
DA:206,259
DA:209,259
DA:210,138
DA:211,138
DA:212,138
DA:213,259
DA:214,171
DA:215,171
DA:216,171
DA:218,259
DA:221,259
DA:223,753
DA:224,753
DA:225,753
DA:226,753
DA:229,340
DA:230,340
DA:231,340
DA:232,340
DA:236,870
DA:237,14465
DA:238,14465
DA:239,14465
DA:240,14465
DA:241,14465
DA:242,14465
DA:245,259
DA:249,133
DA:252,133
DA:253,479
DA:254,1129
DA:255,1129
DA:256,1129
DA:260,133
DA:261,259
DA:262,2655
DA:263,2655
DA:264,2655
DA:268,133
DA:269,191
DA:270,191
DA:271,191
DA:273,68
DA:274,68
DA:275,68
DA:279,479
DA:280,1381
DA:281,1381
DA:282,0
DA:283,1381
DA:286,259
DA:287,2907
DA:288,2907
DA:289,0
DA:290,2907
DA:295,133
DA:296,83
DA:297,83
DA:299,133
DA:300,133
DA:302,133
DA:303,133
DA:306,133
DA:307,133
DA:308,133
DA:309,133
DA:312,0
DA:313,0
DA:315,0
DA:316,0
DA:318,0
DA:319,0
DA:320,0
DA:321,0
DA:324,0
DA:325,0
DA:326,0
DA:327,0
DA:328,0
DA:329,0
DA:330,0
DA:333,0
DA:336,0
DA:337,0
DA:339,0
DA:340,0
DA:342,0
DA:343,0
DA:344,0
DA:345,0
DA:348,0
DA:349,0
DA:350,0
DA:351,0
DA:352,0
DA:353,0
DA:354,0
DA:357,0
DA:360,0
DA:361,0
DA:362,0
DA:363,0
DA:364,0
DA:367,0
DA:368,0
DA:369,0
DA:370,0
DA:371,0
DA:372,0
DA:373,0
DA:374,0
DA:375,0
DA:380,0
DA:381,0
DA:382,0
DA:383,0
DA:384,0
DA:385,0
DA:386,0
DA:387,0
DA:388,0
DA:392,0
DA:393,0
DA:401,1
DA:402,1
DA:403,1
DA:405,1
DA:406,1
DA:407,1
DA:410,1
DA:412,1
DA:413,1
DA:414,1
DA:415,1
DA:418,1
DA:421,1
DA:422,1
DA:425,1
DA:426,1
DA:427,1
DA:428,1
DA:429,1
DA:432,1
DA:434,1
DA:435,1
DA:438,1
DA:439,1
DA:441,1
DA:442,1
DA:443,1
DA:446,1
DA:448,3
DA:449,6
DA:450,4
DA:451,4
DA:452,4
DA:453,0
DA:460,1
BRF:0
BRH:0
LF:269
LH:186
end_of_record
SF:/Users/ken/git_for_collab4/tensor4all-rs/crates/matrixci/src/matrixluci.rs
FN:35,_RNvMNtCsh2ySt9yG5fK_8matrixci10matrixluciINtB2_10MatrixLUCIINtCseyqKeAT1xJ3_11num_complex7ComplexdEE10col_matrixCs55lPmkOpiMP_15tensor4all_core
FN:48,_RNvMNtCsh2ySt9yG5fK_8matrixci10matrixluciINtB2_10MatrixLUCIINtCseyqKeAT1xJ3_11num_complex7ComplexdEE10row_matrixCs55lPmkOpiMP_15tensor4all_core
FN:18,_RNvMNtCsh2ySt9yG5fK_8matrixci10matrixluciINtB2_10MatrixLUCIINtCseyqKeAT1xJ3_11num_complex7ComplexdEE11from_matrixCs55lPmkOpiMP_15tensor4all_core
FN:61,_RNvMNtCsh2ySt9yG5fK_8matrixci10matrixluciINtB2_10MatrixLUCIINtCseyqKeAT1xJ3_11num_complex7ComplexdEE20cols_times_pivot_invCs55lPmkOpiMP_15tensor4all_core
FN:112,_RNvMNtCsh2ySt9yG5fK_8matrixci10matrixluciINtB2_10MatrixLUCIINtCseyqKeAT1xJ3_11num_complex7ComplexdEE20pivot_inv_times_rowsCs55lPmkOpiMP_15tensor4all_core
FN:163,_RNvMNtCsh2ySt9yG5fK_8matrixci10matrixluciINtB2_10MatrixLUCIINtCseyqKeAT1xJ3_11num_complex7ComplexdEE4leftCs55lPmkOpiMP_15tensor4all_core
FN:172,_RNvMNtCsh2ySt9yG5fK_8matrixci10matrixluciINtB2_10MatrixLUCIINtCseyqKeAT1xJ3_11num_complex7ComplexdEE5rightCs55lPmkOpiMP_15tensor4all_core
FN:35,_RNvMNtCsh2ySt9yG5fK_8matrixci10matrixluciINtB2_10MatrixLUCIdE10col_matrixCs55lPmkOpiMP_15tensor4all_core
FN:48,_RNvMNtCsh2ySt9yG5fK_8matrixci10matrixluciINtB2_10MatrixLUCIdE10row_matrixCs55lPmkOpiMP_15tensor4all_core
FN:18,_RNvMNtCsh2ySt9yG5fK_8matrixci10matrixluciINtB2_10MatrixLUCIdE11from_matrixCs55lPmkOpiMP_15tensor4all_core
FN:61,_RNvMNtCsh2ySt9yG5fK_8matrixci10matrixluciINtB2_10MatrixLUCIdE20cols_times_pivot_invCs55lPmkOpiMP_15tensor4all_core
FN:112,_RNvMNtCsh2ySt9yG5fK_8matrixci10matrixluciINtB2_10MatrixLUCIdE20pivot_inv_times_rowsCs55lPmkOpiMP_15tensor4all_core
FN:163,_RNvMNtCsh2ySt9yG5fK_8matrixci10matrixluciINtB2_10MatrixLUCIdE4leftCs55lPmkOpiMP_15tensor4all_core
FN:172,_RNvMNtCsh2ySt9yG5fK_8matrixci10matrixluciINtB2_10MatrixLUCIdE5rightCs55lPmkOpiMP_15tensor4all_core
FN:200,_RNvXs_NtCsh2ySt9yG5fK_8matrixci10matrixluciINtB4_10MatrixLUCIINtCseyqKeAT1xJ3_11num_complex7ComplexdEEINtNtB6_6traits16AbstractMatrixCIBX_E4rankCs55lPmkOpiMP_15tensor4all_core
FN:196,_RNvXs_NtCsh2ySt9yG5fK_8matrixci10matrixluciINtB4_10MatrixLUCIINtCseyqKeAT1xJ3_11num_complex7ComplexdEEINtNtB6_6traits16AbstractMatrixCIBX_E5ncolsCs55lPmkOpiMP_15tensor4all_core
FN:192,_RNvXs_NtCsh2ySt9yG5fK_8matrixci10matrixluciINtB4_10MatrixLUCIINtCseyqKeAT1xJ3_11num_complex7ComplexdEEINtNtB6_6traits16AbstractMatrixCIBX_E5nrowsCs55lPmkOpiMP_15tensor4all_core
FN:200,_RNvXs_NtCsh2ySt9yG5fK_8matrixci10matrixluciINtB4_10MatrixLUCIdEINtNtB6_6traits16AbstractMatrixCIdE4rankCs55lPmkOpiMP_15tensor4all_core
FN:196,_RNvXs_NtCsh2ySt9yG5fK_8matrixci10matrixluciINtB4_10MatrixLUCIdEINtNtB6_6traits16AbstractMatrixCIdE5ncolsCs55lPmkOpiMP_15tensor4all_core
FN:192,_RNvXs_NtCsh2ySt9yG5fK_8matrixci10matrixluciINtB4_10MatrixLUCIdEINtNtB6_6traits16AbstractMatrixCIdE5nrowsCs55lPmkOpiMP_15tensor4all_core
FN:243,_RNvNtNtCsjoPG8AIhCtl_8matrixci10matrixluci5testss_27test_matrixluci_from_matrix
FN:257,_RNvNtNtCsjoPG8AIhCtl_8matrixci10matrixluci5testss_27test_matrixluci_reconstruct
FN:278,_RNvNtNtCsjoPG8AIhCtl_8matrixci10matrixluci5testss_30test_matrixluci_rank_deficient
FN:35,_RNvMNtCsjoPG8AIhCtl_8matrixci10matrixluciINtB2_10MatrixLUCIdE10col_matrixB4_
FN:48,_RNvMNtCsjoPG8AIhCtl_8matrixci10matrixluciINtB2_10MatrixLUCIdE10row_matrixB4_
FN:18,_RNvMNtCsjoPG8AIhCtl_8matrixci10matrixluciINtB2_10MatrixLUCIdE11from_matrixB4_
FN:61,_RNvMNtCsjoPG8AIhCtl_8matrixci10matrixluciINtB2_10MatrixLUCIdE20cols_times_pivot_invB4_
FN:112,_RNvMNtCsjoPG8AIhCtl_8matrixci10matrixluciINtB2_10MatrixLUCIdE20pivot_inv_times_rowsB4_
FN:163,_RNvMNtCsjoPG8AIhCtl_8matrixci10matrixluciINtB2_10MatrixLUCIdE4leftB4_
FN:172,_RNvMNtCsjoPG8AIhCtl_8matrixci10matrixluciINtB2_10MatrixLUCIdE5rightB4_
FN:200,_RNvXs_NtCsjoPG8AIhCtl_8matrixci10matrixluciINtB4_10MatrixLUCIdEINtNtB6_6traits16AbstractMatrixCIdE4rankB6_
FN:196,_RNvXs_NtCsjoPG8AIhCtl_8matrixci10matrixluciINtB4_10MatrixLUCIdEINtNtB6_6traits16AbstractMatrixCIdE5ncolsB6_
FN:192,_RNvXs_NtCsjoPG8AIhCtl_8matrixci10matrixluciINtB4_10MatrixLUCIdEINtNtB6_6traits16AbstractMatrixCIdE5nrowsB6_
FN:225,_RNvXs_NtCsjoPG8AIhCtl_8matrixci10matrixluciINtB4_10MatrixLUCIdEINtNtB6_6traits16AbstractMatrixCIdE9submatrixB6_
FN:181,_RNvMNtCsjoPG8AIhCtl_8matrixci10matrixluciINtB2_10MatrixLUCIpE12pivot_errorsB4_
FN:186,_RNvMNtCsjoPG8AIhCtl_8matrixci10matrixluciINtB2_10MatrixLUCIpE16last_pivot_errorB4_
FN:30,_RNvMNtCsjoPG8AIhCtl_8matrixci10matrixluciINtB2_10MatrixLUCIpE2luB4_
FN:25,_RNvMNtCsjoPG8AIhCtl_8matrixci10matrixluciINtB2_10MatrixLUCIpE9from_rrluB4_
FN:209,_RNvXININtCsjoPG8AIhCtl_8matrixci10matrixlucis_0pEINtB5_10MatrixLUCIpEINtNtB7_6traits16AbstractMatrixCIpE11col_indicesB7_
FN:204,_RNvXININtCsjoPG8AIhCtl_8matrixci10matrixlucis_0pEINtB5_10MatrixLUCIpEINtNtB7_6traits16AbstractMatrixCIpE11row_indicesB7_
FN:214,_RNvXININtCsjoPG8AIhCtl_8matrixci10matrixlucis_0pEINtB5_10MatrixLUCIpEINtNtB7_6traits16AbstractMatrixCIpE8evaluateB7_
FN:181,_RNvMNtCsh2ySt9yG5fK_8matrixci10matrixluciINtB2_10MatrixLUCIdE12pivot_errorsCsdnTG4X9gKe5_15tensor4all_capi
FN:209,_RNvXs_NtCsh2ySt9yG5fK_8matrixci10matrixluciINtB4_10MatrixLUCIdEINtNtB6_6traits16AbstractMatrixCIdE11col_indicesCsdnTG4X9gKe5_15tensor4all_capi
FN:204,_RNvXs_NtCsh2ySt9yG5fK_8matrixci10matrixluciINtB4_10MatrixLUCIdEINtNtB6_6traits16AbstractMatrixCIdE11row_indicesCsdnTG4X9gKe5_15tensor4all_capi
FN:35,_RNvMNtCsh2ySt9yG5fK_8matrixci10matrixluciINtB2_10MatrixLUCIdE10col_matrixCscSOxaV92jfc_22tensor4all_quanticstci
FN:48,_RNvMNtCsh2ySt9yG5fK_8matrixci10matrixluciINtB2_10MatrixLUCIdE10row_matrixCscSOxaV92jfc_22tensor4all_quanticstci
FN:18,_RNvMNtCsh2ySt9yG5fK_8matrixci10matrixluciINtB2_10MatrixLUCIdE11from_matrixCscSOxaV92jfc_22tensor4all_quanticstci
FN:181,_RNvMNtCsh2ySt9yG5fK_8matrixci10matrixluciINtB2_10MatrixLUCIdE12pivot_errorsCscSOxaV92jfc_22tensor4all_quanticstci
FN:61,_RNvMNtCsh2ySt9yG5fK_8matrixci10matrixluciINtB2_10MatrixLUCIdE20cols_times_pivot_invCscSOxaV92jfc_22tensor4all_quanticstci
FN:112,_RNvMNtCsh2ySt9yG5fK_8matrixci10matrixluciINtB2_10MatrixLUCIdE20pivot_inv_times_rowsCscSOxaV92jfc_22tensor4all_quanticstci
FN:163,_RNvMNtCsh2ySt9yG5fK_8matrixci10matrixluciINtB2_10MatrixLUCIdE4leftCscSOxaV92jfc_22tensor4all_quanticstci
FN:172,_RNvMNtCsh2ySt9yG5fK_8matrixci10matrixluciINtB2_10MatrixLUCIdE5rightCscSOxaV92jfc_22tensor4all_quanticstci
FN:209,_RNvXs_NtCsh2ySt9yG5fK_8matrixci10matrixluciINtB4_10MatrixLUCIdEINtNtB6_6traits16AbstractMatrixCIdE11col_indicesCscSOxaV92jfc_22tensor4all_quanticstci
FN:204,_RNvXs_NtCsh2ySt9yG5fK_8matrixci10matrixluciINtB4_10MatrixLUCIdEINtNtB6_6traits16AbstractMatrixCIdE11row_indicesCscSOxaV92jfc_22tensor4all_quanticstci
FN:200,_RNvXs_NtCsh2ySt9yG5fK_8matrixci10matrixluciINtB4_10MatrixLUCIdEINtNtB6_6traits16AbstractMatrixCIdE4rankCscSOxaV92jfc_22tensor4all_quanticstci
FN:196,_RNvXs_NtCsh2ySt9yG5fK_8matrixci10matrixluciINtB4_10MatrixLUCIdEINtNtB6_6traits16AbstractMatrixCIdE5ncolsCscSOxaV92jfc_22tensor4all_quanticstci
FN:192,_RNvXs_NtCsh2ySt9yG5fK_8matrixci10matrixluciINtB4_10MatrixLUCIdEINtNtB6_6traits16AbstractMatrixCIdE5nrowsCscSOxaV92jfc_22tensor4all_quanticstci
FN:35,_RNvMNtCsh2ySt9yG5fK_8matrixci10matrixluciINtB2_10MatrixLUCIdE10col_matrixCs8Utr2TeDrCM_19tensor4all_simplett
FN:48,_RNvMNtCsh2ySt9yG5fK_8matrixci10matrixluciINtB2_10MatrixLUCIdE10row_matrixCs8Utr2TeDrCM_19tensor4all_simplett
FN:18,_RNvMNtCsh2ySt9yG5fK_8matrixci10matrixluciINtB2_10MatrixLUCIdE11from_matrixCs8Utr2TeDrCM_19tensor4all_simplett
FN:61,_RNvMNtCsh2ySt9yG5fK_8matrixci10matrixluciINtB2_10MatrixLUCIdE20cols_times_pivot_invCs8Utr2TeDrCM_19tensor4all_simplett
FN:112,_RNvMNtCsh2ySt9yG5fK_8matrixci10matrixluciINtB2_10MatrixLUCIdE20pivot_inv_times_rowsCs8Utr2TeDrCM_19tensor4all_simplett
FN:163,_RNvMNtCsh2ySt9yG5fK_8matrixci10matrixluciINtB2_10MatrixLUCIdE4leftCs8Utr2TeDrCM_19tensor4all_simplett
FN:172,_RNvMNtCsh2ySt9yG5fK_8matrixci10matrixluciINtB2_10MatrixLUCIdE5rightCs8Utr2TeDrCM_19tensor4all_simplett
FN:200,_RNvXs_NtCsh2ySt9yG5fK_8matrixci10matrixluciINtB4_10MatrixLUCIdEINtNtB6_6traits16AbstractMatrixCIdE4rankCs8Utr2TeDrCM_19tensor4all_simplett
FN:196,_RNvXs_NtCsh2ySt9yG5fK_8matrixci10matrixluciINtB4_10MatrixLUCIdEINtNtB6_6traits16AbstractMatrixCIdE5ncolsCs8Utr2TeDrCM_19tensor4all_simplett
FN:192,_RNvXs_NtCsh2ySt9yG5fK_8matrixci10matrixluciINtB4_10MatrixLUCIdEINtNtB6_6traits16AbstractMatrixCIdE5nrowsCs8Utr2TeDrCM_19tensor4all_simplett
FN:35,_RNvMNtCsh2ySt9yG5fK_8matrixci10matrixluciINtB2_10MatrixLUCIdE10col_matrixCsjOkKuSgKfGs_19tensor4all_tensorci
FN:48,_RNvMNtCsh2ySt9yG5fK_8matrixci10matrixluciINtB2_10MatrixLUCIdE10row_matrixCsjOkKuSgKfGs_19tensor4all_tensorci
FN:18,_RNvMNtCsh2ySt9yG5fK_8matrixci10matrixluciINtB2_10MatrixLUCIdE11from_matrixCsjOkKuSgKfGs_19tensor4all_tensorci
FN:181,_RNvMNtCsh2ySt9yG5fK_8matrixci10matrixluciINtB2_10MatrixLUCIdE12pivot_errorsCsjOkKuSgKfGs_19tensor4all_tensorci
FN:61,_RNvMNtCsh2ySt9yG5fK_8matrixci10matrixluciINtB2_10MatrixLUCIdE20cols_times_pivot_invCsjOkKuSgKfGs_19tensor4all_tensorci
FN:112,_RNvMNtCsh2ySt9yG5fK_8matrixci10matrixluciINtB2_10MatrixLUCIdE20pivot_inv_times_rowsCsjOkKuSgKfGs_19tensor4all_tensorci
FN:163,_RNvMNtCsh2ySt9yG5fK_8matrixci10matrixluciINtB2_10MatrixLUCIdE4leftCsjOkKuSgKfGs_19tensor4all_tensorci
FN:172,_RNvMNtCsh2ySt9yG5fK_8matrixci10matrixluciINtB2_10MatrixLUCIdE5rightCsjOkKuSgKfGs_19tensor4all_tensorci
FN:209,_RNvXs_NtCsh2ySt9yG5fK_8matrixci10matrixluciINtB4_10MatrixLUCIdEINtNtB6_6traits16AbstractMatrixCIdE11col_indicesCsjOkKuSgKfGs_19tensor4all_tensorci
FN:204,_RNvXs_NtCsh2ySt9yG5fK_8matrixci10matrixluciINtB4_10MatrixLUCIdEINtNtB6_6traits16AbstractMatrixCIdE11row_indicesCsjOkKuSgKfGs_19tensor4all_tensorci
FN:200,_RNvXs_NtCsh2ySt9yG5fK_8matrixci10matrixluciINtB4_10MatrixLUCIdEINtNtB6_6traits16AbstractMatrixCIdE4rankCsjOkKuSgKfGs_19tensor4all_tensorci
FN:196,_RNvXs_NtCsh2ySt9yG5fK_8matrixci10matrixluciINtB4_10MatrixLUCIdEINtNtB6_6traits16AbstractMatrixCIdE5ncolsCsjOkKuSgKfGs_19tensor4all_tensorci
FN:192,_RNvXs_NtCsh2ySt9yG5fK_8matrixci10matrixluciINtB4_10MatrixLUCIdEINtNtB6_6traits16AbstractMatrixCIdE5nrowsCsjOkKuSgKfGs_19tensor4all_tensorci
FNDA:0,_RNvMNtCsh2ySt9yG5fK_8matrixci10matrixluciINtB2_10MatrixLUCIINtCseyqKeAT1xJ3_11num_complex7ComplexdEE10col_matrixCs55lPmkOpiMP_15tensor4all_core
FNDA:0,_RNvMNtCsh2ySt9yG5fK_8matrixci10matrixluciINtB2_10MatrixLUCIINtCseyqKeAT1xJ3_11num_complex7ComplexdEE10row_matrixCs55lPmkOpiMP_15tensor4all_core
FNDA:0,_RNvMNtCsh2ySt9yG5fK_8matrixci10matrixluciINtB2_10MatrixLUCIINtCseyqKeAT1xJ3_11num_complex7ComplexdEE11from_matrixCs55lPmkOpiMP_15tensor4all_core
FNDA:0,_RNvMNtCsh2ySt9yG5fK_8matrixci10matrixluciINtB2_10MatrixLUCIINtCseyqKeAT1xJ3_11num_complex7ComplexdEE20cols_times_pivot_invCs55lPmkOpiMP_15tensor4all_core
FNDA:0,_RNvMNtCsh2ySt9yG5fK_8matrixci10matrixluciINtB2_10MatrixLUCIINtCseyqKeAT1xJ3_11num_complex7ComplexdEE20pivot_inv_times_rowsCs55lPmkOpiMP_15tensor4all_core
FNDA:0,_RNvMNtCsh2ySt9yG5fK_8matrixci10matrixluciINtB2_10MatrixLUCIINtCseyqKeAT1xJ3_11num_complex7ComplexdEE4leftCs55lPmkOpiMP_15tensor4all_core
FNDA:0,_RNvMNtCsh2ySt9yG5fK_8matrixci10matrixluciINtB2_10MatrixLUCIINtCseyqKeAT1xJ3_11num_complex7ComplexdEE5rightCs55lPmkOpiMP_15tensor4all_core
FNDA:2,_RNvMNtCsh2ySt9yG5fK_8matrixci10matrixluciINtB2_10MatrixLUCIdE10col_matrixCs55lPmkOpiMP_15tensor4all_core
FNDA:5,_RNvMNtCsh2ySt9yG5fK_8matrixci10matrixluciINtB2_10MatrixLUCIdE10row_matrixCs55lPmkOpiMP_15tensor4all_core
FNDA:7,_RNvMNtCsh2ySt9yG5fK_8matrixci10matrixluciINtB2_10MatrixLUCIdE11from_matrixCs55lPmkOpiMP_15tensor4all_core
FNDA:5,_RNvMNtCsh2ySt9yG5fK_8matrixci10matrixluciINtB2_10MatrixLUCIdE20cols_times_pivot_invCs55lPmkOpiMP_15tensor4all_core
FNDA:2,_RNvMNtCsh2ySt9yG5fK_8matrixci10matrixluciINtB2_10MatrixLUCIdE20pivot_inv_times_rowsCs55lPmkOpiMP_15tensor4all_core
FNDA:7,_RNvMNtCsh2ySt9yG5fK_8matrixci10matrixluciINtB2_10MatrixLUCIdE4leftCs55lPmkOpiMP_15tensor4all_core
FNDA:7,_RNvMNtCsh2ySt9yG5fK_8matrixci10matrixluciINtB2_10MatrixLUCIdE5rightCs55lPmkOpiMP_15tensor4all_core
FNDA:0,_RNvXs_NtCsh2ySt9yG5fK_8matrixci10matrixluciINtB4_10MatrixLUCIINtCseyqKeAT1xJ3_11num_complex7ComplexdEEINtNtB6_6traits16AbstractMatrixCIBX_E4rankCs55lPmkOpiMP_15tensor4all_core
FNDA:0,_RNvXs_NtCsh2ySt9yG5fK_8matrixci10matrixluciINtB4_10MatrixLUCIINtCseyqKeAT1xJ3_11num_complex7ComplexdEEINtNtB6_6traits16AbstractMatrixCIBX_E5ncolsCs55lPmkOpiMP_15tensor4all_core
FNDA:0,_RNvXs_NtCsh2ySt9yG5fK_8matrixci10matrixluciINtB4_10MatrixLUCIINtCseyqKeAT1xJ3_11num_complex7ComplexdEEINtNtB6_6traits16AbstractMatrixCIBX_E5nrowsCs55lPmkOpiMP_15tensor4all_core
FNDA:9,_RNvXs_NtCsh2ySt9yG5fK_8matrixci10matrixluciINtB4_10MatrixLUCIdEINtNtB6_6traits16AbstractMatrixCIdE4rankCs55lPmkOpiMP_15tensor4all_core
FNDA:2,_RNvXs_NtCsh2ySt9yG5fK_8matrixci10matrixluciINtB4_10MatrixLUCIdEINtNtB6_6traits16AbstractMatrixCIdE5ncolsCs55lPmkOpiMP_15tensor4all_core
FNDA:5,_RNvXs_NtCsh2ySt9yG5fK_8matrixci10matrixluciINtB4_10MatrixLUCIdEINtNtB6_6traits16AbstractMatrixCIdE5nrowsCs55lPmkOpiMP_15tensor4all_core
FNDA:1,_RNvNtNtCsjoPG8AIhCtl_8matrixci10matrixluci5testss_27test_matrixluci_from_matrix
FNDA:1,_RNvNtNtCsjoPG8AIhCtl_8matrixci10matrixluci5testss_27test_matrixluci_reconstruct
FNDA:1,_RNvNtNtCsjoPG8AIhCtl_8matrixci10matrixluci5testss_30test_matrixluci_rank_deficient
FNDA:0,_RNvMNtCsjoPG8AIhCtl_8matrixci10matrixluciINtB2_10MatrixLUCIdE10col_matrixB4_
FNDA:1,_RNvMNtCsjoPG8AIhCtl_8matrixci10matrixluciINtB2_10MatrixLUCIdE10row_matrixB4_
FNDA:3,_RNvMNtCsjoPG8AIhCtl_8matrixci10matrixluciINtB2_10MatrixLUCIdE11from_matrixB4_
FNDA:1,_RNvMNtCsjoPG8AIhCtl_8matrixci10matrixluciINtB2_10MatrixLUCIdE20cols_times_pivot_invB4_
FNDA:0,_RNvMNtCsjoPG8AIhCtl_8matrixci10matrixluciINtB2_10MatrixLUCIdE20pivot_inv_times_rowsB4_
FNDA:1,_RNvMNtCsjoPG8AIhCtl_8matrixci10matrixluciINtB2_10MatrixLUCIdE4leftB4_
FNDA:1,_RNvMNtCsjoPG8AIhCtl_8matrixci10matrixluciINtB2_10MatrixLUCIdE5rightB4_
FNDA:3,_RNvXs_NtCsjoPG8AIhCtl_8matrixci10matrixluciINtB4_10MatrixLUCIdEINtNtB6_6traits16AbstractMatrixCIdE4rankB6_
FNDA:2,_RNvXs_NtCsjoPG8AIhCtl_8matrixci10matrixluciINtB4_10MatrixLUCIdEINtNtB6_6traits16AbstractMatrixCIdE5ncolsB6_
FNDA:3,_RNvXs_NtCsjoPG8AIhCtl_8matrixci10matrixluciINtB4_10MatrixLUCIdEINtNtB6_6traits16AbstractMatrixCIdE5nrowsB6_
FNDA:1,_RNvXs_NtCsjoPG8AIhCtl_8matrixci10matrixluciINtB4_10MatrixLUCIdEINtNtB6_6traits16AbstractMatrixCIdE9submatrixB6_
FNDA:0,_RNvMNtCsjoPG8AIhCtl_8matrixci10matrixluciINtB2_10MatrixLUCIpE12pivot_errorsB4_
FNDA:0,_RNvMNtCsjoPG8AIhCtl_8matrixci10matrixluciINtB2_10MatrixLUCIpE16last_pivot_errorB4_
FNDA:0,_RNvMNtCsjoPG8AIhCtl_8matrixci10matrixluciINtB2_10MatrixLUCIpE2luB4_
FNDA:0,_RNvMNtCsjoPG8AIhCtl_8matrixci10matrixluciINtB2_10MatrixLUCIpE9from_rrluB4_
FNDA:0,_RNvXININtCsjoPG8AIhCtl_8matrixci10matrixlucis_0pEINtB5_10MatrixLUCIpEINtNtB7_6traits16AbstractMatrixCIpE11col_indicesB7_
FNDA:0,_RNvXININtCsjoPG8AIhCtl_8matrixci10matrixlucis_0pEINtB5_10MatrixLUCIpEINtNtB7_6traits16AbstractMatrixCIpE11row_indicesB7_
FNDA:0,_RNvXININtCsjoPG8AIhCtl_8matrixci10matrixlucis_0pEINtB5_10MatrixLUCIpEINtNtB7_6traits16AbstractMatrixCIpE8evaluateB7_
FNDA:1,_RNvMNtCsh2ySt9yG5fK_8matrixci10matrixluciINtB2_10MatrixLUCIdE12pivot_errorsCsdnTG4X9gKe5_15tensor4all_capi
FNDA:1,_RNvXs_NtCsh2ySt9yG5fK_8matrixci10matrixluciINtB4_10MatrixLUCIdEINtNtB6_6traits16AbstractMatrixCIdE11col_indicesCsdnTG4X9gKe5_15tensor4all_capi
FNDA:1,_RNvXs_NtCsh2ySt9yG5fK_8matrixci10matrixluciINtB4_10MatrixLUCIdEINtNtB6_6traits16AbstractMatrixCIdE11row_indicesCsdnTG4X9gKe5_15tensor4all_capi
FNDA:0,_RNvMNtCsh2ySt9yG5fK_8matrixci10matrixluciINtB2_10MatrixLUCIdE10col_matrixCscSOxaV92jfc_22tensor4all_quanticstci
FNDA:2,_RNvMNtCsh2ySt9yG5fK_8matrixci10matrixluciINtB2_10MatrixLUCIdE10row_matrixCscSOxaV92jfc_22tensor4all_quanticstci
FNDA:2,_RNvMNtCsh2ySt9yG5fK_8matrixci10matrixluciINtB2_10MatrixLUCIdE11from_matrixCscSOxaV92jfc_22tensor4all_quanticstci
FNDA:2,_RNvMNtCsh2ySt9yG5fK_8matrixci10matrixluciINtB2_10MatrixLUCIdE12pivot_errorsCscSOxaV92jfc_22tensor4all_quanticstci
FNDA:2,_RNvMNtCsh2ySt9yG5fK_8matrixci10matrixluciINtB2_10MatrixLUCIdE20cols_times_pivot_invCscSOxaV92jfc_22tensor4all_quanticstci
FNDA:0,_RNvMNtCsh2ySt9yG5fK_8matrixci10matrixluciINtB2_10MatrixLUCIdE20pivot_inv_times_rowsCscSOxaV92jfc_22tensor4all_quanticstci
FNDA:2,_RNvMNtCsh2ySt9yG5fK_8matrixci10matrixluciINtB2_10MatrixLUCIdE4leftCscSOxaV92jfc_22tensor4all_quanticstci
FNDA:2,_RNvMNtCsh2ySt9yG5fK_8matrixci10matrixluciINtB2_10MatrixLUCIdE5rightCscSOxaV92jfc_22tensor4all_quanticstci
FNDA:2,_RNvXs_NtCsh2ySt9yG5fK_8matrixci10matrixluciINtB4_10MatrixLUCIdEINtNtB6_6traits16AbstractMatrixCIdE11col_indicesCscSOxaV92jfc_22tensor4all_quanticstci
FNDA:2,_RNvXs_NtCsh2ySt9yG5fK_8matrixci10matrixluciINtB4_10MatrixLUCIdEINtNtB6_6traits16AbstractMatrixCIdE11row_indicesCscSOxaV92jfc_22tensor4all_quanticstci
FNDA:6,_RNvXs_NtCsh2ySt9yG5fK_8matrixci10matrixluciINtB4_10MatrixLUCIdEINtNtB6_6traits16AbstractMatrixCIdE4rankCscSOxaV92jfc_22tensor4all_quanticstci
FNDA:0,_RNvXs_NtCsh2ySt9yG5fK_8matrixci10matrixluciINtB4_10MatrixLUCIdEINtNtB6_6traits16AbstractMatrixCIdE5ncolsCscSOxaV92jfc_22tensor4all_quanticstci
FNDA:2,_RNvXs_NtCsh2ySt9yG5fK_8matrixci10matrixluciINtB4_10MatrixLUCIdEINtNtB6_6traits16AbstractMatrixCIdE5nrowsCscSOxaV92jfc_22tensor4all_quanticstci
FNDA:0,_RNvMNtCsh2ySt9yG5fK_8matrixci10matrixluciINtB2_10MatrixLUCIdE10col_matrixCs8Utr2TeDrCM_19tensor4all_simplett
FNDA:1,_RNvMNtCsh2ySt9yG5fK_8matrixci10matrixluciINtB2_10MatrixLUCIdE10row_matrixCs8Utr2TeDrCM_19tensor4all_simplett
FNDA:1,_RNvMNtCsh2ySt9yG5fK_8matrixci10matrixluciINtB2_10MatrixLUCIdE11from_matrixCs8Utr2TeDrCM_19tensor4all_simplett
FNDA:1,_RNvMNtCsh2ySt9yG5fK_8matrixci10matrixluciINtB2_10MatrixLUCIdE20cols_times_pivot_invCs8Utr2TeDrCM_19tensor4all_simplett
FNDA:0,_RNvMNtCsh2ySt9yG5fK_8matrixci10matrixluciINtB2_10MatrixLUCIdE20pivot_inv_times_rowsCs8Utr2TeDrCM_19tensor4all_simplett
FNDA:1,_RNvMNtCsh2ySt9yG5fK_8matrixci10matrixluciINtB2_10MatrixLUCIdE4leftCs8Utr2TeDrCM_19tensor4all_simplett
FNDA:1,_RNvMNtCsh2ySt9yG5fK_8matrixci10matrixluciINtB2_10MatrixLUCIdE5rightCs8Utr2TeDrCM_19tensor4all_simplett
FNDA:1,_RNvXs_NtCsh2ySt9yG5fK_8matrixci10matrixluciINtB4_10MatrixLUCIdEINtNtB6_6traits16AbstractMatrixCIdE4rankCs8Utr2TeDrCM_19tensor4all_simplett
FNDA:0,_RNvXs_NtCsh2ySt9yG5fK_8matrixci10matrixluciINtB4_10MatrixLUCIdEINtNtB6_6traits16AbstractMatrixCIdE5ncolsCs8Utr2TeDrCM_19tensor4all_simplett
FNDA:1,_RNvXs_NtCsh2ySt9yG5fK_8matrixci10matrixluciINtB4_10MatrixLUCIdEINtNtB6_6traits16AbstractMatrixCIdE5nrowsCs8Utr2TeDrCM_19tensor4all_simplett
FNDA:0,_RNvMNtCsh2ySt9yG5fK_8matrixci10matrixluciINtB2_10MatrixLUCIdE10col_matrixCsjOkKuSgKfGs_19tensor4all_tensorci
FNDA:12,_RNvMNtCsh2ySt9yG5fK_8matrixci10matrixluciINtB2_10MatrixLUCIdE10row_matrixCsjOkKuSgKfGs_19tensor4all_tensorci
FNDA:12,_RNvMNtCsh2ySt9yG5fK_8matrixci10matrixluciINtB2_10MatrixLUCIdE11from_matrixCsjOkKuSgKfGs_19tensor4all_tensorci
FNDA:12,_RNvMNtCsh2ySt9yG5fK_8matrixci10matrixluciINtB2_10MatrixLUCIdE12pivot_errorsCsjOkKuSgKfGs_19tensor4all_tensorci
FNDA:12,_RNvMNtCsh2ySt9yG5fK_8matrixci10matrixluciINtB2_10MatrixLUCIdE20cols_times_pivot_invCsjOkKuSgKfGs_19tensor4all_tensorci
FNDA:0,_RNvMNtCsh2ySt9yG5fK_8matrixci10matrixluciINtB2_10MatrixLUCIdE20pivot_inv_times_rowsCsjOkKuSgKfGs_19tensor4all_tensorci
FNDA:12,_RNvMNtCsh2ySt9yG5fK_8matrixci10matrixluciINtB2_10MatrixLUCIdE4leftCsjOkKuSgKfGs_19tensor4all_tensorci
FNDA:12,_RNvMNtCsh2ySt9yG5fK_8matrixci10matrixluciINtB2_10MatrixLUCIdE5rightCsjOkKuSgKfGs_19tensor4all_tensorci
FNDA:12,_RNvXs_NtCsh2ySt9yG5fK_8matrixci10matrixluciINtB4_10MatrixLUCIdEINtNtB6_6traits16AbstractMatrixCIdE11col_indicesCsjOkKuSgKfGs_19tensor4all_tensorci
FNDA:12,_RNvXs_NtCsh2ySt9yG5fK_8matrixci10matrixluciINtB4_10MatrixLUCIdEINtNtB6_6traits16AbstractMatrixCIdE11row_indicesCsjOkKuSgKfGs_19tensor4all_tensorci
FNDA:36,_RNvXs_NtCsh2ySt9yG5fK_8matrixci10matrixluciINtB4_10MatrixLUCIdEINtNtB6_6traits16AbstractMatrixCIdE4rankCsjOkKuSgKfGs_19tensor4all_tensorci
FNDA:0,_RNvXs_NtCsh2ySt9yG5fK_8matrixci10matrixluciINtB4_10MatrixLUCIdEINtNtB6_6traits16AbstractMatrixCIdE5ncolsCsjOkKuSgKfGs_19tensor4all_tensorci
FNDA:12,_RNvXs_NtCsh2ySt9yG5fK_8matrixci10matrixluciINtB4_10MatrixLUCIdEINtNtB6_6traits16AbstractMatrixCIdE5nrowsCsjOkKuSgKfGs_19tensor4all_tensorci
FNF:21
FNH:17
DA:18,25
DA:19,25
DA:20,25
DA:21,25
DA:22,25
DA:25,0
DA:26,0
DA:27,0
DA:30,0
DA:31,0
DA:32,0
DA:35,2
DA:36,2
DA:37,2
DA:38,2
DA:39,2
DA:40,2
DA:41,2
DA:42,2
DA:44,2
DA:45,2
DA:48,21
DA:49,21
DA:50,21
DA:51,21
DA:52,21
DA:53,21
DA:54,21
DA:56,21
DA:57,21
DA:58,21
DA:61,21
DA:62,21
DA:63,21
DA:65,21
DA:68,31
DA:69,31
DA:70,31
DA:72,21
DA:73,16
DA:74,16
DA:75,16
DA:76,16
DA:77,16
DA:79,16
DA:80,16
DA:81,16
DA:82,16
DA:87,21
DA:88,30
DA:89,30
DA:90,30
DA:91,9
DA:92,9
DA:93,30
DA:94,30
DA:97,5
DA:100,21
DA:101,21
DA:102,52
DA:103,81
DA:104,81
DA:105,81
DA:108,21
DA:109,21
DA:112,2
DA:113,2
DA:114,2
DA:116,2
DA:119,4
DA:120,4
DA:121,4
DA:123,2
DA:124,2
DA:125,2
DA:126,2
DA:127,2
DA:128,2
DA:130,2
DA:131,2
DA:132,2
DA:133,2
DA:138,2
DA:139,4
DA:140,4
DA:141,4
DA:142,2
DA:143,2
DA:144,4
DA:145,4
DA:148,0
DA:151,2
DA:152,2
DA:153,4
DA:154,12
DA:155,12
DA:156,12
DA:159,2
DA:160,2
DA:163,23
DA:164,23
DA:165,21
DA:167,2
DA:169,23
DA:172,23
DA:173,23
DA:174,21
DA:176,2
DA:178,23
DA:181,15
DA:182,15
DA:183,15
DA:186,0
DA:187,0
DA:188,0
DA:192,23
DA:193,23
DA:194,23
DA:196,4
DA:197,4
DA:198,4
DA:200,55
DA:201,55
DA:202,55
DA:204,15
DA:206,15
DA:207,15
DA:209,15
DA:211,15
DA:212,15
DA:214,0
DA:215,0
DA:216,0
DA:218,0
DA:219,0
DA:220,0
DA:221,0
DA:222,0
DA:223,0
DA:225,1
DA:226,1
DA:227,1
DA:229,1
DA:230,1
DA:231,1
DA:233,1
DA:234,1
DA:243,1
DA:244,1
DA:245,1
DA:246,1
DA:247,1
DA:250,1
DA:251,1
DA:252,1
DA:253,1
DA:254,1
DA:257,1
DA:258,1
DA:260,1
DA:261,1
DA:263,3
DA:264,6
DA:265,4
DA:266,4
DA:267,4
DA:268,0
DA:275,1
DA:278,1
DA:280,1
DA:281,1
DA:282,1
DA:283,1
DA:286,1
DA:287,1
DA:288,1
BRF:0
BRH:0
LF:176
LH:155
end_of_record
SF:/Users/ken/git_for_collab4/tensor4all-rs/crates/matrixci/src/traits.rs
FN:72,_RNCNvYINtNtCsjoPG8AIhCtl_8matrixci8matrixci8MatrixCIdEINtNtB9_6traits16AbstractMatrixCIdE14available_cols0B9_
FN:63,_RNCNvYINtNtCsjoPG8AIhCtl_8matrixci8matrixci8MatrixCIdEINtNtB9_6traits16AbstractMatrixCIdE14available_rows0B9_
FN:77,_RNvYINtNtCsjoPG8AIhCtl_8matrixci8matrixci8MatrixCIdEINtNtB7_6traits16AbstractMatrixCIdE11local_errorB7_
FN:68,_RNvYINtNtCsjoPG8AIhCtl_8matrixci8matrixci8MatrixCIdEINtNtB7_6traits16AbstractMatrixCIdE14available_colsB7_
FN:59,_RNvYINtNtCsjoPG8AIhCtl_8matrixci8matrixci8MatrixCIdEINtNtB7_6traits16AbstractMatrixCIdE14available_rowsB7_
FN:95,_RNvYINtNtCsjoPG8AIhCtl_8matrixci8matrixci8MatrixCIdEINtNtB7_6traits16AbstractMatrixCIdE14find_new_pivotB7_
FN:106,_RNvYINtNtCsjoPG8AIhCtl_8matrixci8matrixci8MatrixCIdEINtNtB7_6traits16AbstractMatrixCIdE17find_new_pivot_inB7_
FN:27,_RNvYINtNtCsjoPG8AIhCtl_8matrixci8matrixci8MatrixCIdEINtNtB7_6traits16AbstractMatrixCIdE8is_emptyB7_
FN:52,_RNvYINtNtCsjoPG8AIhCtl_8matrixci8matrixci8MatrixCIdEINtNtB7_6traits16AbstractMatrixCIdE9to_matrixB7_
FN:27,_RNvYINtNtCsjoPG8AIhCtl_8matrixci9matrixaca9MatrixACAdEINtNtB7_6traits16AbstractMatrixCIdE8is_emptyB7_
FN:52,_RNvYINtNtCsjoPG8AIhCtl_8matrixci10matrixluci10MatrixLUCIdEINtNtB7_6traits16AbstractMatrixCIdE9to_matrixB7_
FN:48,_RNCNvYpINtNtCsjoPG8AIhCtl_8matrixci6traits16AbstractMatrixCIpE3col0Ba_
FN:41,_RNCNvYpINtNtCsjoPG8AIhCtl_8matrixci6traits16AbstractMatrixCIpE3row0Ba_
FN:45,_RNvYpINtNtCsjoPG8AIhCtl_8matrixci6traits16AbstractMatrixCIpE3colB8_
FN:38,_RNvYpINtNtCsjoPG8AIhCtl_8matrixci6traits16AbstractMatrixCIpE3rowB8_
FN:77,_RNvYINtNtCsh2ySt9yG5fK_8matrixci9matrixaca9MatrixACAdEINtNtB7_6traits16AbstractMatrixCIdE11local_errorCsjOkKuSgKfGs_19tensor4all_tensorci
FN:68,_RNvYINtNtCsh2ySt9yG5fK_8matrixci9matrixaca9MatrixACAdEINtNtB7_6traits16AbstractMatrixCIdE14available_colsCsjOkKuSgKfGs_19tensor4all_tensorci
FN:59,_RNvYINtNtCsh2ySt9yG5fK_8matrixci9matrixaca9MatrixACAdEINtNtB7_6traits16AbstractMatrixCIdE14available_rowsCsjOkKuSgKfGs_19tensor4all_tensorci
FN:95,_RNvYINtNtCsh2ySt9yG5fK_8matrixci9matrixaca9MatrixACAdEINtNtB7_6traits16AbstractMatrixCIdE14find_new_pivotCsjOkKuSgKfGs_19tensor4all_tensorci
FN:106,_RNvYINtNtCsh2ySt9yG5fK_8matrixci9matrixaca9MatrixACAdEINtNtB7_6traits16AbstractMatrixCIdE17find_new_pivot_inCsjOkKuSgKfGs_19tensor4all_tensorci
FN:27,_RNvYINtNtCsh2ySt9yG5fK_8matrixci9matrixaca9MatrixACAdEINtNtB7_6traits16AbstractMatrixCIdE8is_emptyCsjOkKuSgKfGs_19tensor4all_tensorci
FN:72,_RNCNvYINtNtCsh2ySt9yG5fK_8matrixci9matrixaca9MatrixACAdEINtNtB9_6traits16AbstractMatrixCIdE14available_cols0CsjOkKuSgKfGs_19tensor4all_tensorci
FN:63,_RNCNvYINtNtCsh2ySt9yG5fK_8matrixci9matrixaca9MatrixACAdEINtNtB9_6traits16AbstractMatrixCIdE14available_rows0CsjOkKuSgKfGs_19tensor4all_tensorci
FNDA:3,_RNCNvYINtNtCsjoPG8AIhCtl_8matrixci8matrixci8MatrixCIdEINtNtB9_6traits16AbstractMatrixCIdE14available_cols0B9_
FNDA:3,_RNCNvYINtNtCsjoPG8AIhCtl_8matrixci8matrixci8MatrixCIdEINtNtB9_6traits16AbstractMatrixCIdE14available_rows0B9_
FNDA:1,_RNvYINtNtCsjoPG8AIhCtl_8matrixci8matrixci8MatrixCIdEINtNtB7_6traits16AbstractMatrixCIdE11local_errorB7_
FNDA:1,_RNvYINtNtCsjoPG8AIhCtl_8matrixci8matrixci8MatrixCIdEINtNtB7_6traits16AbstractMatrixCIdE14available_colsB7_
FNDA:1,_RNvYINtNtCsjoPG8AIhCtl_8matrixci8matrixci8MatrixCIdEINtNtB7_6traits16AbstractMatrixCIdE14available_rowsB7_
FNDA:1,_RNvYINtNtCsjoPG8AIhCtl_8matrixci8matrixci8MatrixCIdEINtNtB7_6traits16AbstractMatrixCIdE14find_new_pivotB7_
FNDA:1,_RNvYINtNtCsjoPG8AIhCtl_8matrixci8matrixci8MatrixCIdEINtNtB7_6traits16AbstractMatrixCIdE17find_new_pivot_inB7_
FNDA:5,_RNvYINtNtCsjoPG8AIhCtl_8matrixci8matrixci8MatrixCIdEINtNtB7_6traits16AbstractMatrixCIdE8is_emptyB7_
FNDA:1,_RNvYINtNtCsjoPG8AIhCtl_8matrixci8matrixci8MatrixCIdEINtNtB7_6traits16AbstractMatrixCIdE9to_matrixB7_
FNDA:2,_RNvYINtNtCsjoPG8AIhCtl_8matrixci9matrixaca9MatrixACAdEINtNtB7_6traits16AbstractMatrixCIdE8is_emptyB7_
FNDA:1,_RNvYINtNtCsjoPG8AIhCtl_8matrixci10matrixluci10MatrixLUCIdEINtNtB7_6traits16AbstractMatrixCIdE9to_matrixB7_
FNDA:0,_RNCNvYpINtNtCsjoPG8AIhCtl_8matrixci6traits16AbstractMatrixCIpE3col0Ba_
FNDA:0,_RNCNvYpINtNtCsjoPG8AIhCtl_8matrixci6traits16AbstractMatrixCIpE3row0Ba_
FNDA:0,_RNvYpINtNtCsjoPG8AIhCtl_8matrixci6traits16AbstractMatrixCIpE3colB8_
FNDA:0,_RNvYpINtNtCsjoPG8AIhCtl_8matrixci6traits16AbstractMatrixCIpE3rowB8_
FNDA:14,_RNvYINtNtCsh2ySt9yG5fK_8matrixci9matrixaca9MatrixACAdEINtNtB7_6traits16AbstractMatrixCIdE11local_errorCsjOkKuSgKfGs_19tensor4all_tensorci
FNDA:14,_RNvYINtNtCsh2ySt9yG5fK_8matrixci9matrixaca9MatrixACAdEINtNtB7_6traits16AbstractMatrixCIdE14available_colsCsjOkKuSgKfGs_19tensor4all_tensorci
FNDA:14,_RNvYINtNtCsh2ySt9yG5fK_8matrixci9matrixaca9MatrixACAdEINtNtB7_6traits16AbstractMatrixCIdE14available_rowsCsjOkKuSgKfGs_19tensor4all_tensorci
FNDA:14,_RNvYINtNtCsh2ySt9yG5fK_8matrixci9matrixaca9MatrixACAdEINtNtB7_6traits16AbstractMatrixCIdE14find_new_pivotCsjOkKuSgKfGs_19tensor4all_tensorci
FNDA:14,_RNvYINtNtCsh2ySt9yG5fK_8matrixci9matrixaca9MatrixACAdEINtNtB7_6traits16AbstractMatrixCIdE17find_new_pivot_inCsjOkKuSgKfGs_19tensor4all_tensorci
FNDA:14,_RNvYINtNtCsh2ySt9yG5fK_8matrixci9matrixaca9MatrixACAdEINtNtB7_6traits16AbstractMatrixCIdE8is_emptyCsjOkKuSgKfGs_19tensor4all_tensorci
FNDA:49,_RNCNvYINtNtCsh2ySt9yG5fK_8matrixci9matrixaca9MatrixACAdEINtNtB9_6traits16AbstractMatrixCIdE14available_cols0CsjOkKuSgKfGs_19tensor4all_tensorci
FNDA:51,_RNCNvYINtNtCsh2ySt9yG5fK_8matrixci9matrixaca9MatrixACAdEINtNtB9_6traits16AbstractMatrixCIdE14available_rows0CsjOkKuSgKfGs_19tensor4all_tensorci
FNF:13
FNH:9
DA:27,21
DA:28,21
DA:29,21
DA:38,0
DA:39,0
DA:40,0
DA:41,0
DA:42,0
DA:45,0
DA:46,0
DA:47,0
DA:48,0
DA:49,0
DA:52,2
DA:53,2
DA:54,2
DA:55,2
DA:56,2
DA:59,15
DA:60,15
DA:61,15
DA:62,15
DA:63,54
DA:64,15
DA:65,15
DA:68,15
DA:69,15
DA:70,15
DA:71,15
DA:72,52
DA:73,15
DA:74,15
DA:77,15
DA:78,15
DA:79,15
DA:81,15
DA:82,15
DA:84,15
DA:85,31
DA:86,69
DA:87,69
DA:88,69
DA:89,69
DA:91,15
DA:92,15
DA:95,15
DA:96,15
DA:97,15
DA:99,15
DA:100,15
DA:102,15
DA:103,15
DA:106,15
DA:107,15
DA:108,15
DA:109,15
DA:110,15
DA:111,15
DA:112,15
DA:113,15
DA:117,15
DA:118,0
DA:119,15
DA:121,15
DA:122,0
DA:123,0
DA:124,0
DA:125,15
DA:127,15
DA:128,0
DA:129,0
DA:130,0
DA:131,15
DA:133,15
DA:136,15
DA:137,15
DA:138,15
DA:140,31
DA:141,69
DA:142,69
DA:143,69
DA:144,10
DA:145,10
DA:146,10
DA:147,59
DA:151,15
DA:152,15
BRF:0
BRH:0
LF:91
LH:72
end_of_record
SF:/Users/ken/git_for_collab4/tensor4all-rs/crates/matrixci/src/util.rs
FN:374,_RINvNtCsh2ySt9yG5fK_8matrixci4util16submatrix_argmaxINtCseyqKeAT1xJ3_11num_complex7ComplexdEECs55lPmkOpiMP_15tensor4all_core
FN:374,_RINvNtCsh2ySt9yG5fK_8matrixci4util16submatrix_argmaxdECs55lPmkOpiMP_15tensor4all_core
FN:96,_RINvNtCsh2ySt9yG5fK_8matrixci4util5ncolsINtCseyqKeAT1xJ3_11num_complex7ComplexdEECs55lPmkOpiMP_15tensor4all_core
FN:96,_RINvNtCsh2ySt9yG5fK_8matrixci4util5ncolsdECs55lPmkOpiMP_15tensor4all_core
FN:91,_RINvNtCsh2ySt9yG5fK_8matrixci4util5nrowsINtCseyqKeAT1xJ3_11num_complex7ComplexdEECs55lPmkOpiMP_15tensor4all_core
FN:91,_RINvNtCsh2ySt9yG5fK_8matrixci4util5nrowsdECs55lPmkOpiMP_15tensor4all_core
FN:64,_RINvNtCsh2ySt9yG5fK_8matrixci4util5zerosINtCseyqKeAT1xJ3_11num_complex7ComplexdEECs55lPmkOpiMP_15tensor4all_core
FN:64,_RINvNtCsh2ySt9yG5fK_8matrixci4util5zerosdECs55lPmkOpiMP_15tensor4all_core
FN:431,_RINvNtCsh2ySt9yG5fK_8matrixci4util7mat_mulINtCseyqKeAT1xJ3_11num_complex7ComplexdEECs55lPmkOpiMP_15tensor4all_core
FN:431,_RINvNtCsh2ySt9yG5fK_8matrixci4util7mat_muldECs55lPmkOpiMP_15tensor4all_core
FN:111,_RINvNtCsh2ySt9yG5fK_8matrixci4util9submatrixINtCseyqKeAT1xJ3_11num_complex7ComplexdEECs55lPmkOpiMP_15tensor4all_core
FN:111,_RINvNtCsh2ySt9yG5fK_8matrixci4util9submatrixdECs55lPmkOpiMP_15tensor4all_core
FN:170,_RINvNtCsh2ySt9yG5fK_8matrixci4util9swap_colsINtCseyqKeAT1xJ3_11num_complex7ComplexdEECs55lPmkOpiMP_15tensor4all_core
FN:170,_RINvNtCsh2ySt9yG5fK_8matrixci4util9swap_colsdECs55lPmkOpiMP_15tensor4all_core
FN:156,_RINvNtCsh2ySt9yG5fK_8matrixci4util9swap_rowsINtCseyqKeAT1xJ3_11num_complex7ComplexdEECs55lPmkOpiMP_15tensor4all_core
FN:156,_RINvNtCsh2ySt9yG5fK_8matrixci4util9swap_rowsdECs55lPmkOpiMP_15tensor4all_core
FN:40,_RNvMs_NtCsh2ySt9yG5fK_8matrixci4utilINtB4_6MatrixINtCseyqKeAT1xJ3_11num_complex7ComplexdEE5zerosCs55lPmkOpiMP_15tensor4all_core
FN:40,_RNvMs_NtCsh2ySt9yG5fK_8matrixci4utilINtB4_6MatrixdE5zerosCs55lPmkOpiMP_15tensor4all_core
FN:52,_RNvXs0_NtCsh2ySt9yG5fK_8matrixci4utilINtB5_6MatrixINtCseyqKeAT1xJ3_11num_complex7ComplexdEEINtNtNtCskzPJi2J8k3N_4core3ops5index5IndexAjj2_E5indexCs55lPmkOpiMP_15tensor4all_core
FN:52,_RNvXs0_NtCsh2ySt9yG5fK_8matrixci4utilINtB5_6MatrixdEINtNtNtCskzPJi2J8k3N_4core3ops5index5IndexAjj2_E5indexCs55lPmkOpiMP_15tensor4all_core
FN:58,_RNvXs1_NtCsh2ySt9yG5fK_8matrixci4utilINtB5_6MatrixINtCseyqKeAT1xJ3_11num_complex7ComplexdEEINtNtNtCskzPJi2J8k3N_4core3ops5index8IndexMutAjj2_E9index_mutCs55lPmkOpiMP_15tensor4all_core
FN:58,_RNvXs1_NtCsh2ySt9yG5fK_8matrixci4utilINtB5_6MatrixdEINtNtNtCskzPJi2J8k3N_4core3ops5index8IndexMutAjj2_E9index_mutCs55lPmkOpiMP_15tensor4all_core
FN:414,_RNvNtCsh2ySt9yG5fK_8matrixci4util8set_diff
FN:225,_RNvXs2_NtCsh2ySt9yG5fK_8matrixci4utildNtB5_6Scalar3abs
FN:229,_RNvXs2_NtCsh2ySt9yG5fK_8matrixci4utildNtB5_6Scalar6abs_sq
FN:233,_RNvXs2_NtCsh2ySt9yG5fK_8matrixci4utildNtB5_6Scalar6is_nan
FN:239,_RNvXs3_NtCsh2ySt9yG5fK_8matrixci4utilfNtB5_6Scalar3abs
FN:243,_RNvXs3_NtCsh2ySt9yG5fK_8matrixci4utilfNtB5_6Scalar6abs_sq
FN:247,_RNvXs3_NtCsh2ySt9yG5fK_8matrixci4utilfNtB5_6Scalar6is_nan
FN:253,_RNvXs4_NtCsh2ySt9yG5fK_8matrixci4utilINtCseyqKeAT1xJ3_11num_complex7ComplexdENtB5_6Scalar3abs
FN:257,_RNvXs4_NtCsh2ySt9yG5fK_8matrixci4utilINtCseyqKeAT1xJ3_11num_complex7ComplexdENtB5_6Scalar6abs_sq
FN:261,_RNvXs4_NtCsh2ySt9yG5fK_8matrixci4utilINtCseyqKeAT1xJ3_11num_complex7ComplexdENtB5_6Scalar6is_nan
FN:267,_RNvXs5_NtCsh2ySt9yG5fK_8matrixci4utilINtCseyqKeAT1xJ3_11num_complex7ComplexfENtB5_6Scalar3abs
FN:271,_RNvXs5_NtCsh2ySt9yG5fK_8matrixci4utilINtCseyqKeAT1xJ3_11num_complex7ComplexfENtB5_6Scalar6abs_sq
FN:275,_RNvXs5_NtCsh2ySt9yG5fK_8matrixci4utilINtCseyqKeAT1xJ3_11num_complex7ComplexfENtB5_6Scalar6is_nan
FN:418,_RNCNvNtCsh2ySt9yG5fK_8matrixci4util8set_diff0B5_
FN:122,_RINvNtCsjoPG8AIhCtl_8matrixci4util10append_coldEB4_
FN:138,_RINvNtCsjoPG8AIhCtl_8matrixci4util10append_rowdEB4_
FN:78,_RINvNtCsjoPG8AIhCtl_8matrixci4util10from_vec2ddEB4_
FN:281,_RINvNtCsjoPG8AIhCtl_8matrixci4util13a_times_b_invdEB4_
FN:374,_RINvNtCsjoPG8AIhCtl_8matrixci4util16submatrix_argmaxdEB4_
FN:303,_RINvNtCsjoPG8AIhCtl_8matrixci4util19solve_linear_systemdEB4_
FN:69,_RINvNtCsjoPG8AIhCtl_8matrixci4util3eyedEB4_
FN:96,_RINvNtCsjoPG8AIhCtl_8matrixci4util5ncolsdEB4_
FN:91,_RINvNtCsjoPG8AIhCtl_8matrixci4util5nrowsdEB4_
FN:64,_RINvNtCsjoPG8AIhCtl_8matrixci4util5zerosdEB4_
FN:106,_RINvNtCsjoPG8AIhCtl_8matrixci4util7get_coldEB4_
FN:101,_RINvNtCsjoPG8AIhCtl_8matrixci4util7get_rowdEB4_
FN:431,_RINvNtCsjoPG8AIhCtl_8matrixci4util7mat_muldEB4_
FN:111,_RINvNtCsjoPG8AIhCtl_8matrixci4util9submatrixdEB4_
FN:170,_RINvNtCsjoPG8AIhCtl_8matrixci4util9swap_colsdEB4_
FN:156,_RINvNtCsjoPG8AIhCtl_8matrixci4util9swap_rowsdEB4_
FN:184,_RINvNtCsjoPG8AIhCtl_8matrixci4util9transposedEB4_
FN:311,_RNCINvNtCsjoPG8AIhCtl_8matrixci4util19solve_linear_systemdE0B6_
FN:107,_RNCINvNtCsjoPG8AIhCtl_8matrixci4util7get_coldE0B6_
FN:102,_RNCINvNtCsjoPG8AIhCtl_8matrixci4util7get_rowdE0B6_
FN:418,_RNCNvNtCsjoPG8AIhCtl_8matrixci4util8set_diff0B5_
FN:40,_RNvMs_NtCsjoPG8AIhCtl_8matrixci4utilINtB4_6MatrixdE5zerosB6_
FN:52,_RNvXs0_NtCsjoPG8AIhCtl_8matrixci4utilINtB5_6MatrixdEINtNtNtCskzPJi2J8k3N_4core3ops5index5IndexAjj2_E5indexB7_
FN:58,_RNvXs1_NtCsjoPG8AIhCtl_8matrixci4utilINtB5_6MatrixdEINtNtNtCskzPJi2J8k3N_4core3ops5index8IndexMutAjj2_E9index_mutB7_
FN:219,_RNvYdNtNtCsjoPG8AIhCtl_8matrixci4util6Scalar7epsilonB7_
FN:501,_RNvNtNtCsjoPG8AIhCtl_8matrixci4util5testss_12test_mat_mul
FN:493,_RNvNtNtCsjoPG8AIhCtl_8matrixci4util5testss_13test_set_diff
FN:455,_RNvNtNtCsjoPG8AIhCtl_8matrixci4util5testss_17test_matrix_basic
FN:467,_RNvNtNtCsjoPG8AIhCtl_8matrixci4util5testss_21test_matrix_transpose
FN:479,_RNvNtNtCsjoPG8AIhCtl_8matrixci4util5testss_21test_submatrix_argmax
FN:414,_RNvNtCsjoPG8AIhCtl_8matrixci4util8set_diff
FN:225,_RNvXs2_NtCsjoPG8AIhCtl_8matrixci4utildNtB5_6Scalar3abs
FN:229,_RNvXs2_NtCsjoPG8AIhCtl_8matrixci4utildNtB5_6Scalar6abs_sq
FN:233,_RNvXs2_NtCsjoPG8AIhCtl_8matrixci4utildNtB5_6Scalar6is_nan
FN:294,_RINvNtCsjoPG8AIhCtl_8matrixci4util13a_inv_times_bpEB4_
FN:401,_RINvNtCsjoPG8AIhCtl_8matrixci4util13random_subsetppEB4_
FN:423,_RINvNtCsjoPG8AIhCtl_8matrixci4util3dotpEB4_
FN:410,_RNCINvNtCsjoPG8AIhCtl_8matrixci4util13random_subsetppE0B6_
FN:427,_RNCINvNtCsjoPG8AIhCtl_8matrixci4util3dotpE0B6_
FN:33,_RNvMNtCsjoPG8AIhCtl_8matrixci4utilINtB2_6MatrixpE5ncolsB4_
FN:28,_RNvMNtCsjoPG8AIhCtl_8matrixci4utilINtB2_6MatrixpE5nrowsB4_
FN:19,_RNvMNtCsjoPG8AIhCtl_8matrixci4utilINtB2_6MatrixpE9from_elemB4_
FN:239,_RNvXs3_NtCsjoPG8AIhCtl_8matrixci4utilfNtB5_6Scalar3abs
FN:243,_RNvXs3_NtCsjoPG8AIhCtl_8matrixci4utilfNtB5_6Scalar6abs_sq
FN:247,_RNvXs3_NtCsjoPG8AIhCtl_8matrixci4utilfNtB5_6Scalar6is_nan
FN:253,_RNvXs4_NtCsjoPG8AIhCtl_8matrixci4utilINtCseyqKeAT1xJ3_11num_complex7ComplexdENtB5_6Scalar3abs
FN:257,_RNvXs4_NtCsjoPG8AIhCtl_8matrixci4utilINtCseyqKeAT1xJ3_11num_complex7ComplexdENtB5_6Scalar6abs_sq
FN:261,_RNvXs4_NtCsjoPG8AIhCtl_8matrixci4utilINtCseyqKeAT1xJ3_11num_complex7ComplexdENtB5_6Scalar6is_nan
FN:267,_RNvXs5_NtCsjoPG8AIhCtl_8matrixci4utilINtCseyqKeAT1xJ3_11num_complex7ComplexfENtB5_6Scalar3abs
FN:271,_RNvXs5_NtCsjoPG8AIhCtl_8matrixci4utilINtCseyqKeAT1xJ3_11num_complex7ComplexfENtB5_6Scalar6abs_sq
FN:275,_RNvXs5_NtCsjoPG8AIhCtl_8matrixci4utilINtCseyqKeAT1xJ3_11num_complex7ComplexfENtB5_6Scalar6is_nan
FN:33,_RNvMNtCsh2ySt9yG5fK_8matrixci4utilINtB2_6MatrixdE5ncolsCsdnTG4X9gKe5_15tensor4all_capi
FN:28,_RNvMNtCsh2ySt9yG5fK_8matrixci4utilINtB2_6MatrixdE5nrowsCsdnTG4X9gKe5_15tensor4all_capi
FN:374,_RINvNtCsh2ySt9yG5fK_8matrixci4util16submatrix_argmaxdECscSOxaV92jfc_22tensor4all_quanticstci
FN:96,_RINvNtCsh2ySt9yG5fK_8matrixci4util5ncolsdECscSOxaV92jfc_22tensor4all_quanticstci
FN:91,_RINvNtCsh2ySt9yG5fK_8matrixci4util5nrowsdECscSOxaV92jfc_22tensor4all_quanticstci
FN:64,_RINvNtCsh2ySt9yG5fK_8matrixci4util5zerosdECscSOxaV92jfc_22tensor4all_quanticstci
FN:431,_RINvNtCsh2ySt9yG5fK_8matrixci4util7mat_muldECscSOxaV92jfc_22tensor4all_quanticstci
FN:111,_RINvNtCsh2ySt9yG5fK_8matrixci4util9submatrixdECscSOxaV92jfc_22tensor4all_quanticstci
FN:170,_RINvNtCsh2ySt9yG5fK_8matrixci4util9swap_colsdECscSOxaV92jfc_22tensor4all_quanticstci
FN:156,_RINvNtCsh2ySt9yG5fK_8matrixci4util9swap_rowsdECscSOxaV92jfc_22tensor4all_quanticstci
FN:33,_RNvMNtCsh2ySt9yG5fK_8matrixci4utilINtB2_6MatrixdE5ncolsCscSOxaV92jfc_22tensor4all_quanticstci
FN:28,_RNvMNtCsh2ySt9yG5fK_8matrixci4utilINtB2_6MatrixdE5nrowsCscSOxaV92jfc_22tensor4all_quanticstci
FN:40,_RNvMs_NtCsh2ySt9yG5fK_8matrixci4utilINtB4_6MatrixdE5zerosCscSOxaV92jfc_22tensor4all_quanticstci
FN:52,_RNvXs0_NtCsh2ySt9yG5fK_8matrixci4utilINtB5_6MatrixdEINtNtNtCskzPJi2J8k3N_4core3ops5index5IndexAjj2_E5indexCscSOxaV92jfc_22tensor4all_quanticstci
FN:58,_RNvXs1_NtCsh2ySt9yG5fK_8matrixci4utilINtB5_6MatrixdEINtNtNtCskzPJi2J8k3N_4core3ops5index8IndexMutAjj2_E9index_mutCscSOxaV92jfc_22tensor4all_quanticstci
FN:374,_RINvNtCsh2ySt9yG5fK_8matrixci4util16submatrix_argmaxdECs8Utr2TeDrCM_19tensor4all_simplett
FN:96,_RINvNtCsh2ySt9yG5fK_8matrixci4util5ncolsdECs8Utr2TeDrCM_19tensor4all_simplett
FN:91,_RINvNtCsh2ySt9yG5fK_8matrixci4util5nrowsdECs8Utr2TeDrCM_19tensor4all_simplett
FN:64,_RINvNtCsh2ySt9yG5fK_8matrixci4util5zerosdECs8Utr2TeDrCM_19tensor4all_simplett
FN:431,_RINvNtCsh2ySt9yG5fK_8matrixci4util7mat_muldECs8Utr2TeDrCM_19tensor4all_simplett
FN:111,_RINvNtCsh2ySt9yG5fK_8matrixci4util9submatrixdECs8Utr2TeDrCM_19tensor4all_simplett
FN:170,_RINvNtCsh2ySt9yG5fK_8matrixci4util9swap_colsdECs8Utr2TeDrCM_19tensor4all_simplett
FN:156,_RINvNtCsh2ySt9yG5fK_8matrixci4util9swap_rowsdECs8Utr2TeDrCM_19tensor4all_simplett
FN:184,_RINvNtCsh2ySt9yG5fK_8matrixci4util9transposedECs8Utr2TeDrCM_19tensor4all_simplett
FN:40,_RNvMs_NtCsh2ySt9yG5fK_8matrixci4utilINtB4_6MatrixdE5zerosCs8Utr2TeDrCM_19tensor4all_simplett
FN:52,_RNvXs0_NtCsh2ySt9yG5fK_8matrixci4utilINtB5_6MatrixdEINtNtNtCskzPJi2J8k3N_4core3ops5index5IndexAjj2_E5indexCs8Utr2TeDrCM_19tensor4all_simplett
FN:58,_RNvXs1_NtCsh2ySt9yG5fK_8matrixci4utilINtB5_6MatrixdEINtNtNtCskzPJi2J8k3N_4core3ops5index8IndexMutAjj2_E9index_mutCs8Utr2TeDrCM_19tensor4all_simplett
FN:122,_RINvNtCsh2ySt9yG5fK_8matrixci4util10append_coldECsjOkKuSgKfGs_19tensor4all_tensorci
FN:138,_RINvNtCsh2ySt9yG5fK_8matrixci4util10append_rowdECsjOkKuSgKfGs_19tensor4all_tensorci
FN:78,_RINvNtCsh2ySt9yG5fK_8matrixci4util10from_vec2ddECsjOkKuSgKfGs_19tensor4all_tensorci
FN:281,_RINvNtCsh2ySt9yG5fK_8matrixci4util13a_times_b_invdECsjOkKuSgKfGs_19tensor4all_tensorci
FN:374,_RINvNtCsh2ySt9yG5fK_8matrixci4util16submatrix_argmaxdECsjOkKuSgKfGs_19tensor4all_tensorci
FN:303,_RINvNtCsh2ySt9yG5fK_8matrixci4util19solve_linear_systemdECsjOkKuSgKfGs_19tensor4all_tensorci
FN:96,_RINvNtCsh2ySt9yG5fK_8matrixci4util5ncolsdECsjOkKuSgKfGs_19tensor4all_tensorci
FN:91,_RINvNtCsh2ySt9yG5fK_8matrixci4util5nrowsdECsjOkKuSgKfGs_19tensor4all_tensorci
FN:64,_RINvNtCsh2ySt9yG5fK_8matrixci4util5zerosdECsjOkKuSgKfGs_19tensor4all_tensorci
FN:106,_RINvNtCsh2ySt9yG5fK_8matrixci4util7get_coldECsjOkKuSgKfGs_19tensor4all_tensorci
FN:101,_RINvNtCsh2ySt9yG5fK_8matrixci4util7get_rowdECsjOkKuSgKfGs_19tensor4all_tensorci
FN:431,_RINvNtCsh2ySt9yG5fK_8matrixci4util7mat_muldECsjOkKuSgKfGs_19tensor4all_tensorci
FN:111,_RINvNtCsh2ySt9yG5fK_8matrixci4util9submatrixdECsjOkKuSgKfGs_19tensor4all_tensorci
FN:170,_RINvNtCsh2ySt9yG5fK_8matrixci4util9swap_colsdECsjOkKuSgKfGs_19tensor4all_tensorci
FN:156,_RINvNtCsh2ySt9yG5fK_8matrixci4util9swap_rowsdECsjOkKuSgKfGs_19tensor4all_tensorci
FN:184,_RINvNtCsh2ySt9yG5fK_8matrixci4util9transposedECsjOkKuSgKfGs_19tensor4all_tensorci
FN:311,_RNCINvNtCsh2ySt9yG5fK_8matrixci4util19solve_linear_systemdE0CsjOkKuSgKfGs_19tensor4all_tensorci
FN:107,_RNCINvNtCsh2ySt9yG5fK_8matrixci4util7get_coldE0CsjOkKuSgKfGs_19tensor4all_tensorci
FN:102,_RNCINvNtCsh2ySt9yG5fK_8matrixci4util7get_rowdE0CsjOkKuSgKfGs_19tensor4all_tensorci
FN:33,_RNvMNtCsh2ySt9yG5fK_8matrixci4utilINtB2_6MatrixdE5ncolsCsjOkKuSgKfGs_19tensor4all_tensorci
FN:28,_RNvMNtCsh2ySt9yG5fK_8matrixci4utilINtB2_6MatrixdE5nrowsCsjOkKuSgKfGs_19tensor4all_tensorci
FN:40,_RNvMs_NtCsh2ySt9yG5fK_8matrixci4utilINtB4_6MatrixdE5zerosCsjOkKuSgKfGs_19tensor4all_tensorci
FN:52,_RNvXs0_NtCsh2ySt9yG5fK_8matrixci4utilINtB5_6MatrixdEINtNtNtCskzPJi2J8k3N_4core3ops5index5IndexAjj2_E5indexCsjOkKuSgKfGs_19tensor4all_tensorci
FN:58,_RNvXs1_NtCsh2ySt9yG5fK_8matrixci4utilINtB5_6MatrixdEINtNtNtCskzPJi2J8k3N_4core3ops5index8IndexMutAjj2_E9index_mutCsjOkKuSgKfGs_19tensor4all_tensorci
FN:219,_RNvYdNtNtCsh2ySt9yG5fK_8matrixci4util6Scalar7epsilonCsjOkKuSgKfGs_19tensor4all_tensorci
FNDA:169,_RINvNtCsh2ySt9yG5fK_8matrixci4util16submatrix_argmaxINtCseyqKeAT1xJ3_11num_complex7ComplexdEECs55lPmkOpiMP_15tensor4all_core
FNDA:27,_RINvNtCsh2ySt9yG5fK_8matrixci4util16submatrix_argmaxdECs55lPmkOpiMP_15tensor4all_core
FNDA:1746,_RINvNtCsh2ySt9yG5fK_8matrixci4util5ncolsINtCseyqKeAT1xJ3_11num_complex7ComplexdEECs55lPmkOpiMP_15tensor4all_core
FNDA:152,_RINvNtCsh2ySt9yG5fK_8matrixci4util5ncolsdECs55lPmkOpiMP_15tensor4all_core
FNDA:1224,_RINvNtCsh2ySt9yG5fK_8matrixci4util5nrowsINtCseyqKeAT1xJ3_11num_complex7ComplexdEECs55lPmkOpiMP_15tensor4all_core
FNDA:121,_RINvNtCsh2ySt9yG5fK_8matrixci4util5nrowsdECs55lPmkOpiMP_15tensor4all_core
FNDA:396,_RINvNtCsh2ySt9yG5fK_8matrixci4util5zerosINtCseyqKeAT1xJ3_11num_complex7ComplexdEECs55lPmkOpiMP_15tensor4all_core
FNDA:125,_RINvNtCsh2ySt9yG5fK_8matrixci4util5zerosdECs55lPmkOpiMP_15tensor4all_core
FNDA:44,_RINvNtCsh2ySt9yG5fK_8matrixci4util7mat_mulINtCseyqKeAT1xJ3_11num_complex7ComplexdEECs55lPmkOpiMP_15tensor4all_core
FNDA:7,_RINvNtCsh2ySt9yG5fK_8matrixci4util7mat_muldECs55lPmkOpiMP_15tensor4all_core
FNDA:0,_RINvNtCsh2ySt9yG5fK_8matrixci4util9submatrixINtCseyqKeAT1xJ3_11num_complex7ComplexdEECs55lPmkOpiMP_15tensor4all_core
FNDA:13,_RINvNtCsh2ySt9yG5fK_8matrixci4util9submatrixdECs55lPmkOpiMP_15tensor4all_core
FNDA:117,_RINvNtCsh2ySt9yG5fK_8matrixci4util9swap_colsINtCseyqKeAT1xJ3_11num_complex7ComplexdEECs55lPmkOpiMP_15tensor4all_core
FNDA:25,_RINvNtCsh2ySt9yG5fK_8matrixci4util9swap_colsdECs55lPmkOpiMP_15tensor4all_core
FNDA:99,_RINvNtCsh2ySt9yG5fK_8matrixci4util9swap_rowsINtCseyqKeAT1xJ3_11num_complex7ComplexdEECs55lPmkOpiMP_15tensor4all_core
FNDA:13,_RINvNtCsh2ySt9yG5fK_8matrixci4util9swap_rowsdECs55lPmkOpiMP_15tensor4all_core
FNDA:396,_RNvMs_NtCsh2ySt9yG5fK_8matrixci4utilINtB4_6MatrixINtCseyqKeAT1xJ3_11num_complex7ComplexdEE5zerosCs55lPmkOpiMP_15tensor4all_core
FNDA:125,_RNvMs_NtCsh2ySt9yG5fK_8matrixci4utilINtB4_6MatrixdE5zerosCs55lPmkOpiMP_15tensor4all_core
FNDA:284751,_RNvXs0_NtCsh2ySt9yG5fK_8matrixci4utilINtB5_6MatrixINtCseyqKeAT1xJ3_11num_complex7ComplexdEEINtNtNtCskzPJi2J8k3N_4core3ops5index5IndexAjj2_E5indexCs55lPmkOpiMP_15tensor4all_core
FNDA:1194,_RNvXs0_NtCsh2ySt9yG5fK_8matrixci4utilINtB5_6MatrixdEINtNtNtCskzPJi2J8k3N_4core3ops5index5IndexAjj2_E5indexCs55lPmkOpiMP_15tensor4all_core
FNDA:74698,_RNvXs1_NtCsh2ySt9yG5fK_8matrixci4utilINtB5_6MatrixINtCseyqKeAT1xJ3_11num_complex7ComplexdEEINtNtNtCskzPJi2J8k3N_4core3ops5index8IndexMutAjj2_E9index_mutCs55lPmkOpiMP_15tensor4all_core
FNDA:684,_RNvXs1_NtCsh2ySt9yG5fK_8matrixci4utilINtB5_6MatrixdEINtNtNtCskzPJi2J8k3N_4core3ops5index8IndexMutAjj2_E9index_mutCs55lPmkOpiMP_15tensor4all_core
FNDA:0,_RNvNtCsh2ySt9yG5fK_8matrixci4util8set_diff
FNDA:65,_RNvXs2_NtCsh2ySt9yG5fK_8matrixci4utildNtB5_6Scalar3abs
FNDA:1303,_RNvXs2_NtCsh2ySt9yG5fK_8matrixci4utildNtB5_6Scalar6abs_sq
FNDA:486,_RNvXs2_NtCsh2ySt9yG5fK_8matrixci4utildNtB5_6Scalar6is_nan
FNDA:0,_RNvXs3_NtCsh2ySt9yG5fK_8matrixci4utilfNtB5_6Scalar3abs
FNDA:0,_RNvXs3_NtCsh2ySt9yG5fK_8matrixci4utilfNtB5_6Scalar6abs_sq
FNDA:0,_RNvXs3_NtCsh2ySt9yG5fK_8matrixci4utilfNtB5_6Scalar6is_nan
FNDA:0,_RNvXs4_NtCsh2ySt9yG5fK_8matrixci4utilINtCseyqKeAT1xJ3_11num_complex7ComplexdENtB5_6Scalar3abs
FNDA:19683,_RNvXs4_NtCsh2ySt9yG5fK_8matrixci4utilINtCseyqKeAT1xJ3_11num_complex7ComplexdENtB5_6Scalar6abs_sq
FNDA:3720,_RNvXs4_NtCsh2ySt9yG5fK_8matrixci4utilINtCseyqKeAT1xJ3_11num_complex7ComplexdENtB5_6Scalar6is_nan
FNDA:0,_RNvXs5_NtCsh2ySt9yG5fK_8matrixci4utilINtCseyqKeAT1xJ3_11num_complex7ComplexfENtB5_6Scalar3abs
FNDA:0,_RNvXs5_NtCsh2ySt9yG5fK_8matrixci4utilINtCseyqKeAT1xJ3_11num_complex7ComplexfENtB5_6Scalar6abs_sq
FNDA:0,_RNvXs5_NtCsh2ySt9yG5fK_8matrixci4utilINtCseyqKeAT1xJ3_11num_complex7ComplexfENtB5_6Scalar6is_nan
FNDA:0,_RNCNvNtCsh2ySt9yG5fK_8matrixci4util8set_diff0B5_
FNDA:2,_RINvNtCsjoPG8AIhCtl_8matrixci4util10append_coldEB4_
FNDA:2,_RINvNtCsjoPG8AIhCtl_8matrixci4util10append_rowdEB4_
FNDA:27,_RINvNtCsjoPG8AIhCtl_8matrixci4util10from_vec2ddEB4_
FNDA:2,_RINvNtCsjoPG8AIhCtl_8matrixci4util13a_times_b_invdEB4_
FNDA:19,_RINvNtCsjoPG8AIhCtl_8matrixci4util16submatrix_argmaxdEB4_
FNDA:2,_RINvNtCsjoPG8AIhCtl_8matrixci4util19solve_linear_systemdEB4_
FNDA:1,_RINvNtCsjoPG8AIhCtl_8matrixci4util3eyedEB4_
FNDA:90,_RINvNtCsjoPG8AIhCtl_8matrixci4util5ncolsdEB4_
FNDA:70,_RINvNtCsjoPG8AIhCtl_8matrixci4util5nrowsdEB4_
FNDA:94,_RINvNtCsjoPG8AIhCtl_8matrixci4util5zerosdEB4_
FNDA:7,_RINvNtCsjoPG8AIhCtl_8matrixci4util7get_coldEB4_
FNDA:7,_RINvNtCsjoPG8AIhCtl_8matrixci4util7get_rowdEB4_
FNDA:6,_RINvNtCsjoPG8AIhCtl_8matrixci4util7mat_muldEB4_
FNDA:10,_RINvNtCsjoPG8AIhCtl_8matrixci4util9submatrixdEB4_
FNDA:8,_RINvNtCsjoPG8AIhCtl_8matrixci4util9swap_colsdEB4_
FNDA:8,_RINvNtCsjoPG8AIhCtl_8matrixci4util9swap_rowsdEB4_
FNDA:7,_RINvNtCsjoPG8AIhCtl_8matrixci4util9transposedEB4_
FNDA:2,_RNCINvNtCsjoPG8AIhCtl_8matrixci4util19solve_linear_systemdE0B6_
FNDA:21,_RNCINvNtCsjoPG8AIhCtl_8matrixci4util7get_coldE0B6_
FNDA:21,_RNCINvNtCsjoPG8AIhCtl_8matrixci4util7get_rowdE0B6_
FNDA:5,_RNCNvNtCsjoPG8AIhCtl_8matrixci4util8set_diff0B5_
FNDA:94,_RNvMs_NtCsjoPG8AIhCtl_8matrixci4utilINtB4_6MatrixdE5zerosB6_
FNDA:758,_RNvXs0_NtCsjoPG8AIhCtl_8matrixci4utilINtB5_6MatrixdEINtNtNtCskzPJi2J8k3N_4core3ops5index5IndexAjj2_E5indexB7_
FNDA:480,_RNvXs1_NtCsjoPG8AIhCtl_8matrixci4utilINtB5_6MatrixdEINtNtNtCskzPJi2J8k3N_4core3ops5index8IndexMutAjj2_E9index_mutB7_
FNDA:8,_RNvYdNtNtCsjoPG8AIhCtl_8matrixci4util6Scalar7epsilonB7_
FNDA:1,_RNvNtNtCsjoPG8AIhCtl_8matrixci4util5testss_12test_mat_mul
FNDA:1,_RNvNtNtCsjoPG8AIhCtl_8matrixci4util5testss_13test_set_diff
FNDA:1,_RNvNtNtCsjoPG8AIhCtl_8matrixci4util5testss_17test_matrix_basic
FNDA:1,_RNvNtNtCsjoPG8AIhCtl_8matrixci4util5testss_21test_matrix_transpose
FNDA:1,_RNvNtNtCsjoPG8AIhCtl_8matrixci4util5testss_21test_submatrix_argmax
FNDA:1,_RNvNtCsjoPG8AIhCtl_8matrixci4util8set_diff
FNDA:22,_RNvXs2_NtCsjoPG8AIhCtl_8matrixci4utildNtB5_6Scalar3abs
FNDA:148,_RNvXs2_NtCsjoPG8AIhCtl_8matrixci4utildNtB5_6Scalar6abs_sq
FNDA:82,_RNvXs2_NtCsjoPG8AIhCtl_8matrixci4utildNtB5_6Scalar6is_nan
FNDA:0,_RINvNtCsjoPG8AIhCtl_8matrixci4util13a_inv_times_bpEB4_
FNDA:0,_RINvNtCsjoPG8AIhCtl_8matrixci4util13random_subsetppEB4_
FNDA:0,_RINvNtCsjoPG8AIhCtl_8matrixci4util3dotpEB4_
FNDA:0,_RNCINvNtCsjoPG8AIhCtl_8matrixci4util13random_subsetppE0B6_
FNDA:0,_RNCINvNtCsjoPG8AIhCtl_8matrixci4util3dotpE0B6_
FNDA:0,_RNvMNtCsjoPG8AIhCtl_8matrixci4utilINtB2_6MatrixpE5ncolsB4_
FNDA:0,_RNvMNtCsjoPG8AIhCtl_8matrixci4utilINtB2_6MatrixpE5nrowsB4_
FNDA:0,_RNvMNtCsjoPG8AIhCtl_8matrixci4utilINtB2_6MatrixpE9from_elemB4_
FNDA:0,_RNvXs3_NtCsjoPG8AIhCtl_8matrixci4utilfNtB5_6Scalar3abs
FNDA:0,_RNvXs3_NtCsjoPG8AIhCtl_8matrixci4utilfNtB5_6Scalar6abs_sq
FNDA:0,_RNvXs3_NtCsjoPG8AIhCtl_8matrixci4utilfNtB5_6Scalar6is_nan
FNDA:0,_RNvXs4_NtCsjoPG8AIhCtl_8matrixci4utilINtCseyqKeAT1xJ3_11num_complex7ComplexdENtB5_6Scalar3abs
FNDA:0,_RNvXs4_NtCsjoPG8AIhCtl_8matrixci4utilINtCseyqKeAT1xJ3_11num_complex7ComplexdENtB5_6Scalar6abs_sq
FNDA:0,_RNvXs4_NtCsjoPG8AIhCtl_8matrixci4utilINtCseyqKeAT1xJ3_11num_complex7ComplexdENtB5_6Scalar6is_nan
FNDA:0,_RNvXs5_NtCsjoPG8AIhCtl_8matrixci4utilINtCseyqKeAT1xJ3_11num_complex7ComplexfENtB5_6Scalar3abs
FNDA:0,_RNvXs5_NtCsjoPG8AIhCtl_8matrixci4utilINtCseyqKeAT1xJ3_11num_complex7ComplexfENtB5_6Scalar6abs_sq
FNDA:0,_RNvXs5_NtCsjoPG8AIhCtl_8matrixci4utilINtCseyqKeAT1xJ3_11num_complex7ComplexfENtB5_6Scalar6is_nan
FNDA:7,_RNvMNtCsh2ySt9yG5fK_8matrixci4utilINtB2_6MatrixdE5ncolsCsdnTG4X9gKe5_15tensor4all_capi
FNDA:7,_RNvMNtCsh2ySt9yG5fK_8matrixci4utilINtB2_6MatrixdE5nrowsCsdnTG4X9gKe5_15tensor4all_capi
FNDA:6,_RINvNtCsh2ySt9yG5fK_8matrixci4util16submatrix_argmaxdECscSOxaV92jfc_22tensor4all_quanticstci
FNDA:20,_RINvNtCsh2ySt9yG5fK_8matrixci4util5ncolsdECscSOxaV92jfc_22tensor4all_quanticstci
FNDA:18,_RINvNtCsh2ySt9yG5fK_8matrixci4util5nrowsdECscSOxaV92jfc_22tensor4all_quanticstci
FNDA:24,_RINvNtCsh2ySt9yG5fK_8matrixci4util5zerosdECscSOxaV92jfc_22tensor4all_quanticstci
FNDA:2,_RINvNtCsh2ySt9yG5fK_8matrixci4util7mat_muldECscSOxaV92jfc_22tensor4all_quanticstci
FNDA:6,_RINvNtCsh2ySt9yG5fK_8matrixci4util9submatrixdECscSOxaV92jfc_22tensor4all_quanticstci
FNDA:4,_RINvNtCsh2ySt9yG5fK_8matrixci4util9swap_colsdECscSOxaV92jfc_22tensor4all_quanticstci
FNDA:4,_RINvNtCsh2ySt9yG5fK_8matrixci4util9swap_rowsdECscSOxaV92jfc_22tensor4all_quanticstci
FNDA:32,_RNvMNtCsh2ySt9yG5fK_8matrixci4utilINtB2_6MatrixdE5ncolsCscSOxaV92jfc_22tensor4all_quanticstci
FNDA:32,_RNvMNtCsh2ySt9yG5fK_8matrixci4utilINtB2_6MatrixdE5nrowsCscSOxaV92jfc_22tensor4all_quanticstci
FNDA:24,_RNvMs_NtCsh2ySt9yG5fK_8matrixci4utilINtB4_6MatrixdE5zerosCscSOxaV92jfc_22tensor4all_quanticstci
FNDA:466,_RNvXs0_NtCsh2ySt9yG5fK_8matrixci4utilINtB5_6MatrixdEINtNtNtCskzPJi2J8k3N_4core3ops5index5IndexAjj2_E5indexCscSOxaV92jfc_22tensor4all_quanticstci
FNDA:248,_RNvXs1_NtCsh2ySt9yG5fK_8matrixci4utilINtB5_6MatrixdEINtNtNtCskzPJi2J8k3N_4core3ops5index8IndexMutAjj2_E9index_mutCscSOxaV92jfc_22tensor4all_quanticstci
FNDA:63,_RINvNtCsh2ySt9yG5fK_8matrixci4util16submatrix_argmaxdECs8Utr2TeDrCM_19tensor4all_simplett
FNDA:794,_RINvNtCsh2ySt9yG5fK_8matrixci4util5ncolsdECs8Utr2TeDrCM_19tensor4all_simplett
FNDA:654,_RINvNtCsh2ySt9yG5fK_8matrixci4util5nrowsdECs8Utr2TeDrCM_19tensor4all_simplett
FNDA:575,_RINvNtCsh2ySt9yG5fK_8matrixci4util5zerosdECs8Utr2TeDrCM_19tensor4all_simplett
FNDA:54,_RINvNtCsh2ySt9yG5fK_8matrixci4util7mat_muldECs8Utr2TeDrCM_19tensor4all_simplett
FNDA:3,_RINvNtCsh2ySt9yG5fK_8matrixci4util9submatrixdECs8Utr2TeDrCM_19tensor4all_simplett
FNDA:10,_RINvNtCsh2ySt9yG5fK_8matrixci4util9swap_colsdECs8Utr2TeDrCM_19tensor4all_simplett
FNDA:7,_RINvNtCsh2ySt9yG5fK_8matrixci4util9swap_rowsdECs8Utr2TeDrCM_19tensor4all_simplett
FNDA:72,_RINvNtCsh2ySt9yG5fK_8matrixci4util9transposedECs8Utr2TeDrCM_19tensor4all_simplett
FNDA:575,_RNvMs_NtCsh2ySt9yG5fK_8matrixci4utilINtB4_6MatrixdE5zerosCs8Utr2TeDrCM_19tensor4all_simplett
FNDA:2445,_RNvXs0_NtCsh2ySt9yG5fK_8matrixci4utilINtB5_6MatrixdEINtNtNtCskzPJi2J8k3N_4core3ops5index5IndexAjj2_E5indexCs8Utr2TeDrCM_19tensor4all_simplett
FNDA:1507,_RNvXs1_NtCsh2ySt9yG5fK_8matrixci4utilINtB5_6MatrixdEINtNtNtCskzPJi2J8k3N_4core3ops5index8IndexMutAjj2_E9index_mutCs8Utr2TeDrCM_19tensor4all_simplett
FNDA:8,_RINvNtCsh2ySt9yG5fK_8matrixci4util10append_coldECsjOkKuSgKfGs_19tensor4all_tensorci
FNDA:8,_RINvNtCsh2ySt9yG5fK_8matrixci4util10append_rowdECsjOkKuSgKfGs_19tensor4all_tensorci
FNDA:69,_RINvNtCsh2ySt9yG5fK_8matrixci4util10from_vec2ddECsjOkKuSgKfGs_19tensor4all_tensorci
FNDA:51,_RINvNtCsh2ySt9yG5fK_8matrixci4util13a_times_b_invdECsjOkKuSgKfGs_19tensor4all_tensorci
FNDA:26,_RINvNtCsh2ySt9yG5fK_8matrixci4util16submatrix_argmaxdECsjOkKuSgKfGs_19tensor4all_tensorci
FNDA:51,_RINvNtCsh2ySt9yG5fK_8matrixci4util19solve_linear_systemdECsjOkKuSgKfGs_19tensor4all_tensorci
FNDA:347,_RINvNtCsh2ySt9yG5fK_8matrixci4util5ncolsdECsjOkKuSgKfGs_19tensor4all_tensorci
FNDA:313,_RINvNtCsh2ySt9yG5fK_8matrixci4util5nrowsdECsjOkKuSgKfGs_19tensor4all_tensorci
FNDA:636,_RINvNtCsh2ySt9yG5fK_8matrixci4util5zerosdECsjOkKuSgKfGs_19tensor4all_tensorci
FNDA:17,_RINvNtCsh2ySt9yG5fK_8matrixci4util7get_coldECsjOkKuSgKfGs_19tensor4all_tensorci
FNDA:17,_RINvNtCsh2ySt9yG5fK_8matrixci4util7get_rowdECsjOkKuSgKfGs_19tensor4all_tensorci
FNDA:12,_RINvNtCsh2ySt9yG5fK_8matrixci4util7mat_muldECsjOkKuSgKfGs_19tensor4all_tensorci
FNDA:50,_RINvNtCsh2ySt9yG5fK_8matrixci4util9submatrixdECsjOkKuSgKfGs_19tensor4all_tensorci
FNDA:7,_RINvNtCsh2ySt9yG5fK_8matrixci4util9swap_colsdECsjOkKuSgKfGs_19tensor4all_tensorci
FNDA:7,_RINvNtCsh2ySt9yG5fK_8matrixci4util9swap_rowsdECsjOkKuSgKfGs_19tensor4all_tensorci
FNDA:153,_RINvNtCsh2ySt9yG5fK_8matrixci4util9transposedECsjOkKuSgKfGs_19tensor4all_tensorci
FNDA:69,_RNCINvNtCsh2ySt9yG5fK_8matrixci4util19solve_linear_systemdE0CsjOkKuSgKfGs_19tensor4all_tensorci
FNDA:60,_RNCINvNtCsh2ySt9yG5fK_8matrixci4util7get_coldE0CsjOkKuSgKfGs_19tensor4all_tensorci
FNDA:58,_RNCINvNtCsh2ySt9yG5fK_8matrixci4util7get_rowdE0CsjOkKuSgKfGs_19tensor4all_tensorci
FNDA:283,_RNvMNtCsh2ySt9yG5fK_8matrixci4utilINtB2_6MatrixdE5ncolsCsjOkKuSgKfGs_19tensor4all_tensorci
FNDA:232,_RNvMNtCsh2ySt9yG5fK_8matrixci4utilINtB2_6MatrixdE5nrowsCsjOkKuSgKfGs_19tensor4all_tensorci
FNDA:636,_RNvMs_NtCsh2ySt9yG5fK_8matrixci4utilINtB4_6MatrixdE5zerosCsjOkKuSgKfGs_19tensor4all_tensorci
FNDA:2944,_RNvXs0_NtCsh2ySt9yG5fK_8matrixci4utilINtB5_6MatrixdEINtNtNtCskzPJi2J8k3N_4core3ops5index5IndexAjj2_E5indexCsjOkKuSgKfGs_19tensor4all_tensorci
FNDA:1789,_RNvXs1_NtCsh2ySt9yG5fK_8matrixci4utilINtB5_6MatrixdEINtNtNtCskzPJi2J8k3N_4core3ops5index8IndexMutAjj2_E9index_mutCsjOkKuSgKfGs_19tensor4all_tensorci
FNDA:142,_RNvYdNtNtCsh2ySt9yG5fK_8matrixci4util6Scalar7epsilonCsjOkKuSgKfGs_19tensor4all_tensorci
FNF:51
FNH:38
DA:19,0
DA:20,0
DA:21,0
DA:22,0
DA:23,0
DA:24,0
DA:25,0
DA:28,271
DA:29,271
DA:30,271
DA:33,322
DA:34,322
DA:35,322
DA:40,1850
DA:41,1850
DA:42,1850
DA:43,1850
DA:44,1850
DA:45,1850
DA:46,1850
DA:52,292558
DA:53,292558
DA:54,292558
DA:58,79406
DA:59,79406
DA:60,79406
DA:64,1850
DA:65,1850
DA:66,1850
DA:69,1
DA:70,1
DA:71,3
DA:72,3
DA:73,3
DA:74,1
DA:75,1
DA:78,96
DA:79,96
DA:80,96
DA:81,96
DA:82,167
DA:83,275
DA:84,275
DA:85,275
DA:87,96
DA:88,96
DA:91,2400
DA:92,2400
DA:93,2400
DA:96,3149
DA:97,3149
DA:98,3149
DA:101,24
DA:102,79
DA:103,24
DA:106,24
DA:107,81
DA:108,24
DA:111,82
DA:112,82
DA:113,129
DA:114,221
DA:115,221
DA:116,221
DA:118,82
DA:119,82
DA:122,10
DA:123,10
DA:124,10
DA:125,10
DA:127,10
DA:128,39
DA:129,69
DA:130,69
DA:131,69
DA:132,39
DA:134,10
DA:135,10
DA:138,10
DA:139,10
DA:140,10
DA:141,10
DA:143,10
DA:144,16
DA:145,67
DA:146,67
DA:147,67
DA:149,37
DA:150,37
DA:151,37
DA:152,10
DA:153,10
DA:156,138
DA:157,138
DA:158,0
DA:159,138
DA:160,138
DA:161,2288
DA:162,2288
DA:163,2288
DA:164,2288
DA:165,2288
DA:166,138
DA:167,138
DA:170,171
DA:171,171
DA:172,0
DA:173,171
DA:174,171
DA:175,1049
DA:176,1049
DA:177,1049
DA:178,1049
DA:179,1049
DA:180,171
DA:181,171
DA:184,232
DA:185,232
DA:186,319
DA:187,432
DA:188,432
DA:189,432
DA:191,232
DA:192,232
DA:219,150
DA:220,150
DA:221,150
DA:225,87
DA:226,87
DA:227,87
DA:229,1451
DA:230,1451
DA:231,1451
DA:233,568
DA:234,568
DA:235,568
DA:239,0
DA:240,0
DA:241,0
DA:243,0
DA:244,0
DA:245,0
DA:247,0
DA:248,0
DA:249,0
DA:253,0
DA:254,0
DA:255,0
DA:257,19683
DA:258,19683
DA:259,19683
DA:261,3720
DA:262,3720
DA:263,3720
DA:267,0
DA:268,0
DA:269,0
DA:271,0
DA:272,0
DA:273,0
DA:275,0
DA:276,0
DA:277,0
DA:281,53
DA:282,53
DA:283,53
DA:284,53
DA:287,53
DA:288,53
DA:289,53
DA:290,53
DA:291,53
DA:294,0
DA:295,0
DA:296,0
DA:297,0
DA:298,0
DA:299,0
DA:303,53
DA:304,53
DA:305,53
DA:306,53
DA:307,53
DA:310,53
DA:311,71
DA:312,71
DA:313,107
DA:314,107
DA:315,107
DA:316,79
DA:317,79
DA:318,79
DA:319,71
DA:320,71
DA:321,53
DA:324,71
DA:326,71
DA:327,71
DA:328,71
DA:329,18
DA:330,18
DA:331,18
DA:332,18
DA:333,18
DA:337,71
DA:338,18
DA:339,53
DA:341,71
DA:342,71
DA:343,0
DA:344,71
DA:347,71
DA:348,18
DA:349,54
DA:350,54
DA:351,54
DA:356,53
DA:357,71
DA:358,79
DA:359,79
DA:360,79
DA:361,18
DA:362,18
DA:363,79
DA:364,79
DA:365,79
DA:366,79
DA:370,53
DA:371,53
DA:374,310
DA:375,310
DA:376,310
DA:377,310
DA:378,310
DA:379,310
DA:380,310
DA:382,310
DA:383,310
DA:384,310
DA:386,1590
DA:387,21195
DA:388,19915
DA:389,19915
DA:390,1787
DA:391,1787
DA:392,1787
DA:393,18128
DA:397,310
DA:398,310
DA:401,0
DA:402,0
DA:403,0
DA:404,0
DA:405,0
DA:407,0
DA:408,0
DA:409,0
DA:410,0
DA:411,0
DA:414,1
DA:415,1
DA:416,1
DA:417,1
DA:418,5
DA:419,1
DA:420,1
DA:423,0
DA:424,0
DA:425,0
DA:426,0
DA:427,0
DA:428,0
DA:431,125
DA:432,125
DA:433,125
DA:434,125
DA:435,125
DA:437,125
DA:438,413
DA:439,4445
DA:440,4445
DA:441,99769
DA:442,99769
DA:443,99769
DA:444,4445
DA:447,125
DA:448,125
DA:455,1
DA:456,1
DA:457,1
DA:458,1
DA:459,1
DA:461,1
DA:462,1
DA:463,1
DA:464,1
DA:467,1
DA:468,1
DA:469,1
DA:471,1
DA:472,1
DA:473,1
DA:474,1
DA:475,1
DA:476,1
DA:479,1
DA:480,1
DA:481,1
DA:482,1
DA:483,1
DA:486,1
DA:487,1
DA:488,1
DA:489,1
DA:490,1
DA:493,1
DA:494,1
DA:495,1
DA:496,1
DA:497,1
DA:498,1
DA:501,1
DA:502,1
DA:503,1
DA:504,1
DA:506,1
DA:507,1
DA:508,1
DA:509,1
DA:510,1
BRF:0
BRH:0
LF:336
LH:281
end_of_record
SF:/Users/ken/git_for_collab4/tensor4all-rs/crates/quanticsgrids/src/discretized_grid.rs
FN:91,_RNvMNtCsiBPnG2YS1Vp_13quanticsgrids16discretized_gridNtB2_15DiscretizedGrid11index_table
FN:216,_RNvMNtCsiBPnG2YS1Vp_13quanticsgrids16discretized_gridNtB2_15DiscretizedGrid21origcoord_to_quantics
FN:86,_RNvMNtCsiBPnG2YS1Vp_13quanticsgrids16discretized_gridNtB2_15DiscretizedGrid4base
FN:128,_RNvMNtCsiBPnG2YS1Vp_13quanticsgrids16discretized_gridNtB2_15DiscretizedGrid8grid_min
FN:71,_RNvMNtCsiBPnG2YS1Vp_13quanticsgrids16discretized_gridNtB2_15DiscretizedGrid8is_empty
FN:106,_RNvMNtCsiBPnG2YS1Vp_13quanticsgrids16discretized_gridNtB2_15DiscretizedGrid8site_dim
FN:434,_RNvMs0_NtCsiBPnG2YS1Vp_13quanticsgrids16discretized_gridNtB5_22DiscretizedGridBuilder11with_bounds
FN:441,_RNvMs0_NtCsiBPnG2YS1Vp_13quanticsgrids16discretized_gridNtB5_22DiscretizedGridBuilder21with_include_endpoint
FN:466,_RNvMs0_NtCsiBPnG2YS1Vp_13quanticsgrids16discretized_gridNtB5_22DiscretizedGridBuilder21with_unfolding_scheme
FN:460,_RNvMs0_NtCsiBPnG2YS1Vp_13quanticsgrids16discretized_gridNtB5_22DiscretizedGridBuilder9with_base
FN:96,_RNvMNtCsiBPnG2YS1Vp_13quanticsgrids16discretized_gridNtB2_15DiscretizedGrid11lower_bound
FN:101,_RNvMNtCsiBPnG2YS1Vp_13quanticsgrids16discretized_gridNtB2_15DiscretizedGrid11upper_bound
FN:278,_RNvMNtCsiBPnG2YS1Vp_13quanticsgrids16discretized_gridNtB2_15DiscretizedGrid12expand_coord
FN:264,_RNvMNtCsiBPnG2YS1Vp_13quanticsgrids16discretized_gridNtB2_15DiscretizedGrid14expand_grididx
FN:81,_RNvMNtCsiBPnG2YS1Vp_13quanticsgrids16discretized_gridNtB2_15DiscretizedGrid14variable_names
FN:143,_RNvMNtCsiBPnG2YS1Vp_13quanticsgrids16discretized_gridNtB2_15DiscretizedGrid15grid_origcoords
FN:53,_RNvMNtCsiBPnG2YS1Vp_13quanticsgrids16discretized_gridNtB2_15DiscretizedGrid16from_index_table
FN:111,_RNvMNtCsiBPnG2YS1Vp_13quanticsgrids16discretized_gridNtB2_15DiscretizedGrid16local_dimensions
FN:231,_RNvMNtCsiBPnG2YS1Vp_13quanticsgrids16discretized_gridNtB2_15DiscretizedGrid16validate_grididx
FN:245,_RNvMNtCsiBPnG2YS1Vp_13quanticsgrids16discretized_gridNtB2_15DiscretizedGrid18validate_origcoord
FN:171,_RNvMNtCsiBPnG2YS1Vp_13quanticsgrids16discretized_gridNtB2_15DiscretizedGrid19grididx_to_quantics
FN:166,_RNvMNtCsiBPnG2YS1Vp_13quanticsgrids16discretized_gridNtB2_15DiscretizedGrid19quantics_to_grididx
FN:176,_RNvMNtCsiBPnG2YS1Vp_13quanticsgrids16discretized_gridNtB2_15DiscretizedGrid20grididx_to_origcoord
FN:191,_RNvMNtCsiBPnG2YS1Vp_13quanticsgrids16discretized_gridNtB2_15DiscretizedGrid20origcoord_to_grididx
FN:222,_RNvMNtCsiBPnG2YS1Vp_13quanticsgrids16discretized_gridNtB2_15DiscretizedGrid21quantics_to_origcoord
FN:76,_RNvMNtCsiBPnG2YS1Vp_13quanticsgrids16discretized_gridNtB2_15DiscretizedGrid2rs
FN:66,_RNvMNtCsiBPnG2YS1Vp_13quanticsgrids16discretized_gridNtB2_15DiscretizedGrid3len
FN:61,_RNvMNtCsiBPnG2YS1Vp_13quanticsgrids16discretized_gridNtB2_15DiscretizedGrid5ndims
FN:48,_RNvMNtCsiBPnG2YS1Vp_13quanticsgrids16discretized_gridNtB2_15DiscretizedGrid7builder
FN:133,_RNvMNtCsiBPnG2YS1Vp_13quanticsgrids16discretized_gridNtB2_15DiscretizedGrid8grid_max
FN:116,_RNvMNtCsiBPnG2YS1Vp_13quanticsgrids16discretized_gridNtB2_15DiscretizedGrid9grid_step
FN:412,_RNvMs0_NtCsiBPnG2YS1Vp_13quanticsgrids16discretized_gridNtB5_22DiscretizedGridBuilder16from_index_table
FN:447,_RNvMs0_NtCsiBPnG2YS1Vp_13quanticsgrids16discretized_gridNtB5_22DiscretizedGridBuilder16include_endpoint
FN:422,_RNvMs0_NtCsiBPnG2YS1Vp_13quanticsgrids16discretized_gridNtB5_22DiscretizedGridBuilder16with_lower_bound
FN:428,_RNvMs0_NtCsiBPnG2YS1Vp_13quanticsgrids16discretized_gridNtB5_22DiscretizedGridBuilder16with_upper_bound
FN:454,_RNvMs0_NtCsiBPnG2YS1Vp_13quanticsgrids16discretized_gridNtB5_22DiscretizedGridBuilder19with_variable_names
FN:402,_RNvMs0_NtCsiBPnG2YS1Vp_13quanticsgrids16discretized_gridNtB5_22DiscretizedGridBuilder3new
FN:472,_RNvMs0_NtCsiBPnG2YS1Vp_13quanticsgrids16discretized_gridNtB5_22DiscretizedGridBuilder5build
FN:294,_RNvXs_NtCsiBPnG2YS1Vp_13quanticsgrids16discretized_gridNtB4_15DiscretizedGridNtNtCskzPJi2J8k3N_4core3fmt7Display3fmt
FN:554,_RINvNtCsiBPnG2YS1Vp_13quanticsgrids16discretized_grid17quantics_functionNCNvNtB2_5testss_22test_quantics_function0EB4_
FN:558,_RNCINvNtCsiBPnG2YS1Vp_13quanticsgrids16discretized_grid17quantics_functionNCNvNtB4_5testss_22test_quantics_function0E0B6_
FN:326,_RNCNCNvXs_NtCsiBPnG2YS1Vp_13quanticsgrids16discretized_gridNtB8_15DiscretizedGridNtNtCskzPJi2J8k3N_4core3fmt7Display3fmts0_00Ba_
FN:158,_RNCNvMNtCsiBPnG2YS1Vp_13quanticsgrids16discretized_gridNtB4_15DiscretizedGrid15grid_origcoords0B6_
FN:186,_RNCNvMNtCsiBPnG2YS1Vp_13quanticsgrids16discretized_gridNtB4_15DiscretizedGrid20grididx_to_origcoord0B6_
FN:205,_RNCNvMNtCsiBPnG2YS1Vp_13quanticsgrids16discretized_gridNtB4_15DiscretizedGrid20origcoord_to_grididx0B6_
FN:138,_RNCNvMNtCsiBPnG2YS1Vp_13quanticsgrids16discretized_gridNtB4_15DiscretizedGrid8grid_max0B6_
FN:123,_RNCNvMNtCsiBPnG2YS1Vp_13quanticsgrids16discretized_gridNtB4_15DiscretizedGrid9grid_step0B6_
FN:479,_RNCNvMs0_NtCsiBPnG2YS1Vp_13quanticsgrids16discretized_gridNtB7_22DiscretizedGridBuilder5build0B9_
FN:480,_RNCNvMs0_NtCsiBPnG2YS1Vp_13quanticsgrids16discretized_gridNtB7_22DiscretizedGridBuilder5builds_0B9_
FN:300,_RNCNvXs_NtCsiBPnG2YS1Vp_13quanticsgrids16discretized_gridNtB6_15DiscretizedGridNtNtCskzPJi2J8k3N_4core3fmt7Display3fmt0B8_
FN:326,_RNCNvXs_NtCsiBPnG2YS1Vp_13quanticsgrids16discretized_gridNtB6_15DiscretizedGridNtNtCskzPJi2J8k3N_4core3fmt7Display3fmts0_0B8_
FN:338,_RNCNvXs_NtCsiBPnG2YS1Vp_13quanticsgrids16discretized_gridNtB6_15DiscretizedGridNtNtCskzPJi2J8k3N_4core3fmt7Display3fmts1_0B8_
FN:357,_RNCNvXs_NtCsiBPnG2YS1Vp_13quanticsgrids16discretized_gridNtB6_15DiscretizedGridNtNtCskzPJi2J8k3N_4core3fmt7Display3fmts2_0B8_
FN:364,_RNCNvXs_NtCsiBPnG2YS1Vp_13quanticsgrids16discretized_gridNtB6_15DiscretizedGridNtNtCskzPJi2J8k3N_4core3fmt7Display3fmts3_0B8_
FN:379,_RNCNvXs_NtCsiBPnG2YS1Vp_13quanticsgrids16discretized_gridNtB6_15DiscretizedGridNtNtCskzPJi2J8k3N_4core3fmt7Display3fmts4_0B8_
FN:382,_RNCNvXs_NtCsiBPnG2YS1Vp_13quanticsgrids16discretized_gridNtB6_15DiscretizedGridNtNtCskzPJi2J8k3N_4core3fmt7Display3fmts5_0B8_
FN:311,_RNCNvXs_NtCsiBPnG2YS1Vp_13quanticsgrids16discretized_gridNtB6_15DiscretizedGridNtNtCskzPJi2J8k3N_4core3fmt7Display3fmts_0B8_
FN:739,_RNCNvNtNtCsiBPnG2YS1Vp_13quanticsgrids16discretized_grid5testss_22test_quantics_function0B7_
FN:674,_RNvNtNtCsiBPnG2YS1Vp_13quanticsgrids16discretized_grid5testss_12test_display
FN:569,_RNvNtNtCsiBPnG2YS1Vp_13quanticsgrids16discretized_grid5testss_18test_basic_1d_grid
FN:578,_RNvNtNtCsiBPnG2YS1Vp_13quanticsgrids16discretized_grid5testss_18test_basic_2d_grid
FN:591,_RNvNtNtCsiBPnG2YS1Vp_13quanticsgrids16discretized_grid5testss_18test_custom_bounds
FN:662,_RNvNtNtCsiBPnG2YS1Vp_13quanticsgrids16discretized_grid5testss_20test_grid_origcoords
FN:710,_RNvNtNtCsiBPnG2YS1Vp_13quanticsgrids16discretized_grid5testss_21test_from_index_table
FN:648,_RNvNtNtCsiBPnG2YS1Vp_13quanticsgrids16discretized_grid5testss_21test_include_endpoint
FN:736,_RNvNtNtCsiBPnG2YS1Vp_13quanticsgrids16discretized_grid5testss_22test_quantics_function
FN:687,_RNvNtNtCsiBPnG2YS1Vp_13quanticsgrids16discretized_grid5testss_25test_error_invalid_bounds
FN:619,_RNvNtNtCsiBPnG2YS1Vp_13quanticsgrids16discretized_grid5testss_25test_grididx_to_origcoord
FN:607,_RNvNtNtCsiBPnG2YS1Vp_13quanticsgrids16discretized_grid5testss_25test_origcoord_to_grididx
FN:630,_RNvNtNtCsiBPnG2YS1Vp_13quanticsgrids16discretized_grid5testss_25test_roundtrip_all_points
FN:700,_RNvNtNtCsiBPnG2YS1Vp_13quanticsgrids16discretized_grid5testss_35test_error_coordinate_out_of_bounds
FN:91,_RNvMNtCsapfrZ3dQyZf_13quanticsgrids16discretized_gridNtB2_15DiscretizedGrid11index_table
FN:96,_RNvMNtCsapfrZ3dQyZf_13quanticsgrids16discretized_gridNtB2_15DiscretizedGrid11lower_bound
FN:101,_RNvMNtCsapfrZ3dQyZf_13quanticsgrids16discretized_gridNtB2_15DiscretizedGrid11upper_bound
FN:278,_RNvMNtCsapfrZ3dQyZf_13quanticsgrids16discretized_gridNtB2_15DiscretizedGrid12expand_coord
FN:264,_RNvMNtCsapfrZ3dQyZf_13quanticsgrids16discretized_gridNtB2_15DiscretizedGrid14expand_grididx
FN:81,_RNvMNtCsapfrZ3dQyZf_13quanticsgrids16discretized_gridNtB2_15DiscretizedGrid14variable_names
FN:143,_RNvMNtCsapfrZ3dQyZf_13quanticsgrids16discretized_gridNtB2_15DiscretizedGrid15grid_origcoords
FN:53,_RNvMNtCsapfrZ3dQyZf_13quanticsgrids16discretized_gridNtB2_15DiscretizedGrid16from_index_table
FN:111,_RNvMNtCsapfrZ3dQyZf_13quanticsgrids16discretized_gridNtB2_15DiscretizedGrid16local_dimensions
FN:231,_RNvMNtCsapfrZ3dQyZf_13quanticsgrids16discretized_gridNtB2_15DiscretizedGrid16validate_grididx
FN:245,_RNvMNtCsapfrZ3dQyZf_13quanticsgrids16discretized_gridNtB2_15DiscretizedGrid18validate_origcoord
FN:171,_RNvMNtCsapfrZ3dQyZf_13quanticsgrids16discretized_gridNtB2_15DiscretizedGrid19grididx_to_quantics
FN:166,_RNvMNtCsapfrZ3dQyZf_13quanticsgrids16discretized_gridNtB2_15DiscretizedGrid19quantics_to_grididx
FN:176,_RNvMNtCsapfrZ3dQyZf_13quanticsgrids16discretized_gridNtB2_15DiscretizedGrid20grididx_to_origcoord
FN:191,_RNvMNtCsapfrZ3dQyZf_13quanticsgrids16discretized_gridNtB2_15DiscretizedGrid20origcoord_to_grididx
FN:216,_RNvMNtCsapfrZ3dQyZf_13quanticsgrids16discretized_gridNtB2_15DiscretizedGrid21origcoord_to_quantics
FN:222,_RNvMNtCsapfrZ3dQyZf_13quanticsgrids16discretized_gridNtB2_15DiscretizedGrid21quantics_to_origcoord
FN:76,_RNvMNtCsapfrZ3dQyZf_13quanticsgrids16discretized_gridNtB2_15DiscretizedGrid2rs
FN:66,_RNvMNtCsapfrZ3dQyZf_13quanticsgrids16discretized_gridNtB2_15DiscretizedGrid3len
FN:86,_RNvMNtCsapfrZ3dQyZf_13quanticsgrids16discretized_gridNtB2_15DiscretizedGrid4base
FN:61,_RNvMNtCsapfrZ3dQyZf_13quanticsgrids16discretized_gridNtB2_15DiscretizedGrid5ndims
FN:48,_RNvMNtCsapfrZ3dQyZf_13quanticsgrids16discretized_gridNtB2_15DiscretizedGrid7builder
FN:133,_RNvMNtCsapfrZ3dQyZf_13quanticsgrids16discretized_gridNtB2_15DiscretizedGrid8grid_max
FN:128,_RNvMNtCsapfrZ3dQyZf_13quanticsgrids16discretized_gridNtB2_15DiscretizedGrid8grid_min
FN:71,_RNvMNtCsapfrZ3dQyZf_13quanticsgrids16discretized_gridNtB2_15DiscretizedGrid8is_empty
FN:106,_RNvMNtCsapfrZ3dQyZf_13quanticsgrids16discretized_gridNtB2_15DiscretizedGrid8site_dim
FN:116,_RNvMNtCsapfrZ3dQyZf_13quanticsgrids16discretized_gridNtB2_15DiscretizedGrid9grid_step
FN:434,_RNvMs0_NtCsapfrZ3dQyZf_13quanticsgrids16discretized_gridNtB5_22DiscretizedGridBuilder11with_bounds
FN:412,_RNvMs0_NtCsapfrZ3dQyZf_13quanticsgrids16discretized_gridNtB5_22DiscretizedGridBuilder16from_index_table
FN:447,_RNvMs0_NtCsapfrZ3dQyZf_13quanticsgrids16discretized_gridNtB5_22DiscretizedGridBuilder16include_endpoint
FN:422,_RNvMs0_NtCsapfrZ3dQyZf_13quanticsgrids16discretized_gridNtB5_22DiscretizedGridBuilder16with_lower_bound
FN:428,_RNvMs0_NtCsapfrZ3dQyZf_13quanticsgrids16discretized_gridNtB5_22DiscretizedGridBuilder16with_upper_bound
FN:454,_RNvMs0_NtCsapfrZ3dQyZf_13quanticsgrids16discretized_gridNtB5_22DiscretizedGridBuilder19with_variable_names
FN:441,_RNvMs0_NtCsapfrZ3dQyZf_13quanticsgrids16discretized_gridNtB5_22DiscretizedGridBuilder21with_include_endpoint
FN:466,_RNvMs0_NtCsapfrZ3dQyZf_13quanticsgrids16discretized_gridNtB5_22DiscretizedGridBuilder21with_unfolding_scheme
FN:402,_RNvMs0_NtCsapfrZ3dQyZf_13quanticsgrids16discretized_gridNtB5_22DiscretizedGridBuilder3new
FN:472,_RNvMs0_NtCsapfrZ3dQyZf_13quanticsgrids16discretized_gridNtB5_22DiscretizedGridBuilder5build
FN:460,_RNvMs0_NtCsapfrZ3dQyZf_13quanticsgrids16discretized_gridNtB5_22DiscretizedGridBuilder9with_base
FN:294,_RNvXs_NtCsapfrZ3dQyZf_13quanticsgrids16discretized_gridNtB4_15DiscretizedGridNtNtCskzPJi2J8k3N_4core3fmt7Display3fmt
FN:326,_RNCNCNvXs_NtCsapfrZ3dQyZf_13quanticsgrids16discretized_gridNtB8_15DiscretizedGridNtNtCskzPJi2J8k3N_4core3fmt7Display3fmts0_00Ba_
FN:158,_RNCNvMNtCsapfrZ3dQyZf_13quanticsgrids16discretized_gridNtB4_15DiscretizedGrid15grid_origcoords0B6_
FN:186,_RNCNvMNtCsapfrZ3dQyZf_13quanticsgrids16discretized_gridNtB4_15DiscretizedGrid20grididx_to_origcoord0B6_
FN:205,_RNCNvMNtCsapfrZ3dQyZf_13quanticsgrids16discretized_gridNtB4_15DiscretizedGrid20origcoord_to_grididx0B6_
FN:138,_RNCNvMNtCsapfrZ3dQyZf_13quanticsgrids16discretized_gridNtB4_15DiscretizedGrid8grid_max0B6_
FN:123,_RNCNvMNtCsapfrZ3dQyZf_13quanticsgrids16discretized_gridNtB4_15DiscretizedGrid9grid_step0B6_
FN:479,_RNCNvMs0_NtCsapfrZ3dQyZf_13quanticsgrids16discretized_gridNtB7_22DiscretizedGridBuilder5build0B9_
FN:480,_RNCNvMs0_NtCsapfrZ3dQyZf_13quanticsgrids16discretized_gridNtB7_22DiscretizedGridBuilder5builds_0B9_
FN:300,_RNCNvXs_NtCsapfrZ3dQyZf_13quanticsgrids16discretized_gridNtB6_15DiscretizedGridNtNtCskzPJi2J8k3N_4core3fmt7Display3fmt0B8_
FN:326,_RNCNvXs_NtCsapfrZ3dQyZf_13quanticsgrids16discretized_gridNtB6_15DiscretizedGridNtNtCskzPJi2J8k3N_4core3fmt7Display3fmts0_0B8_
FN:338,_RNCNvXs_NtCsapfrZ3dQyZf_13quanticsgrids16discretized_gridNtB6_15DiscretizedGridNtNtCskzPJi2J8k3N_4core3fmt7Display3fmts1_0B8_
FN:357,_RNCNvXs_NtCsapfrZ3dQyZf_13quanticsgrids16discretized_gridNtB6_15DiscretizedGridNtNtCskzPJi2J8k3N_4core3fmt7Display3fmts2_0B8_
FN:364,_RNCNvXs_NtCsapfrZ3dQyZf_13quanticsgrids16discretized_gridNtB6_15DiscretizedGridNtNtCskzPJi2J8k3N_4core3fmt7Display3fmts3_0B8_
FN:379,_RNCNvXs_NtCsapfrZ3dQyZf_13quanticsgrids16discretized_gridNtB6_15DiscretizedGridNtNtCskzPJi2J8k3N_4core3fmt7Display3fmts4_0B8_
FN:382,_RNCNvXs_NtCsapfrZ3dQyZf_13quanticsgrids16discretized_gridNtB6_15DiscretizedGridNtNtCskzPJi2J8k3N_4core3fmt7Display3fmts5_0B8_
FN:311,_RNCNvXs_NtCsapfrZ3dQyZf_13quanticsgrids16discretized_gridNtB6_15DiscretizedGridNtNtCskzPJi2J8k3N_4core3fmt7Display3fmts_0B8_
FNDA:0,_RNvMNtCsiBPnG2YS1Vp_13quanticsgrids16discretized_gridNtB2_15DiscretizedGrid11index_table
FNDA:0,_RNvMNtCsiBPnG2YS1Vp_13quanticsgrids16discretized_gridNtB2_15DiscretizedGrid21origcoord_to_quantics
FNDA:0,_RNvMNtCsiBPnG2YS1Vp_13quanticsgrids16discretized_gridNtB2_15DiscretizedGrid4base
FNDA:0,_RNvMNtCsiBPnG2YS1Vp_13quanticsgrids16discretized_gridNtB2_15DiscretizedGrid8grid_min
FNDA:0,_RNvMNtCsiBPnG2YS1Vp_13quanticsgrids16discretized_gridNtB2_15DiscretizedGrid8is_empty
FNDA:0,_RNvMNtCsiBPnG2YS1Vp_13quanticsgrids16discretized_gridNtB2_15DiscretizedGrid8site_dim
FNDA:0,_RNvMs0_NtCsiBPnG2YS1Vp_13quanticsgrids16discretized_gridNtB5_22DiscretizedGridBuilder11with_bounds
FNDA:0,_RNvMs0_NtCsiBPnG2YS1Vp_13quanticsgrids16discretized_gridNtB5_22DiscretizedGridBuilder21with_include_endpoint
FNDA:0,_RNvMs0_NtCsiBPnG2YS1Vp_13quanticsgrids16discretized_gridNtB5_22DiscretizedGridBuilder21with_unfolding_scheme
FNDA:0,_RNvMs0_NtCsiBPnG2YS1Vp_13quanticsgrids16discretized_gridNtB5_22DiscretizedGridBuilder9with_base
FNDA:3,_RNvMNtCsiBPnG2YS1Vp_13quanticsgrids16discretized_gridNtB2_15DiscretizedGrid11lower_bound
FNDA:3,_RNvMNtCsiBPnG2YS1Vp_13quanticsgrids16discretized_gridNtB2_15DiscretizedGrid11upper_bound
FNDA:19,_RNvMNtCsiBPnG2YS1Vp_13quanticsgrids16discretized_gridNtB2_15DiscretizedGrid12expand_coord
FNDA:20,_RNvMNtCsiBPnG2YS1Vp_13quanticsgrids16discretized_gridNtB2_15DiscretizedGrid14expand_grididx
FNDA:1,_RNvMNtCsiBPnG2YS1Vp_13quanticsgrids16discretized_gridNtB2_15DiscretizedGrid14variable_names
FNDA:1,_RNvMNtCsiBPnG2YS1Vp_13quanticsgrids16discretized_gridNtB2_15DiscretizedGrid15grid_origcoords
FNDA:1,_RNvMNtCsiBPnG2YS1Vp_13quanticsgrids16discretized_gridNtB2_15DiscretizedGrid16from_index_table
FNDA:1,_RNvMNtCsiBPnG2YS1Vp_13quanticsgrids16discretized_gridNtB2_15DiscretizedGrid16local_dimensions
FNDA:20,_RNvMNtCsiBPnG2YS1Vp_13quanticsgrids16discretized_gridNtB2_15DiscretizedGrid16validate_grididx
FNDA:19,_RNvMNtCsiBPnG2YS1Vp_13quanticsgrids16discretized_gridNtB2_15DiscretizedGrid18validate_origcoord
FNDA:50,_RNvMNtCsiBPnG2YS1Vp_13quanticsgrids16discretized_gridNtB2_15DiscretizedGrid19grididx_to_quantics
FNDA:50,_RNvMNtCsiBPnG2YS1Vp_13quanticsgrids16discretized_gridNtB2_15DiscretizedGrid19quantics_to_grididx
FNDA:20,_RNvMNtCsiBPnG2YS1Vp_13quanticsgrids16discretized_gridNtB2_15DiscretizedGrid20grididx_to_origcoord
FNDA:19,_RNvMNtCsiBPnG2YS1Vp_13quanticsgrids16discretized_gridNtB2_15DiscretizedGrid20origcoord_to_grididx
FNDA:2,_RNvMNtCsiBPnG2YS1Vp_13quanticsgrids16discretized_gridNtB2_15DiscretizedGrid21quantics_to_origcoord
FNDA:1,_RNvMNtCsiBPnG2YS1Vp_13quanticsgrids16discretized_gridNtB2_15DiscretizedGrid2rs
FNDA:2,_RNvMNtCsiBPnG2YS1Vp_13quanticsgrids16discretized_gridNtB2_15DiscretizedGrid3len
FNDA:44,_RNvMNtCsiBPnG2YS1Vp_13quanticsgrids16discretized_gridNtB2_15DiscretizedGrid5ndims
FNDA:12,_RNvMNtCsiBPnG2YS1Vp_13quanticsgrids16discretized_gridNtB2_15DiscretizedGrid7builder
FNDA:1,_RNvMNtCsiBPnG2YS1Vp_13quanticsgrids16discretized_gridNtB2_15DiscretizedGrid8grid_max
FNDA:42,_RNvMNtCsiBPnG2YS1Vp_13quanticsgrids16discretized_gridNtB2_15DiscretizedGrid9grid_step
FNDA:1,_RNvMs0_NtCsiBPnG2YS1Vp_13quanticsgrids16discretized_gridNtB5_22DiscretizedGridBuilder16from_index_table
FNDA:1,_RNvMs0_NtCsiBPnG2YS1Vp_13quanticsgrids16discretized_gridNtB5_22DiscretizedGridBuilder16include_endpoint
FNDA:2,_RNvMs0_NtCsiBPnG2YS1Vp_13quanticsgrids16discretized_gridNtB5_22DiscretizedGridBuilder16with_lower_bound
FNDA:2,_RNvMs0_NtCsiBPnG2YS1Vp_13quanticsgrids16discretized_gridNtB5_22DiscretizedGridBuilder16with_upper_bound
FNDA:2,_RNvMs0_NtCsiBPnG2YS1Vp_13quanticsgrids16discretized_gridNtB5_22DiscretizedGridBuilder19with_variable_names
FNDA:12,_RNvMs0_NtCsiBPnG2YS1Vp_13quanticsgrids16discretized_gridNtB5_22DiscretizedGridBuilder3new
FNDA:13,_RNvMs0_NtCsiBPnG2YS1Vp_13quanticsgrids16discretized_gridNtB5_22DiscretizedGridBuilder5build
FNDA:1,_RNvXs_NtCsiBPnG2YS1Vp_13quanticsgrids16discretized_gridNtB4_15DiscretizedGridNtNtCskzPJi2J8k3N_4core3fmt7Display3fmt
FNDA:1,_RINvNtCsiBPnG2YS1Vp_13quanticsgrids16discretized_grid17quantics_functionNCNvNtB2_5testss_22test_quantics_function0EB4_
FNDA:2,_RNCINvNtCsiBPnG2YS1Vp_13quanticsgrids16discretized_grid17quantics_functionNCNvNtB4_5testss_22test_quantics_function0E0B6_
FNDA:1,_RNCNCNvXs_NtCsiBPnG2YS1Vp_13quanticsgrids16discretized_gridNtB8_15DiscretizedGridNtNtCskzPJi2J8k3N_4core3fmt7Display3fmts0_00Ba_
FNDA:4,_RNCNvMNtCsiBPnG2YS1Vp_13quanticsgrids16discretized_gridNtB4_15DiscretizedGrid15grid_origcoords0B6_
FNDA:36,_RNCNvMNtCsiBPnG2YS1Vp_13quanticsgrids16discretized_gridNtB4_15DiscretizedGrid20grididx_to_origcoord0B6_
FNDA:34,_RNCNvMNtCsiBPnG2YS1Vp_13quanticsgrids16discretized_gridNtB4_15DiscretizedGrid20origcoord_to_grididx0B6_
FNDA:1,_RNCNvMNtCsiBPnG2YS1Vp_13quanticsgrids16discretized_gridNtB4_15DiscretizedGrid8grid_max0B6_
FNDA:75,_RNCNvMNtCsiBPnG2YS1Vp_13quanticsgrids16discretized_gridNtB4_15DiscretizedGrid9grid_step0B6_
FNDA:11,_RNCNvMs0_NtCsiBPnG2YS1Vp_13quanticsgrids16discretized_gridNtB7_22DiscretizedGridBuilder5build0B9_
FNDA:11,_RNCNvMs0_NtCsiBPnG2YS1Vp_13quanticsgrids16discretized_gridNtB7_22DiscretizedGridBuilder5builds_0B9_
FNDA:2,_RNCNvXs_NtCsiBPnG2YS1Vp_13quanticsgrids16discretized_gridNtB6_15DiscretizedGridNtNtCskzPJi2J8k3N_4core3fmt7Display3fmt0B8_
FNDA:1,_RNCNvXs_NtCsiBPnG2YS1Vp_13quanticsgrids16discretized_gridNtB6_15DiscretizedGridNtNtCskzPJi2J8k3N_4core3fmt7Display3fmts0_0B8_
FNDA:2,_RNCNvXs_NtCsiBPnG2YS1Vp_13quanticsgrids16discretized_gridNtB6_15DiscretizedGridNtNtCskzPJi2J8k3N_4core3fmt7Display3fmts1_0B8_
FNDA:2,_RNCNvXs_NtCsiBPnG2YS1Vp_13quanticsgrids16discretized_gridNtB6_15DiscretizedGridNtNtCskzPJi2J8k3N_4core3fmt7Display3fmts2_0B8_
FNDA:2,_RNCNvXs_NtCsiBPnG2YS1Vp_13quanticsgrids16discretized_gridNtB6_15DiscretizedGridNtNtCskzPJi2J8k3N_4core3fmt7Display3fmts3_0B8_
FNDA:3,_RNCNvXs_NtCsiBPnG2YS1Vp_13quanticsgrids16discretized_gridNtB6_15DiscretizedGridNtNtCskzPJi2J8k3N_4core3fmt7Display3fmts4_0B8_
FNDA:3,_RNCNvXs_NtCsiBPnG2YS1Vp_13quanticsgrids16discretized_gridNtB6_15DiscretizedGridNtNtCskzPJi2J8k3N_4core3fmt7Display3fmts5_0B8_
FNDA:2,_RNCNvXs_NtCsiBPnG2YS1Vp_13quanticsgrids16discretized_gridNtB6_15DiscretizedGridNtNtCskzPJi2J8k3N_4core3fmt7Display3fmts_0B8_
FNDA:2,_RNCNvNtNtCsiBPnG2YS1Vp_13quanticsgrids16discretized_grid5testss_22test_quantics_function0B7_
FNDA:1,_RNvNtNtCsiBPnG2YS1Vp_13quanticsgrids16discretized_grid5testss_12test_display
FNDA:1,_RNvNtNtCsiBPnG2YS1Vp_13quanticsgrids16discretized_grid5testss_18test_basic_1d_grid
FNDA:1,_RNvNtNtCsiBPnG2YS1Vp_13quanticsgrids16discretized_grid5testss_18test_basic_2d_grid
FNDA:1,_RNvNtNtCsiBPnG2YS1Vp_13quanticsgrids16discretized_grid5testss_18test_custom_bounds
FNDA:1,_RNvNtNtCsiBPnG2YS1Vp_13quanticsgrids16discretized_grid5testss_20test_grid_origcoords
FNDA:1,_RNvNtNtCsiBPnG2YS1Vp_13quanticsgrids16discretized_grid5testss_21test_from_index_table
FNDA:1,_RNvNtNtCsiBPnG2YS1Vp_13quanticsgrids16discretized_grid5testss_21test_include_endpoint
FNDA:1,_RNvNtNtCsiBPnG2YS1Vp_13quanticsgrids16discretized_grid5testss_22test_quantics_function
FNDA:1,_RNvNtNtCsiBPnG2YS1Vp_13quanticsgrids16discretized_grid5testss_25test_error_invalid_bounds
FNDA:1,_RNvNtNtCsiBPnG2YS1Vp_13quanticsgrids16discretized_grid5testss_25test_grididx_to_origcoord
FNDA:1,_RNvNtNtCsiBPnG2YS1Vp_13quanticsgrids16discretized_grid5testss_25test_origcoord_to_grididx
FNDA:1,_RNvNtNtCsiBPnG2YS1Vp_13quanticsgrids16discretized_grid5testss_25test_roundtrip_all_points
FNDA:1,_RNvNtNtCsiBPnG2YS1Vp_13quanticsgrids16discretized_grid5testss_35test_error_coordinate_out_of_bounds
FNDA:0,_RNvMNtCsapfrZ3dQyZf_13quanticsgrids16discretized_gridNtB2_15DiscretizedGrid11index_table
FNDA:0,_RNvMNtCsapfrZ3dQyZf_13quanticsgrids16discretized_gridNtB2_15DiscretizedGrid11lower_bound
FNDA:0,_RNvMNtCsapfrZ3dQyZf_13quanticsgrids16discretized_gridNtB2_15DiscretizedGrid11upper_bound
FNDA:0,_RNvMNtCsapfrZ3dQyZf_13quanticsgrids16discretized_gridNtB2_15DiscretizedGrid12expand_coord
FNDA:0,_RNvMNtCsapfrZ3dQyZf_13quanticsgrids16discretized_gridNtB2_15DiscretizedGrid14expand_grididx
FNDA:0,_RNvMNtCsapfrZ3dQyZf_13quanticsgrids16discretized_gridNtB2_15DiscretizedGrid14variable_names
FNDA:0,_RNvMNtCsapfrZ3dQyZf_13quanticsgrids16discretized_gridNtB2_15DiscretizedGrid15grid_origcoords
FNDA:0,_RNvMNtCsapfrZ3dQyZf_13quanticsgrids16discretized_gridNtB2_15DiscretizedGrid16from_index_table
FNDA:0,_RNvMNtCsapfrZ3dQyZf_13quanticsgrids16discretized_gridNtB2_15DiscretizedGrid16local_dimensions
FNDA:0,_RNvMNtCsapfrZ3dQyZf_13quanticsgrids16discretized_gridNtB2_15DiscretizedGrid16validate_grididx
FNDA:0,_RNvMNtCsapfrZ3dQyZf_13quanticsgrids16discretized_gridNtB2_15DiscretizedGrid18validate_origcoord
FNDA:0,_RNvMNtCsapfrZ3dQyZf_13quanticsgrids16discretized_gridNtB2_15DiscretizedGrid19grididx_to_quantics
FNDA:0,_RNvMNtCsapfrZ3dQyZf_13quanticsgrids16discretized_gridNtB2_15DiscretizedGrid19quantics_to_grididx
FNDA:0,_RNvMNtCsapfrZ3dQyZf_13quanticsgrids16discretized_gridNtB2_15DiscretizedGrid20grididx_to_origcoord
FNDA:0,_RNvMNtCsapfrZ3dQyZf_13quanticsgrids16discretized_gridNtB2_15DiscretizedGrid20origcoord_to_grididx
FNDA:0,_RNvMNtCsapfrZ3dQyZf_13quanticsgrids16discretized_gridNtB2_15DiscretizedGrid21origcoord_to_quantics
FNDA:0,_RNvMNtCsapfrZ3dQyZf_13quanticsgrids16discretized_gridNtB2_15DiscretizedGrid21quantics_to_origcoord
FNDA:0,_RNvMNtCsapfrZ3dQyZf_13quanticsgrids16discretized_gridNtB2_15DiscretizedGrid2rs
FNDA:0,_RNvMNtCsapfrZ3dQyZf_13quanticsgrids16discretized_gridNtB2_15DiscretizedGrid3len
FNDA:0,_RNvMNtCsapfrZ3dQyZf_13quanticsgrids16discretized_gridNtB2_15DiscretizedGrid4base
FNDA:0,_RNvMNtCsapfrZ3dQyZf_13quanticsgrids16discretized_gridNtB2_15DiscretizedGrid5ndims
FNDA:0,_RNvMNtCsapfrZ3dQyZf_13quanticsgrids16discretized_gridNtB2_15DiscretizedGrid7builder
FNDA:0,_RNvMNtCsapfrZ3dQyZf_13quanticsgrids16discretized_gridNtB2_15DiscretizedGrid8grid_max
FNDA:0,_RNvMNtCsapfrZ3dQyZf_13quanticsgrids16discretized_gridNtB2_15DiscretizedGrid8grid_min
FNDA:0,_RNvMNtCsapfrZ3dQyZf_13quanticsgrids16discretized_gridNtB2_15DiscretizedGrid8is_empty
FNDA:0,_RNvMNtCsapfrZ3dQyZf_13quanticsgrids16discretized_gridNtB2_15DiscretizedGrid8site_dim
FNDA:0,_RNvMNtCsapfrZ3dQyZf_13quanticsgrids16discretized_gridNtB2_15DiscretizedGrid9grid_step
FNDA:0,_RNvMs0_NtCsapfrZ3dQyZf_13quanticsgrids16discretized_gridNtB5_22DiscretizedGridBuilder11with_bounds
FNDA:0,_RNvMs0_NtCsapfrZ3dQyZf_13quanticsgrids16discretized_gridNtB5_22DiscretizedGridBuilder16from_index_table
FNDA:0,_RNvMs0_NtCsapfrZ3dQyZf_13quanticsgrids16discretized_gridNtB5_22DiscretizedGridBuilder16include_endpoint
FNDA:0,_RNvMs0_NtCsapfrZ3dQyZf_13quanticsgrids16discretized_gridNtB5_22DiscretizedGridBuilder16with_lower_bound
FNDA:0,_RNvMs0_NtCsapfrZ3dQyZf_13quanticsgrids16discretized_gridNtB5_22DiscretizedGridBuilder16with_upper_bound
FNDA:0,_RNvMs0_NtCsapfrZ3dQyZf_13quanticsgrids16discretized_gridNtB5_22DiscretizedGridBuilder19with_variable_names
FNDA:0,_RNvMs0_NtCsapfrZ3dQyZf_13quanticsgrids16discretized_gridNtB5_22DiscretizedGridBuilder21with_include_endpoint
FNDA:0,_RNvMs0_NtCsapfrZ3dQyZf_13quanticsgrids16discretized_gridNtB5_22DiscretizedGridBuilder21with_unfolding_scheme
FNDA:0,_RNvMs0_NtCsapfrZ3dQyZf_13quanticsgrids16discretized_gridNtB5_22DiscretizedGridBuilder3new
FNDA:0,_RNvMs0_NtCsapfrZ3dQyZf_13quanticsgrids16discretized_gridNtB5_22DiscretizedGridBuilder5build
FNDA:0,_RNvMs0_NtCsapfrZ3dQyZf_13quanticsgrids16discretized_gridNtB5_22DiscretizedGridBuilder9with_base
FNDA:0,_RNvXs_NtCsapfrZ3dQyZf_13quanticsgrids16discretized_gridNtB4_15DiscretizedGridNtNtCskzPJi2J8k3N_4core3fmt7Display3fmt
FNDA:0,_RNCNCNvXs_NtCsapfrZ3dQyZf_13quanticsgrids16discretized_gridNtB8_15DiscretizedGridNtNtCskzPJi2J8k3N_4core3fmt7Display3fmts0_00Ba_
FNDA:0,_RNCNvMNtCsapfrZ3dQyZf_13quanticsgrids16discretized_gridNtB4_15DiscretizedGrid15grid_origcoords0B6_
FNDA:0,_RNCNvMNtCsapfrZ3dQyZf_13quanticsgrids16discretized_gridNtB4_15DiscretizedGrid20grididx_to_origcoord0B6_
FNDA:0,_RNCNvMNtCsapfrZ3dQyZf_13quanticsgrids16discretized_gridNtB4_15DiscretizedGrid20origcoord_to_grididx0B6_
FNDA:0,_RNCNvMNtCsapfrZ3dQyZf_13quanticsgrids16discretized_gridNtB4_15DiscretizedGrid8grid_max0B6_
FNDA:0,_RNCNvMNtCsapfrZ3dQyZf_13quanticsgrids16discretized_gridNtB4_15DiscretizedGrid9grid_step0B6_
FNDA:0,_RNCNvMs0_NtCsapfrZ3dQyZf_13quanticsgrids16discretized_gridNtB7_22DiscretizedGridBuilder5build0B9_
FNDA:0,_RNCNvMs0_NtCsapfrZ3dQyZf_13quanticsgrids16discretized_gridNtB7_22DiscretizedGridBuilder5builds_0B9_
FNDA:0,_RNCNvXs_NtCsapfrZ3dQyZf_13quanticsgrids16discretized_gridNtB6_15DiscretizedGridNtNtCskzPJi2J8k3N_4core3fmt7Display3fmt0B8_
FNDA:0,_RNCNvXs_NtCsapfrZ3dQyZf_13quanticsgrids16discretized_gridNtB6_15DiscretizedGridNtNtCskzPJi2J8k3N_4core3fmt7Display3fmts0_0B8_
FNDA:0,_RNCNvXs_NtCsapfrZ3dQyZf_13quanticsgrids16discretized_gridNtB6_15DiscretizedGridNtNtCskzPJi2J8k3N_4core3fmt7Display3fmts1_0B8_
FNDA:0,_RNCNvXs_NtCsapfrZ3dQyZf_13quanticsgrids16discretized_gridNtB6_15DiscretizedGridNtNtCskzPJi2J8k3N_4core3fmt7Display3fmts2_0B8_
FNDA:0,_RNCNvXs_NtCsapfrZ3dQyZf_13quanticsgrids16discretized_gridNtB6_15DiscretizedGridNtNtCskzPJi2J8k3N_4core3fmt7Display3fmts3_0B8_
FNDA:0,_RNCNvXs_NtCsapfrZ3dQyZf_13quanticsgrids16discretized_gridNtB6_15DiscretizedGridNtNtCskzPJi2J8k3N_4core3fmt7Display3fmts4_0B8_
FNDA:0,_RNCNvXs_NtCsapfrZ3dQyZf_13quanticsgrids16discretized_gridNtB6_15DiscretizedGridNtNtCskzPJi2J8k3N_4core3fmt7Display3fmts5_0B8_
FNDA:0,_RNCNvXs_NtCsapfrZ3dQyZf_13quanticsgrids16discretized_gridNtB6_15DiscretizedGridNtNtCskzPJi2J8k3N_4core3fmt7Display3fmts_0B8_
FNF:71
FNH:61
DA:48,12
DA:49,12
DA:50,12
DA:53,1
DA:54,1
DA:55,1
DA:56,1
DA:57,1
DA:58,1
DA:61,44
DA:62,44
DA:63,44
DA:66,2
DA:67,2
DA:68,2
DA:71,0
DA:72,0
DA:73,0
DA:76,1
DA:77,1
DA:78,1
DA:81,1
DA:82,1
DA:83,1
DA:86,0
DA:87,0
DA:88,0
DA:91,0
DA:92,0
DA:93,0
DA:96,3
DA:97,3
DA:98,3
DA:101,3
DA:102,3
DA:103,3
DA:106,0
DA:107,0
DA:108,0
DA:111,1
DA:112,1
DA:113,1
DA:116,42
DA:117,42
DA:118,42
DA:119,42
DA:120,42
DA:121,42
DA:122,42
DA:123,75
DA:124,42
DA:125,42
DA:128,0
DA:129,0
DA:130,0
DA:133,1
DA:134,1
DA:135,1
DA:136,1
DA:137,1
DA:138,1
DA:139,1
DA:140,1
DA:143,1
DA:144,1
DA:145,0
DA:146,0
DA:147,0
DA:148,0
DA:149,0
DA:150,1
DA:152,1
DA:153,1
DA:154,1
DA:155,1
DA:156,1
DA:158,4
DA:159,1
DA:166,50
DA:167,50
DA:168,50
DA:171,50
DA:172,50
DA:173,50
DA:176,20
DA:177,20
DA:178,20
DA:180,20
DA:181,20
DA:182,20
DA:183,20
DA:184,20
DA:185,20
DA:186,36
DA:187,20
DA:188,20
DA:191,19
DA:192,19
DA:193,19
DA:195,18
DA:196,18
DA:197,18
DA:199,18
DA:200,18
DA:201,18
DA:202,18
DA:203,18
DA:204,18
DA:205,34
DA:206,34
DA:207,34
DA:208,34
DA:209,34
DA:210,18
DA:212,18
DA:213,19
DA:216,0
DA:217,0
DA:218,0
DA:219,0
DA:222,2
DA:223,2
DA:224,2
DA:225,2
DA:231,20
DA:232,20
DA:233,36
DA:234,36
DA:235,0
DA:236,0
DA:237,0
DA:238,0
DA:239,0
DA:240,36
DA:242,20
DA:243,20
DA:245,19
DA:246,35
DA:247,19
DA:248,19
DA:249,19
DA:250,19
DA:252,35
DA:253,1
DA:254,1
DA:255,1
DA:256,1
DA:257,1
DA:258,1
DA:259,34
DA:261,18
DA:262,19
DA:264,20
DA:265,20
DA:266,20
DA:267,0
DA:268,20
DA:269,20
DA:271,0
DA:272,0
DA:273,0
DA:274,0
DA:276,20
DA:278,19
DA:279,19
DA:280,19
DA:281,0
DA:282,19
DA:283,19
DA:285,0
DA:286,0
DA:287,0
DA:288,0
DA:290,19
DA:294,1
DA:295,1
DA:296,1
DA:297,1
DA:300,2
DA:302,1
DA:303,0
DA:304,0
DA:305,0
DA:307,0
DA:309,1
DA:310,1
DA:311,2
DA:312,1
DA:313,1
DA:314,1
DA:315,1
DA:317,1
DA:319,0
DA:323,1
DA:324,1
DA:325,1
DA:326,1
DA:328,1
DA:329,0
DA:332,1
DA:333,0
DA:335,1
DA:336,1
DA:337,1
DA:338,2
DA:339,1
DA:340,1
DA:344,1
DA:345,1
DA:346,0
DA:347,0
DA:348,0
DA:349,0
DA:350,0
DA:351,0
DA:353,1
DA:354,1
DA:355,1
DA:356,1
DA:357,2
DA:358,1
DA:359,1
DA:361,1
DA:362,1
DA:363,1
DA:364,2
DA:365,1
DA:366,1
DA:370,1
DA:371,0
DA:372,1
DA:375,1
DA:376,1
DA:377,1
DA:378,1
DA:379,3
DA:380,0
DA:382,3
DA:383,1
DA:385,0
DA:387,1
DA:388,1
DA:402,12
DA:403,12
DA:404,12
DA:405,12
DA:406,12
DA:407,12
DA:408,12
DA:409,12
DA:412,1
DA:413,1
DA:414,1
DA:415,1
DA:416,1
DA:417,1
DA:418,1
DA:419,1
DA:422,2
DA:423,2
DA:424,2
DA:425,2
DA:428,2
DA:429,2
DA:430,2
DA:431,2
DA:434,0
DA:435,0
DA:436,0
DA:437,0
DA:438,0
DA:441,0
DA:442,0
DA:443,0
DA:444,0
DA:447,1
DA:449,1
DA:450,1
DA:451,1
DA:454,2
DA:455,2
DA:456,2
DA:457,2
DA:460,0
DA:461,0
DA:462,0
DA:463,0
DA:466,0
DA:467,0
DA:468,0
DA:469,0
DA:472,13
DA:473,13
DA:474,13
DA:475,13
DA:476,13
DA:479,13
DA:480,13
DA:483,13
DA:484,0
DA:486,13
DA:489,13
DA:490,0
DA:492,13
DA:494,13
DA:497,13
DA:498,0
DA:499,0
DA:500,0
DA:501,0
DA:502,13
DA:503,13
DA:504,0
DA:505,0
DA:506,0
DA:507,0
DA:508,13
DA:511,17
DA:512,17
DA:513,1
DA:514,1
DA:515,1
DA:516,1
DA:517,1
DA:518,16
DA:522,12
DA:523,1
DA:524,1
DA:525,0
DA:526,0
DA:527,0
DA:528,0
DA:529,0
DA:531,11
DA:535,16
DA:536,16
DA:537,1
DA:538,0
DA:539,1
DA:540,1
DA:541,1
DA:542,15
DA:545,12
DA:546,12
DA:547,12
DA:548,12
DA:549,12
DA:550,13
DA:554,1
DA:555,1
DA:556,1
DA:558,2
DA:559,2
DA:560,2
DA:561,2
DA:562,1
DA:569,1
DA:570,1
DA:571,1
DA:572,1
DA:573,1
DA:574,1
DA:575,1
DA:578,1
DA:579,1
DA:580,1
DA:581,1
DA:582,1
DA:584,1
DA:585,1
DA:586,1
DA:587,1
DA:588,1
DA:591,1
DA:592,1
DA:593,1
DA:594,1
DA:595,1
DA:596,1
DA:598,1
DA:599,1
DA:602,1
DA:603,1
DA:604,1
DA:607,1
DA:608,1
DA:611,1
DA:612,1
DA:614,1
DA:615,1
DA:616,1
DA:619,1
DA:620,1
DA:622,1
DA:623,1
DA:625,1
DA:626,1
DA:627,1
DA:630,1
DA:631,1
DA:633,5
DA:634,20
DA:635,16
DA:636,16
DA:637,16
DA:638,16
DA:640,16
DA:641,16
DA:642,16
DA:645,1
DA:648,1
DA:649,1
DA:650,1
DA:651,1
DA:652,1
DA:657,1
DA:658,1
DA:659,1
DA:662,1
DA:663,1
DA:664,1
DA:666,1
DA:667,1
DA:668,1
DA:669,1
DA:670,1
DA:671,1
DA:674,1
DA:675,1
DA:676,1
DA:677,1
DA:678,1
DA:680,1
DA:681,1
DA:682,1
DA:683,1
DA:684,1
DA:687,1
DA:688,1
DA:689,1
DA:690,1
DA:691,1
DA:693,1
DA:694,1
DA:697,1
DA:700,1
DA:701,1
DA:702,1
DA:703,1
DA:704,1
DA:707,1
DA:710,1
DA:711,1
DA:712,1
DA:713,1
DA:714,1
DA:717,1
DA:718,1
DA:719,1
DA:721,1
DA:722,1
DA:725,9
DA:726,40
DA:727,32
DA:728,32
DA:729,32
DA:730,32
DA:733,1
DA:736,1
DA:737,1
DA:739,2
DA:740,1
DA:743,1
DA:744,1
DA:745,1
DA:748,1
DA:749,1
DA:750,1
DA:751,1
BRF:0
BRH:0
LF:496
LH:408
end_of_record
SF:/Users/ken/git_for_collab4/tensor4all-rs/crates/quanticsgrids/src/inherent_discrete_grid.rs
FN:116,_RNvMNtCsiBPnG2YS1Vp_13quanticsgrids22inherent_discrete_gridNtB2_20InherentDiscreteGrid11index_table
FN:244,_RNvMNtCsiBPnG2YS1Vp_13quanticsgrids22inherent_discrete_gridNtB2_20InherentDiscreteGrid21origcoord_to_quantics
FN:250,_RNvMNtCsiBPnG2YS1Vp_13quanticsgrids22inherent_discrete_gridNtB2_20InherentDiscreteGrid21quantics_to_origcoord
FN:101,_RNvMNtCsiBPnG2YS1Vp_13quanticsgrids22inherent_discrete_gridNtB2_20InherentDiscreteGrid4step
FN:96,_RNvMNtCsiBPnG2YS1Vp_13quanticsgrids22inherent_discrete_gridNtB2_20InherentDiscreteGrid6origin
FN:86,_RNvMNtCsiBPnG2YS1Vp_13quanticsgrids22inherent_discrete_gridNtB2_20InherentDiscreteGrid8is_empty
FN:798,_RNvNtNtCsiBPnG2YS1Vp_13quanticsgrids22inherent_discrete_grid5testss_15test_base3_grid
FN:730,_RNvNtNtCsiBPnG2YS1Vp_13quanticsgrids22inherent_discrete_grid5testss_18test_basic_1d_grid
FN:740,_RNvNtNtCsiBPnG2YS1Vp_13quanticsgrids22inherent_discrete_grid5testss_18test_basic_2d_grid
FN:891,_RNvNtNtCsiBPnG2YS1Vp_13quanticsgrids22inherent_discrete_grid5testss_21test_from_index_table
FN:876,_RNvNtNtCsiBPnG2YS1Vp_13quanticsgrids22inherent_discrete_grid5testss_21test_local_dimensions
FN:837,_RNvNtNtCsiBPnG2YS1Vp_13quanticsgrids22inherent_discrete_grid5testss_23test_error_invalid_base
FN:779,_RNvNtNtCsiBPnG2YS1Vp_13quanticsgrids22inherent_discrete_grid5testss_23test_interleaved_scheme
FN:816,_RNvNtNtCsiBPnG2YS1Vp_13quanticsgrids22inherent_discrete_grid5testss_25test_origcoord_conversion
FN:765,_RNvNtNtCsiBPnG2YS1Vp_13quanticsgrids22inherent_discrete_grid5testss_26test_all_grididx_roundtrip
FN:866,_RNvNtNtCsiBPnG2YS1Vp_13quanticsgrids22inherent_discrete_grid5testss_32test_error_grididx_out_of_bounds
FN:854,_RNvNtNtCsiBPnG2YS1Vp_13quanticsgrids22inherent_discrete_grid5testss_32test_error_quantics_out_of_range
FN:752,_RNvNtNtCsiBPnG2YS1Vp_13quanticsgrids22inherent_discrete_grid5testss_34test_grididx_to_quantics_roundtrip
FN:843,_RNvNtNtCsiBPnG2YS1Vp_13quanticsgrids22inherent_discrete_grid5testss_35test_error_duplicate_variable_names
FN:121,_RNvMNtCsiBPnG2YS1Vp_13quanticsgrids22inherent_discrete_gridNtB2_20InherentDiscreteGrid11max_grididx
FN:324,_RNvMNtCsiBPnG2YS1Vp_13quanticsgrids22inherent_discrete_gridNtB2_20InherentDiscreteGrid12expand_coord
FN:311,_RNvMNtCsiBPnG2YS1Vp_13quanticsgrids22inherent_discrete_gridNtB2_20InherentDiscreteGrid14expand_grididx
FN:106,_RNvMNtCsiBPnG2YS1Vp_13quanticsgrids22inherent_discrete_gridNtB2_20InherentDiscreteGrid14variable_names
FN:68,_RNvMNtCsiBPnG2YS1Vp_13quanticsgrids22inherent_discrete_gridNtB2_20InherentDiscreteGrid16from_index_table
FN:137,_RNvMNtCsiBPnG2YS1Vp_13quanticsgrids22inherent_discrete_gridNtB2_20InherentDiscreteGrid16local_dimensions
FN:281,_RNvMNtCsiBPnG2YS1Vp_13quanticsgrids22inherent_discrete_gridNtB2_20InherentDiscreteGrid16validate_grididx
FN:259,_RNvMNtCsiBPnG2YS1Vp_13quanticsgrids22inherent_discrete_gridNtB2_20InherentDiscreteGrid17validate_quantics
FN:294,_RNvMNtCsiBPnG2YS1Vp_13quanticsgrids22inherent_discrete_gridNtB2_20InherentDiscreteGrid18validate_origcoord
FN:187,_RNvMNtCsiBPnG2YS1Vp_13quanticsgrids22inherent_discrete_gridNtB2_20InherentDiscreteGrid19grididx_to_quantics
FN:170,_RNvMNtCsiBPnG2YS1Vp_13quanticsgrids22inherent_discrete_gridNtB2_20InherentDiscreteGrid19quantics_to_grididx
FN:207,_RNvMNtCsiBPnG2YS1Vp_13quanticsgrids22inherent_discrete_gridNtB2_20InherentDiscreteGrid20grididx_to_origcoord
FN:227,_RNvMNtCsiBPnG2YS1Vp_13quanticsgrids22inherent_discrete_gridNtB2_20InherentDiscreteGrid20origcoord_to_grididx
FN:379,_RNvMNtCsiBPnG2YS1Vp_13quanticsgrids22inherent_discrete_gridNtB2_20InherentDiscreteGrid25grididx_to_quantics_base2
FN:337,_RNvMNtCsiBPnG2YS1Vp_13quanticsgrids22inherent_discrete_gridNtB2_20InherentDiscreteGrid25quantics_to_grididx_base2
FN:399,_RNvMNtCsiBPnG2YS1Vp_13quanticsgrids22inherent_discrete_gridNtB2_20InherentDiscreteGrid27grididx_to_quantics_general
FN:354,_RNvMNtCsiBPnG2YS1Vp_13quanticsgrids22inherent_discrete_gridNtB2_20InherentDiscreteGrid27quantics_to_grididx_general
FN:91,_RNvMNtCsiBPnG2YS1Vp_13quanticsgrids22inherent_discrete_gridNtB2_20InherentDiscreteGrid2rs
FN:81,_RNvMNtCsiBPnG2YS1Vp_13quanticsgrids22inherent_discrete_gridNtB2_20InherentDiscreteGrid3len
FN:111,_RNvMNtCsiBPnG2YS1Vp_13quanticsgrids22inherent_discrete_gridNtB2_20InherentDiscreteGrid4base
FN:76,_RNvMNtCsiBPnG2YS1Vp_13quanticsgrids22inherent_discrete_gridNtB2_20InherentDiscreteGrid5ndims
FN:63,_RNvMNtCsiBPnG2YS1Vp_13quanticsgrids22inherent_discrete_gridNtB2_20InherentDiscreteGrid7builder
FN:150,_RNvMNtCsiBPnG2YS1Vp_13quanticsgrids22inherent_discrete_gridNtB2_20InherentDiscreteGrid8grid_max
FN:145,_RNvMNtCsiBPnG2YS1Vp_13quanticsgrids22inherent_discrete_gridNtB2_20InherentDiscreteGrid8grid_min
FN:126,_RNvMNtCsiBPnG2YS1Vp_13quanticsgrids22inherent_discrete_gridNtB2_20InherentDiscreteGrid8site_dim
FN:474,_RNvMs_NtCsiBPnG2YS1Vp_13quanticsgrids22inherent_discrete_gridNtB4_27InherentDiscreteGridBuilder11with_origin
FN:449,_RNvMs_NtCsiBPnG2YS1Vp_13quanticsgrids22inherent_discrete_gridNtB4_27InherentDiscreteGridBuilder16from_index_table
FN:486,_RNvMs_NtCsiBPnG2YS1Vp_13quanticsgrids22inherent_discrete_gridNtB4_27InherentDiscreteGridBuilder19with_variable_names
FN:498,_RNvMs_NtCsiBPnG2YS1Vp_13quanticsgrids22inherent_discrete_gridNtB4_27InherentDiscreteGridBuilder21with_unfolding_scheme
FN:436,_RNvMs_NtCsiBPnG2YS1Vp_13quanticsgrids22inherent_discrete_gridNtB4_27InherentDiscreteGridBuilder3new
FN:504,_RNvMs_NtCsiBPnG2YS1Vp_13quanticsgrids22inherent_discrete_gridNtB4_27InherentDiscreteGridBuilder5build
FN:492,_RNvMs_NtCsiBPnG2YS1Vp_13quanticsgrids22inherent_discrete_gridNtB4_27InherentDiscreteGridBuilder9with_base
FN:480,_RNvMs_NtCsiBPnG2YS1Vp_13quanticsgrids22inherent_discrete_gridNtB4_27InherentDiscreteGridBuilder9with_step
FN:600,_RNvNtCsiBPnG2YS1Vp_13quanticsgrids22inherent_discrete_grid12rangecheck_r
FN:648,_RNvNtCsiBPnG2YS1Vp_13quanticsgrids22inherent_discrete_grid17add_fused_indices
FN:612,_RNvNtCsiBPnG2YS1Vp_13quanticsgrids22inherent_discrete_grid17build_index_table
FN:668,_RNvNtCsiBPnG2YS1Vp_13quanticsgrids22inherent_discrete_grid18build_lookup_table
FN:634,_RNvNtCsiBPnG2YS1Vp_13quanticsgrids22inherent_discrete_grid23add_interleaved_indices
FN:457,_RNCNCNvMs_NtCsiBPnG2YS1Vp_13quanticsgrids22inherent_discrete_gridNtB8_27InherentDiscreteGridBuilder16from_index_table00Ba_
FN:534,_RNCNCNvMs_NtCsiBPnG2YS1Vp_13quanticsgrids22inherent_discrete_gridNtB8_27InherentDiscreteGridBuilder5builds0_00Ba_
FN:140,_RNCNvMNtCsiBPnG2YS1Vp_13quanticsgrids22inherent_discrete_gridNtB4_20InherentDiscreteGrid16local_dimensions0B6_
FN:216,_RNCNvMNtCsiBPnG2YS1Vp_13quanticsgrids22inherent_discrete_gridNtB4_20InherentDiscreteGrid20grididx_to_origcoord0B6_
FN:237,_RNCNvMNtCsiBPnG2YS1Vp_13quanticsgrids22inherent_discrete_gridNtB4_20InherentDiscreteGrid20origcoord_to_grididx0B6_
FN:339,_RNCNvMNtCsiBPnG2YS1Vp_13quanticsgrids22inherent_discrete_gridNtB4_20InherentDiscreteGrid25quantics_to_grididx_base20B6_
FN:358,_RNCNvMNtCsiBPnG2YS1Vp_13quanticsgrids22inherent_discrete_gridNtB4_20InherentDiscreteGrid27quantics_to_grididx_general0B6_
FN:155,_RNCNvMNtCsiBPnG2YS1Vp_13quanticsgrids22inherent_discrete_gridNtB4_20InherentDiscreteGrid8grid_max0B6_
FN:453,_RNCNvMs_NtCsiBPnG2YS1Vp_13quanticsgrids22inherent_discrete_gridNtB6_27InherentDiscreteGridBuilder16from_index_table0B8_
FN:466,_RNCNvMs_NtCsiBPnG2YS1Vp_13quanticsgrids22inherent_discrete_gridNtB6_27InherentDiscreteGridBuilder16from_index_tables_0B8_
FN:487,_RNCNvMs_NtCsiBPnG2YS1Vp_13quanticsgrids22inherent_discrete_gridNtB6_27InherentDiscreteGridBuilder19with_variable_names0B8_
FN:530,_RNCNvMs_NtCsiBPnG2YS1Vp_13quanticsgrids22inherent_discrete_gridNtB6_27InherentDiscreteGridBuilder5build0B8_
FN:534,_RNCNvMs_NtCsiBPnG2YS1Vp_13quanticsgrids22inherent_discrete_gridNtB6_27InherentDiscreteGridBuilder5builds0_0B8_
FN:578,_RNCNvMs_NtCsiBPnG2YS1Vp_13quanticsgrids22inherent_discrete_gridNtB6_27InherentDiscreteGridBuilder5builds1_0B8_
FN:531,_RNCNvMs_NtCsiBPnG2YS1Vp_13quanticsgrids22inherent_discrete_gridNtB6_27InherentDiscreteGridBuilder5builds_0B8_
FN:673,_RNCNvNtCsiBPnG2YS1Vp_13quanticsgrids22inherent_discrete_grid18build_lookup_table0B5_
FN:681,_RNCNvNtCsiBPnG2YS1Vp_13quanticsgrids22inherent_discrete_grid18build_lookup_tables0_0B5_
FN:683,_RNCNvNtCsiBPnG2YS1Vp_13quanticsgrids22inherent_discrete_grid18build_lookup_tables1_0B5_
FN:675,_RNCNvNtCsiBPnG2YS1Vp_13quanticsgrids22inherent_discrete_grid18build_lookup_tables_0B5_
FN:116,_RNvMNtCsapfrZ3dQyZf_13quanticsgrids22inherent_discrete_gridNtB2_20InherentDiscreteGrid11index_table
FN:121,_RNvMNtCsapfrZ3dQyZf_13quanticsgrids22inherent_discrete_gridNtB2_20InherentDiscreteGrid11max_grididx
FN:324,_RNvMNtCsapfrZ3dQyZf_13quanticsgrids22inherent_discrete_gridNtB2_20InherentDiscreteGrid12expand_coord
FN:311,_RNvMNtCsapfrZ3dQyZf_13quanticsgrids22inherent_discrete_gridNtB2_20InherentDiscreteGrid14expand_grididx
FN:106,_RNvMNtCsapfrZ3dQyZf_13quanticsgrids22inherent_discrete_gridNtB2_20InherentDiscreteGrid14variable_names
FN:68,_RNvMNtCsapfrZ3dQyZf_13quanticsgrids22inherent_discrete_gridNtB2_20InherentDiscreteGrid16from_index_table
FN:137,_RNvMNtCsapfrZ3dQyZf_13quanticsgrids22inherent_discrete_gridNtB2_20InherentDiscreteGrid16local_dimensions
FN:281,_RNvMNtCsapfrZ3dQyZf_13quanticsgrids22inherent_discrete_gridNtB2_20InherentDiscreteGrid16validate_grididx
FN:259,_RNvMNtCsapfrZ3dQyZf_13quanticsgrids22inherent_discrete_gridNtB2_20InherentDiscreteGrid17validate_quantics
FN:294,_RNvMNtCsapfrZ3dQyZf_13quanticsgrids22inherent_discrete_gridNtB2_20InherentDiscreteGrid18validate_origcoord
FN:187,_RNvMNtCsapfrZ3dQyZf_13quanticsgrids22inherent_discrete_gridNtB2_20InherentDiscreteGrid19grididx_to_quantics
FN:170,_RNvMNtCsapfrZ3dQyZf_13quanticsgrids22inherent_discrete_gridNtB2_20InherentDiscreteGrid19quantics_to_grididx
FN:207,_RNvMNtCsapfrZ3dQyZf_13quanticsgrids22inherent_discrete_gridNtB2_20InherentDiscreteGrid20grididx_to_origcoord
FN:227,_RNvMNtCsapfrZ3dQyZf_13quanticsgrids22inherent_discrete_gridNtB2_20InherentDiscreteGrid20origcoord_to_grididx
FN:244,_RNvMNtCsapfrZ3dQyZf_13quanticsgrids22inherent_discrete_gridNtB2_20InherentDiscreteGrid21origcoord_to_quantics
FN:250,_RNvMNtCsapfrZ3dQyZf_13quanticsgrids22inherent_discrete_gridNtB2_20InherentDiscreteGrid21quantics_to_origcoord
FN:379,_RNvMNtCsapfrZ3dQyZf_13quanticsgrids22inherent_discrete_gridNtB2_20InherentDiscreteGrid25grididx_to_quantics_base2
FN:337,_RNvMNtCsapfrZ3dQyZf_13quanticsgrids22inherent_discrete_gridNtB2_20InherentDiscreteGrid25quantics_to_grididx_base2
FN:399,_RNvMNtCsapfrZ3dQyZf_13quanticsgrids22inherent_discrete_gridNtB2_20InherentDiscreteGrid27grididx_to_quantics_general
FN:354,_RNvMNtCsapfrZ3dQyZf_13quanticsgrids22inherent_discrete_gridNtB2_20InherentDiscreteGrid27quantics_to_grididx_general
FN:91,_RNvMNtCsapfrZ3dQyZf_13quanticsgrids22inherent_discrete_gridNtB2_20InherentDiscreteGrid2rs
FN:81,_RNvMNtCsapfrZ3dQyZf_13quanticsgrids22inherent_discrete_gridNtB2_20InherentDiscreteGrid3len
FN:111,_RNvMNtCsapfrZ3dQyZf_13quanticsgrids22inherent_discrete_gridNtB2_20InherentDiscreteGrid4base
FN:101,_RNvMNtCsapfrZ3dQyZf_13quanticsgrids22inherent_discrete_gridNtB2_20InherentDiscreteGrid4step
FN:76,_RNvMNtCsapfrZ3dQyZf_13quanticsgrids22inherent_discrete_gridNtB2_20InherentDiscreteGrid5ndims
FN:96,_RNvMNtCsapfrZ3dQyZf_13quanticsgrids22inherent_discrete_gridNtB2_20InherentDiscreteGrid6origin
FN:63,_RNvMNtCsapfrZ3dQyZf_13quanticsgrids22inherent_discrete_gridNtB2_20InherentDiscreteGrid7builder
FN:150,_RNvMNtCsapfrZ3dQyZf_13quanticsgrids22inherent_discrete_gridNtB2_20InherentDiscreteGrid8grid_max
FN:145,_RNvMNtCsapfrZ3dQyZf_13quanticsgrids22inherent_discrete_gridNtB2_20InherentDiscreteGrid8grid_min
FN:86,_RNvMNtCsapfrZ3dQyZf_13quanticsgrids22inherent_discrete_gridNtB2_20InherentDiscreteGrid8is_empty
FN:126,_RNvMNtCsapfrZ3dQyZf_13quanticsgrids22inherent_discrete_gridNtB2_20InherentDiscreteGrid8site_dim
FN:474,_RNvMs_NtCsapfrZ3dQyZf_13quanticsgrids22inherent_discrete_gridNtB4_27InherentDiscreteGridBuilder11with_origin
FN:449,_RNvMs_NtCsapfrZ3dQyZf_13quanticsgrids22inherent_discrete_gridNtB4_27InherentDiscreteGridBuilder16from_index_table
FN:486,_RNvMs_NtCsapfrZ3dQyZf_13quanticsgrids22inherent_discrete_gridNtB4_27InherentDiscreteGridBuilder19with_variable_names
FN:498,_RNvMs_NtCsapfrZ3dQyZf_13quanticsgrids22inherent_discrete_gridNtB4_27InherentDiscreteGridBuilder21with_unfolding_scheme
FN:436,_RNvMs_NtCsapfrZ3dQyZf_13quanticsgrids22inherent_discrete_gridNtB4_27InherentDiscreteGridBuilder3new
FN:504,_RNvMs_NtCsapfrZ3dQyZf_13quanticsgrids22inherent_discrete_gridNtB4_27InherentDiscreteGridBuilder5build
FN:492,_RNvMs_NtCsapfrZ3dQyZf_13quanticsgrids22inherent_discrete_gridNtB4_27InherentDiscreteGridBuilder9with_base
FN:480,_RNvMs_NtCsapfrZ3dQyZf_13quanticsgrids22inherent_discrete_gridNtB4_27InherentDiscreteGridBuilder9with_step
FN:600,_RNvNtCsapfrZ3dQyZf_13quanticsgrids22inherent_discrete_grid12rangecheck_r
FN:648,_RNvNtCsapfrZ3dQyZf_13quanticsgrids22inherent_discrete_grid17add_fused_indices
FN:612,_RNvNtCsapfrZ3dQyZf_13quanticsgrids22inherent_discrete_grid17build_index_table
FN:668,_RNvNtCsapfrZ3dQyZf_13quanticsgrids22inherent_discrete_grid18build_lookup_table
FN:634,_RNvNtCsapfrZ3dQyZf_13quanticsgrids22inherent_discrete_grid23add_interleaved_indices
FN:457,_RNCNCNvMs_NtCsapfrZ3dQyZf_13quanticsgrids22inherent_discrete_gridNtB8_27InherentDiscreteGridBuilder16from_index_table00Ba_
FN:534,_RNCNCNvMs_NtCsapfrZ3dQyZf_13quanticsgrids22inherent_discrete_gridNtB8_27InherentDiscreteGridBuilder5builds0_00Ba_
FN:140,_RNCNvMNtCsapfrZ3dQyZf_13quanticsgrids22inherent_discrete_gridNtB4_20InherentDiscreteGrid16local_dimensions0B6_
FN:216,_RNCNvMNtCsapfrZ3dQyZf_13quanticsgrids22inherent_discrete_gridNtB4_20InherentDiscreteGrid20grididx_to_origcoord0B6_
FN:237,_RNCNvMNtCsapfrZ3dQyZf_13quanticsgrids22inherent_discrete_gridNtB4_20InherentDiscreteGrid20origcoord_to_grididx0B6_
FN:339,_RNCNvMNtCsapfrZ3dQyZf_13quanticsgrids22inherent_discrete_gridNtB4_20InherentDiscreteGrid25quantics_to_grididx_base20B6_
FN:358,_RNCNvMNtCsapfrZ3dQyZf_13quanticsgrids22inherent_discrete_gridNtB4_20InherentDiscreteGrid27quantics_to_grididx_general0B6_
FN:155,_RNCNvMNtCsapfrZ3dQyZf_13quanticsgrids22inherent_discrete_gridNtB4_20InherentDiscreteGrid8grid_max0B6_
FN:453,_RNCNvMs_NtCsapfrZ3dQyZf_13quanticsgrids22inherent_discrete_gridNtB6_27InherentDiscreteGridBuilder16from_index_table0B8_
FN:466,_RNCNvMs_NtCsapfrZ3dQyZf_13quanticsgrids22inherent_discrete_gridNtB6_27InherentDiscreteGridBuilder16from_index_tables_0B8_
FN:487,_RNCNvMs_NtCsapfrZ3dQyZf_13quanticsgrids22inherent_discrete_gridNtB6_27InherentDiscreteGridBuilder19with_variable_names0B8_
FN:530,_RNCNvMs_NtCsapfrZ3dQyZf_13quanticsgrids22inherent_discrete_gridNtB6_27InherentDiscreteGridBuilder5build0B8_
FN:534,_RNCNvMs_NtCsapfrZ3dQyZf_13quanticsgrids22inherent_discrete_gridNtB6_27InherentDiscreteGridBuilder5builds0_0B8_
FN:578,_RNCNvMs_NtCsapfrZ3dQyZf_13quanticsgrids22inherent_discrete_gridNtB6_27InherentDiscreteGridBuilder5builds1_0B8_
FN:531,_RNCNvMs_NtCsapfrZ3dQyZf_13quanticsgrids22inherent_discrete_gridNtB6_27InherentDiscreteGridBuilder5builds_0B8_
FN:673,_RNCNvNtCsapfrZ3dQyZf_13quanticsgrids22inherent_discrete_grid18build_lookup_table0B5_
FN:681,_RNCNvNtCsapfrZ3dQyZf_13quanticsgrids22inherent_discrete_grid18build_lookup_tables0_0B5_
FN:683,_RNCNvNtCsapfrZ3dQyZf_13quanticsgrids22inherent_discrete_grid18build_lookup_tables1_0B5_
FN:675,_RNCNvNtCsapfrZ3dQyZf_13quanticsgrids22inherent_discrete_grid18build_lookup_tables_0B5_
FNDA:0,_RNvMNtCsiBPnG2YS1Vp_13quanticsgrids22inherent_discrete_gridNtB2_20InherentDiscreteGrid11index_table
FNDA:0,_RNvMNtCsiBPnG2YS1Vp_13quanticsgrids22inherent_discrete_gridNtB2_20InherentDiscreteGrid21origcoord_to_quantics
FNDA:0,_RNvMNtCsiBPnG2YS1Vp_13quanticsgrids22inherent_discrete_gridNtB2_20InherentDiscreteGrid21quantics_to_origcoord
FNDA:0,_RNvMNtCsiBPnG2YS1Vp_13quanticsgrids22inherent_discrete_gridNtB2_20InherentDiscreteGrid4step
FNDA:0,_RNvMNtCsiBPnG2YS1Vp_13quanticsgrids22inherent_discrete_gridNtB2_20InherentDiscreteGrid6origin
FNDA:0,_RNvMNtCsiBPnG2YS1Vp_13quanticsgrids22inherent_discrete_gridNtB2_20InherentDiscreteGrid8is_empty
FNDA:1,_RNvNtNtCsiBPnG2YS1Vp_13quanticsgrids22inherent_discrete_grid5testss_15test_base3_grid
FNDA:1,_RNvNtNtCsiBPnG2YS1Vp_13quanticsgrids22inherent_discrete_grid5testss_18test_basic_1d_grid
FNDA:1,_RNvNtNtCsiBPnG2YS1Vp_13quanticsgrids22inherent_discrete_grid5testss_18test_basic_2d_grid
FNDA:1,_RNvNtNtCsiBPnG2YS1Vp_13quanticsgrids22inherent_discrete_grid5testss_21test_from_index_table
FNDA:1,_RNvNtNtCsiBPnG2YS1Vp_13quanticsgrids22inherent_discrete_grid5testss_21test_local_dimensions
FNDA:1,_RNvNtNtCsiBPnG2YS1Vp_13quanticsgrids22inherent_discrete_grid5testss_23test_error_invalid_base
FNDA:1,_RNvNtNtCsiBPnG2YS1Vp_13quanticsgrids22inherent_discrete_grid5testss_23test_interleaved_scheme
FNDA:1,_RNvNtNtCsiBPnG2YS1Vp_13quanticsgrids22inherent_discrete_grid5testss_25test_origcoord_conversion
FNDA:1,_RNvNtNtCsiBPnG2YS1Vp_13quanticsgrids22inherent_discrete_grid5testss_26test_all_grididx_roundtrip
FNDA:1,_RNvNtNtCsiBPnG2YS1Vp_13quanticsgrids22inherent_discrete_grid5testss_32test_error_grididx_out_of_bounds
FNDA:1,_RNvNtNtCsiBPnG2YS1Vp_13quanticsgrids22inherent_discrete_grid5testss_32test_error_quantics_out_of_range
FNDA:1,_RNvNtNtCsiBPnG2YS1Vp_13quanticsgrids22inherent_discrete_grid5testss_34test_grididx_to_quantics_roundtrip
FNDA:1,_RNvNtNtCsiBPnG2YS1Vp_13quanticsgrids22inherent_discrete_grid5testss_35test_error_duplicate_variable_names
FNDA:23,_RNvMNtCsiBPnG2YS1Vp_13quanticsgrids22inherent_discrete_gridNtB2_20InherentDiscreteGrid11max_grididx
FNDA:1,_RNvMNtCsiBPnG2YS1Vp_13quanticsgrids22inherent_discrete_gridNtB2_20InherentDiscreteGrid12expand_coord
FNDA:127,_RNvMNtCsiBPnG2YS1Vp_13quanticsgrids22inherent_discrete_gridNtB2_20InherentDiscreteGrid14expand_grididx
FNDA:3,_RNvMNtCsiBPnG2YS1Vp_13quanticsgrids22inherent_discrete_gridNtB2_20InherentDiscreteGrid14variable_names
FNDA:1,_RNvMNtCsiBPnG2YS1Vp_13quanticsgrids22inherent_discrete_gridNtB2_20InherentDiscreteGrid16from_index_table
FNDA:2,_RNvMNtCsiBPnG2YS1Vp_13quanticsgrids22inherent_discrete_gridNtB2_20InherentDiscreteGrid16local_dimensions
FNDA:127,_RNvMNtCsiBPnG2YS1Vp_13quanticsgrids22inherent_discrete_gridNtB2_20InherentDiscreteGrid16validate_grididx
FNDA:125,_RNvMNtCsiBPnG2YS1Vp_13quanticsgrids22inherent_discrete_gridNtB2_20InherentDiscreteGrid17validate_quantics
FNDA:1,_RNvMNtCsiBPnG2YS1Vp_13quanticsgrids22inherent_discrete_gridNtB2_20InherentDiscreteGrid18validate_origcoord
FNDA:125,_RNvMNtCsiBPnG2YS1Vp_13quanticsgrids22inherent_discrete_gridNtB2_20InherentDiscreteGrid19grididx_to_quantics
FNDA:125,_RNvMNtCsiBPnG2YS1Vp_13quanticsgrids22inherent_discrete_gridNtB2_20InherentDiscreteGrid19quantics_to_grididx
FNDA:2,_RNvMNtCsiBPnG2YS1Vp_13quanticsgrids22inherent_discrete_gridNtB2_20InherentDiscreteGrid20grididx_to_origcoord
FNDA:1,_RNvMNtCsiBPnG2YS1Vp_13quanticsgrids22inherent_discrete_gridNtB2_20InherentDiscreteGrid20origcoord_to_grididx
FNDA:115,_RNvMNtCsiBPnG2YS1Vp_13quanticsgrids22inherent_discrete_gridNtB2_20InherentDiscreteGrid25grididx_to_quantics_base2
FNDA:115,_RNvMNtCsiBPnG2YS1Vp_13quanticsgrids22inherent_discrete_gridNtB2_20InherentDiscreteGrid25quantics_to_grididx_base2
FNDA:9,_RNvMNtCsiBPnG2YS1Vp_13quanticsgrids22inherent_discrete_gridNtB2_20InherentDiscreteGrid27grididx_to_quantics_general
FNDA:9,_RNvMNtCsiBPnG2YS1Vp_13quanticsgrids22inherent_discrete_gridNtB2_20InherentDiscreteGrid27quantics_to_grididx_general
FNDA:78,_RNvMNtCsiBPnG2YS1Vp_13quanticsgrids22inherent_discrete_gridNtB2_20InherentDiscreteGrid2rs
FNDA:5,_RNvMNtCsiBPnG2YS1Vp_13quanticsgrids22inherent_discrete_gridNtB2_20InherentDiscreteGrid3len
FNDA:77,_RNvMNtCsiBPnG2YS1Vp_13quanticsgrids22inherent_discrete_gridNtB2_20InherentDiscreteGrid4base
FNDA:60,_RNvMNtCsiBPnG2YS1Vp_13quanticsgrids22inherent_discrete_gridNtB2_20InherentDiscreteGrid5ndims
FNDA:12,_RNvMNtCsiBPnG2YS1Vp_13quanticsgrids22inherent_discrete_gridNtB2_20InherentDiscreteGrid7builder
FNDA:1,_RNvMNtCsiBPnG2YS1Vp_13quanticsgrids22inherent_discrete_gridNtB2_20InherentDiscreteGrid8grid_max
FNDA:1,_RNvMNtCsiBPnG2YS1Vp_13quanticsgrids22inherent_discrete_gridNtB2_20InherentDiscreteGrid8grid_min
FNDA:346,_RNvMNtCsiBPnG2YS1Vp_13quanticsgrids22inherent_discrete_gridNtB2_20InherentDiscreteGrid8site_dim
FNDA:1,_RNvMs_NtCsiBPnG2YS1Vp_13quanticsgrids22inherent_discrete_gridNtB4_27InherentDiscreteGridBuilder11with_origin
FNDA:2,_RNvMs_NtCsiBPnG2YS1Vp_13quanticsgrids22inherent_discrete_gridNtB4_27InherentDiscreteGridBuilder16from_index_table
FNDA:5,_RNvMs_NtCsiBPnG2YS1Vp_13quanticsgrids22inherent_discrete_gridNtB4_27InherentDiscreteGridBuilder19with_variable_names
FNDA:2,_RNvMs_NtCsiBPnG2YS1Vp_13quanticsgrids22inherent_discrete_gridNtB4_27InherentDiscreteGridBuilder21with_unfolding_scheme
FNDA:24,_RNvMs_NtCsiBPnG2YS1Vp_13quanticsgrids22inherent_discrete_gridNtB4_27InherentDiscreteGridBuilder3new
FNDA:26,_RNvMs_NtCsiBPnG2YS1Vp_13quanticsgrids22inherent_discrete_gridNtB4_27InherentDiscreteGridBuilder5build
FNDA:2,_RNvMs_NtCsiBPnG2YS1Vp_13quanticsgrids22inherent_discrete_gridNtB4_27InherentDiscreteGridBuilder9with_base
FNDA:1,_RNvMs_NtCsiBPnG2YS1Vp_13quanticsgrids22inherent_discrete_gridNtB4_27InherentDiscreteGridBuilder9with_step
FNDA:36,_RNvNtCsiBPnG2YS1Vp_13quanticsgrids22inherent_discrete_grid12rangecheck_r
FNDA:51,_RNvNtCsiBPnG2YS1Vp_13quanticsgrids22inherent_discrete_grid17add_fused_indices
FNDA:22,_RNvNtCsiBPnG2YS1Vp_13quanticsgrids22inherent_discrete_grid17build_index_table
FNDA:24,_RNvNtCsiBPnG2YS1Vp_13quanticsgrids22inherent_discrete_grid18build_lookup_table
FNDA:2,_RNvNtCsiBPnG2YS1Vp_13quanticsgrids22inherent_discrete_grid23add_interleaved_indices
FNDA:20,_RNCNCNvMs_NtCsiBPnG2YS1Vp_13quanticsgrids22inherent_discrete_gridNtB8_27InherentDiscreteGridBuilder16from_index_table00Ba_
FNDA:22,_RNCNCNvMs_NtCsiBPnG2YS1Vp_13quanticsgrids22inherent_discrete_gridNtB8_27InherentDiscreteGridBuilder5builds0_00Ba_
FNDA:6,_RNCNvMNtCsiBPnG2YS1Vp_13quanticsgrids22inherent_discrete_gridNtB4_20InherentDiscreteGrid16local_dimensions0B6_
FNDA:2,_RNCNvMNtCsiBPnG2YS1Vp_13quanticsgrids22inherent_discrete_gridNtB4_20InherentDiscreteGrid20grididx_to_origcoord0B6_
FNDA:1,_RNCNvMNtCsiBPnG2YS1Vp_13quanticsgrids22inherent_discrete_gridNtB4_20InherentDiscreteGrid20origcoord_to_grididx0B6_
FNDA:228,_RNCNvMNtCsiBPnG2YS1Vp_13quanticsgrids22inherent_discrete_gridNtB4_20InherentDiscreteGrid25quantics_to_grididx_base20B6_
FNDA:9,_RNCNvMNtCsiBPnG2YS1Vp_13quanticsgrids22inherent_discrete_gridNtB4_20InherentDiscreteGrid27quantics_to_grididx_general0B6_
FNDA:1,_RNCNvMNtCsiBPnG2YS1Vp_13quanticsgrids22inherent_discrete_gridNtB4_20InherentDiscreteGrid8grid_max0B6_
FNDA:4,_RNCNvMs_NtCsiBPnG2YS1Vp_13quanticsgrids22inherent_discrete_gridNtB6_27InherentDiscreteGridBuilder16from_index_table0B8_
FNDA:4,_RNCNvMs_NtCsiBPnG2YS1Vp_13quanticsgrids22inherent_discrete_gridNtB6_27InherentDiscreteGridBuilder16from_index_tables_0B8_
FNDA:10,_RNCNvMs_NtCsiBPnG2YS1Vp_13quanticsgrids22inherent_discrete_gridNtB6_27InherentDiscreteGridBuilder19with_variable_names0B8_
FNDA:24,_RNCNvMs_NtCsiBPnG2YS1Vp_13quanticsgrids22inherent_discrete_gridNtB6_27InherentDiscreteGridBuilder5build0B8_
FNDA:18,_RNCNvMs_NtCsiBPnG2YS1Vp_13quanticsgrids22inherent_discrete_gridNtB6_27InherentDiscreteGridBuilder5builds0_0B8_
FNDA:34,_RNCNvMs_NtCsiBPnG2YS1Vp_13quanticsgrids22inherent_discrete_gridNtB6_27InherentDiscreteGridBuilder5builds1_0B8_
FNDA:24,_RNCNvMs_NtCsiBPnG2YS1Vp_13quanticsgrids22inherent_discrete_gridNtB6_27InherentDiscreteGridBuilder5builds_0B8_
FNDA:34,_RNCNvNtCsiBPnG2YS1Vp_13quanticsgrids22inherent_discrete_grid18build_lookup_table0B5_
FNDA:99,_RNCNvNtCsiBPnG2YS1Vp_13quanticsgrids22inherent_discrete_grid18build_lookup_tables0_0B5_
FNDA:0,_RNCNvNtCsiBPnG2YS1Vp_13quanticsgrids22inherent_discrete_grid18build_lookup_tables1_0B5_
FNDA:34,_RNCNvNtCsiBPnG2YS1Vp_13quanticsgrids22inherent_discrete_grid18build_lookup_tables_0B5_
FNDA:0,_RNvMNtCsapfrZ3dQyZf_13quanticsgrids22inherent_discrete_gridNtB2_20InherentDiscreteGrid11index_table
FNDA:0,_RNvMNtCsapfrZ3dQyZf_13quanticsgrids22inherent_discrete_gridNtB2_20InherentDiscreteGrid11max_grididx
FNDA:0,_RNvMNtCsapfrZ3dQyZf_13quanticsgrids22inherent_discrete_gridNtB2_20InherentDiscreteGrid12expand_coord
FNDA:3,_RNvMNtCsapfrZ3dQyZf_13quanticsgrids22inherent_discrete_gridNtB2_20InherentDiscreteGrid14expand_grididx
FNDA:0,_RNvMNtCsapfrZ3dQyZf_13quanticsgrids22inherent_discrete_gridNtB2_20InherentDiscreteGrid14variable_names
FNDA:0,_RNvMNtCsapfrZ3dQyZf_13quanticsgrids22inherent_discrete_gridNtB2_20InherentDiscreteGrid16from_index_table
FNDA:2,_RNvMNtCsapfrZ3dQyZf_13quanticsgrids22inherent_discrete_gridNtB2_20InherentDiscreteGrid16local_dimensions
FNDA:3,_RNvMNtCsapfrZ3dQyZf_13quanticsgrids22inherent_discrete_gridNtB2_20InherentDiscreteGrid16validate_grididx
FNDA:32,_RNvMNtCsapfrZ3dQyZf_13quanticsgrids22inherent_discrete_gridNtB2_20InherentDiscreteGrid17validate_quantics
FNDA:0,_RNvMNtCsapfrZ3dQyZf_13quanticsgrids22inherent_discrete_gridNtB2_20InherentDiscreteGrid18validate_origcoord
FNDA:3,_RNvMNtCsapfrZ3dQyZf_13quanticsgrids22inherent_discrete_gridNtB2_20InherentDiscreteGrid19grididx_to_quantics
FNDA:32,_RNvMNtCsapfrZ3dQyZf_13quanticsgrids22inherent_discrete_gridNtB2_20InherentDiscreteGrid19quantics_to_grididx
FNDA:0,_RNvMNtCsapfrZ3dQyZf_13quanticsgrids22inherent_discrete_gridNtB2_20InherentDiscreteGrid20grididx_to_origcoord
FNDA:0,_RNvMNtCsapfrZ3dQyZf_13quanticsgrids22inherent_discrete_gridNtB2_20InherentDiscreteGrid20origcoord_to_grididx
FNDA:0,_RNvMNtCsapfrZ3dQyZf_13quanticsgrids22inherent_discrete_gridNtB2_20InherentDiscreteGrid21origcoord_to_quantics
FNDA:0,_RNvMNtCsapfrZ3dQyZf_13quanticsgrids22inherent_discrete_gridNtB2_20InherentDiscreteGrid21quantics_to_origcoord
FNDA:3,_RNvMNtCsapfrZ3dQyZf_13quanticsgrids22inherent_discrete_gridNtB2_20InherentDiscreteGrid25grididx_to_quantics_base2
FNDA:32,_RNvMNtCsapfrZ3dQyZf_13quanticsgrids22inherent_discrete_gridNtB2_20InherentDiscreteGrid25quantics_to_grididx_base2
FNDA:0,_RNvMNtCsapfrZ3dQyZf_13quanticsgrids22inherent_discrete_gridNtB2_20InherentDiscreteGrid27grididx_to_quantics_general
FNDA:0,_RNvMNtCsapfrZ3dQyZf_13quanticsgrids22inherent_discrete_gridNtB2_20InherentDiscreteGrid27quantics_to_grididx_general
FNDA:0,_RNvMNtCsapfrZ3dQyZf_13quanticsgrids22inherent_discrete_gridNtB2_20InherentDiscreteGrid2rs
FNDA:0,_RNvMNtCsapfrZ3dQyZf_13quanticsgrids22inherent_discrete_gridNtB2_20InherentDiscreteGrid3len
FNDA:0,_RNvMNtCsapfrZ3dQyZf_13quanticsgrids22inherent_discrete_gridNtB2_20InherentDiscreteGrid4base
FNDA:0,_RNvMNtCsapfrZ3dQyZf_13quanticsgrids22inherent_discrete_gridNtB2_20InherentDiscreteGrid4step
FNDA:0,_RNvMNtCsapfrZ3dQyZf_13quanticsgrids22inherent_discrete_gridNtB2_20InherentDiscreteGrid5ndims
FNDA:0,_RNvMNtCsapfrZ3dQyZf_13quanticsgrids22inherent_discrete_gridNtB2_20InherentDiscreteGrid6origin
FNDA:2,_RNvMNtCsapfrZ3dQyZf_13quanticsgrids22inherent_discrete_gridNtB2_20InherentDiscreteGrid7builder
FNDA:0,_RNvMNtCsapfrZ3dQyZf_13quanticsgrids22inherent_discrete_gridNtB2_20InherentDiscreteGrid8grid_max
FNDA:0,_RNvMNtCsapfrZ3dQyZf_13quanticsgrids22inherent_discrete_gridNtB2_20InherentDiscreteGrid8grid_min
FNDA:0,_RNvMNtCsapfrZ3dQyZf_13quanticsgrids22inherent_discrete_gridNtB2_20InherentDiscreteGrid8is_empty
FNDA:64,_RNvMNtCsapfrZ3dQyZf_13quanticsgrids22inherent_discrete_gridNtB2_20InherentDiscreteGrid8site_dim
FNDA:0,_RNvMs_NtCsapfrZ3dQyZf_13quanticsgrids22inherent_discrete_gridNtB4_27InherentDiscreteGridBuilder11with_origin
FNDA:0,_RNvMs_NtCsapfrZ3dQyZf_13quanticsgrids22inherent_discrete_gridNtB4_27InherentDiscreteGridBuilder16from_index_table
FNDA:0,_RNvMs_NtCsapfrZ3dQyZf_13quanticsgrids22inherent_discrete_gridNtB4_27InherentDiscreteGridBuilder19with_variable_names
FNDA:2,_RNvMs_NtCsapfrZ3dQyZf_13quanticsgrids22inherent_discrete_gridNtB4_27InherentDiscreteGridBuilder21with_unfolding_scheme
FNDA:2,_RNvMs_NtCsapfrZ3dQyZf_13quanticsgrids22inherent_discrete_gridNtB4_27InherentDiscreteGridBuilder3new
FNDA:2,_RNvMs_NtCsapfrZ3dQyZf_13quanticsgrids22inherent_discrete_gridNtB4_27InherentDiscreteGridBuilder5build
FNDA:0,_RNvMs_NtCsapfrZ3dQyZf_13quanticsgrids22inherent_discrete_gridNtB4_27InherentDiscreteGridBuilder9with_base
FNDA:0,_RNvMs_NtCsapfrZ3dQyZf_13quanticsgrids22inherent_discrete_gridNtB4_27InherentDiscreteGridBuilder9with_step
FNDA:4,_RNvNtCsapfrZ3dQyZf_13quanticsgrids22inherent_discrete_grid12rangecheck_r
FNDA:4,_RNvNtCsapfrZ3dQyZf_13quanticsgrids22inherent_discrete_grid17add_fused_indices
FNDA:2,_RNvNtCsapfrZ3dQyZf_13quanticsgrids22inherent_discrete_grid17build_index_table
FNDA:2,_RNvNtCsapfrZ3dQyZf_13quanticsgrids22inherent_discrete_grid18build_lookup_table
FNDA:0,_RNvNtCsapfrZ3dQyZf_13quanticsgrids22inherent_discrete_grid23add_interleaved_indices
FNDA:0,_RNCNCNvMs_NtCsapfrZ3dQyZf_13quanticsgrids22inherent_discrete_gridNtB8_27InherentDiscreteGridBuilder16from_index_table00Ba_
FNDA:4,_RNCNCNvMs_NtCsapfrZ3dQyZf_13quanticsgrids22inherent_discrete_gridNtB8_27InherentDiscreteGridBuilder5builds0_00Ba_
FNDA:4,_RNCNvMNtCsapfrZ3dQyZf_13quanticsgrids22inherent_discrete_gridNtB4_20InherentDiscreteGrid16local_dimensions0B6_
FNDA:0,_RNCNvMNtCsapfrZ3dQyZf_13quanticsgrids22inherent_discrete_gridNtB4_20InherentDiscreteGrid20grididx_to_origcoord0B6_
FNDA:0,_RNCNvMNtCsapfrZ3dQyZf_13quanticsgrids22inherent_discrete_gridNtB4_20InherentDiscreteGrid20origcoord_to_grididx0B6_
FNDA:64,_RNCNvMNtCsapfrZ3dQyZf_13quanticsgrids22inherent_discrete_gridNtB4_20InherentDiscreteGrid25quantics_to_grididx_base20B6_
FNDA:0,_RNCNvMNtCsapfrZ3dQyZf_13quanticsgrids22inherent_discrete_gridNtB4_20InherentDiscreteGrid27quantics_to_grididx_general0B6_
FNDA:0,_RNCNvMNtCsapfrZ3dQyZf_13quanticsgrids22inherent_discrete_gridNtB4_20InherentDiscreteGrid8grid_max0B6_
FNDA:0,_RNCNvMs_NtCsapfrZ3dQyZf_13quanticsgrids22inherent_discrete_gridNtB6_27InherentDiscreteGridBuilder16from_index_table0B8_
FNDA:0,_RNCNvMs_NtCsapfrZ3dQyZf_13quanticsgrids22inherent_discrete_gridNtB6_27InherentDiscreteGridBuilder16from_index_tables_0B8_
FNDA:0,_RNCNvMs_NtCsapfrZ3dQyZf_13quanticsgrids22inherent_discrete_gridNtB6_27InherentDiscreteGridBuilder19with_variable_names0B8_
FNDA:2,_RNCNvMs_NtCsapfrZ3dQyZf_13quanticsgrids22inherent_discrete_gridNtB6_27InherentDiscreteGridBuilder5build0B8_
FNDA:2,_RNCNvMs_NtCsapfrZ3dQyZf_13quanticsgrids22inherent_discrete_gridNtB6_27InherentDiscreteGridBuilder5builds0_0B8_
FNDA:4,_RNCNvMs_NtCsapfrZ3dQyZf_13quanticsgrids22inherent_discrete_gridNtB6_27InherentDiscreteGridBuilder5builds1_0B8_
FNDA:2,_RNCNvMs_NtCsapfrZ3dQyZf_13quanticsgrids22inherent_discrete_gridNtB6_27InherentDiscreteGridBuilder5builds_0B8_
FNDA:4,_RNCNvNtCsapfrZ3dQyZf_13quanticsgrids22inherent_discrete_grid18build_lookup_table0B5_
FNDA:12,_RNCNvNtCsapfrZ3dQyZf_13quanticsgrids22inherent_discrete_grid18build_lookup_tables0_0B5_
FNDA:0,_RNCNvNtCsapfrZ3dQyZf_13quanticsgrids22inherent_discrete_grid18build_lookup_tables1_0B5_
FNDA:4,_RNCNvNtCsapfrZ3dQyZf_13quanticsgrids22inherent_discrete_grid18build_lookup_tables_0B5_
FNF:76
FNH:69
DA:63,14
DA:64,14
DA:65,14
DA:68,1
DA:69,1
DA:70,1
DA:71,1
DA:72,1
DA:73,1
DA:76,60
DA:77,60
DA:78,60
DA:81,5
DA:82,5
DA:83,5
DA:86,0
DA:87,0
DA:88,0
DA:91,78
DA:92,78
DA:93,78
DA:96,0
DA:97,0
DA:98,0
DA:101,0
DA:102,0
DA:103,0
DA:106,3
DA:107,3
DA:108,3
DA:111,77
DA:112,77
DA:113,77
DA:116,0
DA:117,0
DA:118,0
DA:121,23
DA:122,23
DA:123,23
DA:126,410
DA:127,410
DA:128,0
DA:129,0
DA:130,0
DA:131,0
DA:132,410
DA:133,410
DA:134,410
DA:137,4
DA:138,4
DA:139,4
DA:140,10
DA:141,4
DA:142,4
DA:145,1
DA:146,1
DA:147,1
DA:150,1
DA:151,1
DA:152,1
DA:153,1
DA:154,1
DA:155,1
DA:156,1
DA:157,1
DA:170,157
DA:171,157
DA:173,156
DA:174,147
DA:176,9
DA:178,157
DA:187,128
DA:188,128
DA:189,128
DA:191,127
DA:192,127
DA:193,118
DA:194,118
DA:195,9
DA:196,9
DA:197,127
DA:198,128
DA:207,2
DA:208,2
DA:209,2
DA:211,2
DA:212,2
DA:213,2
DA:214,2
DA:215,2
DA:216,2
DA:217,2
DA:218,2
DA:227,1
DA:228,1
DA:229,1
DA:231,1
DA:232,1
DA:233,1
DA:234,1
DA:235,1
DA:236,1
DA:237,1
DA:238,1
DA:240,1
DA:241,1
DA:244,0
DA:245,0
DA:246,0
DA:247,0
DA:250,0
DA:251,0
DA:252,0
DA:253,0
DA:259,157
DA:260,157
DA:261,0
DA:262,0
DA:263,0
DA:264,0
DA:265,157
DA:267,410
DA:268,410
DA:269,410
DA:270,1
DA:271,1
DA:272,1
DA:273,1
DA:274,1
DA:275,409
DA:278,156
DA:279,157
DA:281,130
DA:282,246
DA:283,246
DA:284,1
DA:285,1
DA:286,1
DA:287,1
DA:288,1
DA:289,245
DA:291,129
DA:292,130
DA:294,1
DA:295,1
DA:296,1
DA:297,1
DA:298,1
DA:299,0
DA:300,0
DA:301,0
DA:302,0
DA:303,0
DA:304,0
DA:305,1
DA:307,1
DA:308,1
DA:311,130
DA:312,130
DA:313,0
DA:314,130
DA:315,130
DA:317,0
DA:318,0
DA:319,0
DA:320,0
DA:322,130
DA:324,1
DA:325,1
DA:326,0
DA:327,1
DA:328,1
DA:330,0
DA:331,0
DA:332,0
DA:333,0
DA:335,1
DA:337,147
DA:338,147
DA:339,292
DA:340,292
DA:341,292
DA:343,649
DA:344,649
DA:345,649
DA:346,649
DA:347,649
DA:348,649
DA:349,292
DA:350,292
DA:351,147
DA:352,147
DA:354,9
DA:355,9
DA:357,9
DA:358,9
DA:359,9
DA:360,9
DA:362,18
DA:363,18
DA:364,18
DA:366,18
DA:367,18
DA:368,0
DA:369,0
DA:370,18
DA:372,18
DA:374,9
DA:375,9
DA:376,9
DA:377,9
DA:379,118
DA:380,234
DA:381,118
DA:382,118
DA:383,118
DA:385,234
DA:387,533
DA:388,533
DA:389,533
DA:390,533
DA:391,533
DA:392,533
DA:393,533
DA:394,533
DA:395,533
DA:397,118
DA:399,9
DA:400,9
DA:402,9
DA:403,9
DA:404,9
DA:405,9
DA:407,9
DA:409,18
DA:410,18
DA:411,18
DA:412,18
DA:413,18
DA:414,18
DA:415,18
DA:416,18
DA:417,18
DA:419,9
DA:436,26
DA:437,26
DA:438,26
DA:439,26
DA:440,26
DA:441,26
DA:442,26
DA:443,26
DA:444,26
DA:445,26
DA:446,26
DA:449,2
DA:451,2
DA:452,2
DA:453,4
DA:454,4
DA:455,4
DA:456,4
DA:457,20
DA:458,4
DA:459,4
DA:460,2
DA:463,2
DA:464,2
DA:465,2
DA:466,4
DA:468,2
DA:469,2
DA:471,2
DA:474,1
DA:475,1
DA:476,1
DA:477,1
DA:480,1
DA:481,1
DA:482,1
DA:483,1
DA:486,5
DA:487,10
DA:488,5
DA:489,5
DA:492,2
DA:493,2
DA:494,2
DA:495,2
DA:498,4
DA:499,4
DA:500,4
DA:501,4
DA:504,28
DA:505,28
DA:506,28
DA:507,0
DA:508,28
DA:510,28
DA:511,1
DA:512,27
DA:515,40
DA:516,40
DA:517,0
DA:518,40
DA:519,40
DA:520,1
DA:521,0
DA:522,0
DA:523,0
DA:524,0
DA:525,1
DA:526,39
DA:530,27
DA:531,27
DA:532,27
DA:533,27
DA:534,27
DA:537,27
DA:538,0
DA:539,0
DA:540,0
DA:541,0
DA:542,27
DA:543,27
DA:544,0
DA:545,0
DA:546,0
DA:547,0
DA:548,27
DA:549,27
DA:550,0
DA:551,0
DA:552,0
DA:553,0
DA:554,27
DA:557,39
DA:558,39
DA:559,13
DA:560,1
DA:561,12
DA:566,26
DA:567,2
DA:568,24
DA:572,26
DA:575,26
DA:576,26
DA:577,26
DA:578,38
DA:579,26
DA:581,26
DA:582,26
DA:583,26
DA:584,26
DA:585,26
DA:586,26
DA:587,26
DA:588,26
DA:589,26
DA:590,26
DA:591,26
DA:592,28
DA:600,40
DA:601,40
DA:602,40
DA:603,91
DA:604,0
DA:605,91
DA:606,91
DA:608,40
DA:609,40
DA:612,24
DA:613,24
DA:614,24
DA:615,24
DA:616,24
DA:617,24
DA:618,24
DA:620,57
DA:621,57
DA:622,2
DA:623,2
DA:624,2
DA:625,55
DA:626,55
DA:627,55
DA:631,24
DA:632,24
DA:634,2
DA:635,2
DA:636,2
DA:637,2
DA:638,2
DA:639,2
DA:640,4
DA:641,4
DA:642,4
DA:643,4
DA:644,4
DA:646,2
DA:648,55
DA:649,55
DA:650,55
DA:651,55
DA:652,55
DA:653,55
DA:654,55
DA:656,78
DA:657,78
DA:658,73
DA:659,73
DA:660,73
DA:662,55
DA:663,55
DA:664,55
DA:665,55
DA:668,26
DA:669,26
DA:670,26
DA:671,26
DA:672,26
DA:673,38
DA:675,38
DA:677,65
DA:678,87
DA:679,87
DA:680,87
DA:681,111
DA:682,87
DA:683,0
DA:684,0
DA:685,0
DA:688,87
DA:690,87
DA:691,0
DA:692,0
DA:693,0
DA:694,0
DA:695,0
DA:696,87
DA:698,87
DA:699,0
DA:700,0
DA:701,0
DA:702,0
DA:703,87
DA:705,87
DA:706,87
DA:711,38
DA:712,87
DA:713,87
DA:714,0
DA:715,0
DA:716,0
DA:717,0
DA:718,87
DA:722,26
DA:723,26
DA:730,1
DA:731,1
DA:732,1
DA:733,1
DA:734,1
DA:735,1
DA:736,1
DA:737,1
DA:740,1
DA:741,1
DA:742,1
DA:743,1
DA:744,1
DA:746,1
DA:747,1
DA:748,1
DA:749,1
DA:752,1
DA:753,1
DA:754,1
DA:755,1
DA:756,1
DA:758,1
DA:759,1
DA:760,1
DA:761,1
DA:762,1
DA:765,1
DA:766,1
DA:768,5
DA:769,20
DA:770,16
DA:771,16
DA:772,16
DA:773,16
DA:776,1
DA:779,1
DA:780,1
DA:781,1
DA:782,1
DA:783,1
DA:786,1
DA:787,5
DA:788,20
DA:789,16
DA:790,16
DA:791,16
DA:792,16
DA:795,1
DA:798,1
DA:799,1
DA:800,1
DA:801,1
DA:802,1
DA:804,1
DA:805,1
DA:807,10
DA:808,9
DA:809,9
DA:810,9
DA:811,9
DA:813,1
DA:816,1
DA:817,1
DA:818,1
DA:819,1
DA:820,1
DA:821,1
DA:826,1
DA:827,1
DA:829,1
DA:830,1
DA:832,1
DA:833,1
DA:834,1
DA:837,1
DA:838,1
DA:839,1
DA:840,1
DA:843,1
DA:844,1
DA:845,1
DA:846,1
DA:847,1
DA:848,1
DA:851,1
DA:854,1
DA:855,1
DA:858,1
DA:859,1
DA:860,1
DA:863,1
DA:866,1
DA:867,1
DA:868,1
DA:869,1
DA:870,1
DA:873,1
DA:876,1
DA:877,1
DA:878,1
DA:879,1
DA:880,1
DA:882,1
DA:887,1
DA:888,1
DA:891,1
DA:893,1
DA:894,1
DA:895,1
DA:896,1
DA:899,1
DA:900,1
DA:901,1
DA:903,1
DA:904,1
DA:905,1
DA:908,9
DA:909,40
DA:910,32
DA:911,32
DA:912,32
DA:913,32
DA:916,1
BRF:0
BRH:0
LF:601
LH:519
end_of_record
SF:/Users/ken/git_for_collab4/tensor4all-rs/crates/quanticsgrids/src/lib.rs
FN:170,_RNvNtCsiBPnG2YS1Vp_13quanticsgrids5testss_29test_unfolding_scheme_default
FNDA:1,_RNvNtCsiBPnG2YS1Vp_13quanticsgrids5testss_29test_unfolding_scheme_default
FNF:1
FNH:1
DA:170,1
DA:171,1
DA:172,1
BRF:0
BRH:0
LF:3
LH:3
end_of_record
SF:/Users/ken/git_for_collab4/tensor4all-rs/crates/tensor4all-capi/src/algorithm.rs
FN:189,t4a_compression_algorithm_default
FN:147,t4a_compression_algorithm_from_i32
FN:287,t4a_compression_algorithm_from_name
FN:177,t4a_compression_algorithm_name
FN:128,t4a_contraction_algorithm_default
FN:88,t4a_contraction_algorithm_from_i32
FN:248,t4a_contraction_algorithm_from_name
FN:117,t4a_contraction_algorithm_name
FN:69,t4a_factorize_algorithm_default
FN:27,t4a_factorize_algorithm_from_i32
FN:208,t4a_factorize_algorithm_from_name
FN:57,t4a_factorize_algorithm_name
FNDA:0,t4a_compression_algorithm_default
FNDA:0,t4a_compression_algorithm_from_i32
FNDA:0,t4a_compression_algorithm_from_name
FNDA:0,t4a_compression_algorithm_name
FNDA:0,t4a_contraction_algorithm_default
FNDA:0,t4a_contraction_algorithm_from_i32
FNDA:0,t4a_contraction_algorithm_from_name
FNDA:0,t4a_contraction_algorithm_name
FNDA:0,t4a_factorize_algorithm_default
FNDA:0,t4a_factorize_algorithm_from_i32
FNDA:0,t4a_factorize_algorithm_from_name
FNDA:0,t4a_factorize_algorithm_name
FNF:12
FNH:0
DA:27,0
DA:28,0
DA:29,0
DA:30,0
DA:31,0
DA:32,0
DA:33,0
DA:35,0
DA:36,0
DA:37,0
DA:38,0
DA:39,0
DA:40,0
DA:43,0
DA:44,0
DA:45,0
DA:46,0
DA:47,0
DA:57,0
DA:58,0
DA:59,0
DA:60,0
DA:61,0
DA:62,0
DA:64,0
DA:65,0
DA:69,0
DA:70,0
DA:71,0
DA:88,0
DA:89,0
DA:90,0
DA:91,0
DA:92,0
DA:93,0
DA:94,0
DA:96,0
DA:97,0
DA:98,0
DA:99,0
DA:100,0
DA:103,0
DA:104,0
DA:105,0
DA:106,0
DA:107,0
DA:117,0
DA:118,0
DA:119,0
DA:120,0
DA:121,0
DA:123,0
DA:124,0
DA:128,0
DA:129,0
DA:130,0
DA:147,0
DA:148,0
DA:149,0
DA:150,0
DA:151,0
DA:152,0
DA:153,0
DA:155,0
DA:156,0
DA:157,0
DA:158,0
DA:159,0
DA:160,0
DA:163,0
DA:164,0
DA:165,0
DA:166,0
DA:167,0
DA:177,0
DA:178,0
DA:179,0
DA:180,0
DA:181,0
DA:182,0
DA:184,0
DA:185,0
DA:189,0
DA:190,0
DA:191,0
DA:208,0
DA:209,0
DA:210,0
DA:211,0
DA:212,0
DA:213,0
DA:214,0
DA:216,0
DA:217,0
DA:218,0
DA:219,0
DA:223,0
DA:224,0
DA:225,0
DA:226,0
DA:227,0
DA:228,0
DA:231,0
DA:232,0
DA:233,0
DA:234,0
DA:235,0
DA:248,0
DA:249,0
DA:250,0
DA:251,0
DA:252,0
DA:253,0
DA:254,0
DA:256,0
DA:257,0
DA:258,0
DA:259,0
DA:263,0
DA:264,0
DA:265,0
DA:266,0
DA:267,0
DA:270,0
DA:271,0
DA:272,0
DA:273,0
DA:274,0
DA:287,0
DA:288,0
DA:289,0
DA:290,0
DA:291,0
DA:292,0
DA:293,0
DA:295,0
DA:296,0
DA:297,0
DA:298,0
DA:302,0
DA:303,0
DA:304,0
DA:305,0
DA:306,0
DA:307,0
DA:310,0
DA:311,0
DA:312,0
DA:313,0
DA:314,0
BRF:0
BRH:0
LF:150
LH:0
end_of_record
SF:/Users/ken/git_for_collab4/tensor4all-rs/crates/tensor4all-capi/src/index.rs
FN:424,_RNvNtNtCsdnTG4X9gKe5_15tensor4all_capi5index5testss_13test_index_id
FN:362,_RNvNtNtCsdnTG4X9gKe5_15tensor4all_capi5index5testss_14test_index_new
FN:440,_RNvNtNtCsdnTG4X9gKe5_15tensor4all_capi5index5testss_16test_index_clone
FN:400,_RNvNtNtCsdnTG4X9gKe5_15tensor4all_capi5index5testss_19test_index_get_tags
FN:381,_RNvNtNtCsdnTG4X9gKe5_15tensor4all_capi5index5testss_20test_index_with_tags
FN:467,_RNvNtNtCsdnTG4X9gKe5_15tensor4all_capi5index5testss_22test_index_new_with_id
FN:375,_RNvNtNtCsdnTG4X9gKe5_15tensor4all_capi5index5testss_23test_index_new_zero_dim
FN:248,t4a_index_add_tag
FN:138,t4a_index_dim
FN:196,t4a_index_get_tags
FN:328,t4a_index_has_tag
FN:162,t4a_index_id_u128
FN:29,t4a_index_new
FN:89,t4a_index_new_with_id
FN:51,t4a_index_new_with_tags
FN:285,t4a_index_set_tags_csv
FN:211,_RNCNCNvNtCsdnTG4X9gKe5_15tensor4all_capi5index18t4a_index_get_tags00B7_
FN:144,_RNCNvNtCsdnTG4X9gKe5_15tensor4all_capi5index13t4a_index_dim0B5_
FN:34,_RNCNvNtCsdnTG4X9gKe5_15tensor4all_capi5index13t4a_index_new0B5_
FN:256,_RNCNvNtCsdnTG4X9gKe5_15tensor4all_capi5index17t4a_index_add_tag0B5_
FN:334,_RNCNvNtCsdnTG4X9gKe5_15tensor4all_capi5index17t4a_index_has_tag0B5_
FN:172,_RNCNvNtCsdnTG4X9gKe5_15tensor4all_capi5index17t4a_index_id_u1280B5_
FN:207,_RNCNvNtCsdnTG4X9gKe5_15tensor4all_capi5index18t4a_index_get_tags0B5_
FN:99,_RNCNvNtCsdnTG4X9gKe5_15tensor4all_capi5index21t4a_index_new_with_id0B5_
FN:296,_RNCNvNtCsdnTG4X9gKe5_15tensor4all_capi5index22t4a_index_set_tags_csv0B5_
FN:56,_RNCNvNtCsdnTG4X9gKe5_15tensor4all_capi5index23t4a_index_new_with_tags0B5_
FNDA:1,_RNvNtNtCsdnTG4X9gKe5_15tensor4all_capi5index5testss_13test_index_id
FNDA:1,_RNvNtNtCsdnTG4X9gKe5_15tensor4all_capi5index5testss_14test_index_new
FNDA:1,_RNvNtNtCsdnTG4X9gKe5_15tensor4all_capi5index5testss_16test_index_clone
FNDA:1,_RNvNtNtCsdnTG4X9gKe5_15tensor4all_capi5index5testss_19test_index_get_tags
FNDA:1,_RNvNtNtCsdnTG4X9gKe5_15tensor4all_capi5index5testss_20test_index_with_tags
FNDA:1,_RNvNtNtCsdnTG4X9gKe5_15tensor4all_capi5index5testss_22test_index_new_with_id
FNDA:1,_RNvNtNtCsdnTG4X9gKe5_15tensor4all_capi5index5testss_23test_index_new_zero_dim
FNDA:0,t4a_index_add_tag
FNDA:6,t4a_index_dim
FNDA:2,t4a_index_get_tags
FNDA:3,t4a_index_has_tag
FNDA:4,t4a_index_id_u128
FNDA:14,t4a_index_new
FNDA:1,t4a_index_new_with_id
FNDA:2,t4a_index_new_with_tags
FNDA:0,t4a_index_set_tags_csv
FNDA:4,_RNCNCNvNtCsdnTG4X9gKe5_15tensor4all_capi5index18t4a_index_get_tags00B7_
FNDA:6,_RNCNvNtCsdnTG4X9gKe5_15tensor4all_capi5index13t4a_index_dim0B5_
FNDA:13,_RNCNvNtCsdnTG4X9gKe5_15tensor4all_capi5index13t4a_index_new0B5_
FNDA:0,_RNCNvNtCsdnTG4X9gKe5_15tensor4all_capi5index17t4a_index_add_tag0B5_
FNDA:3,_RNCNvNtCsdnTG4X9gKe5_15tensor4all_capi5index17t4a_index_has_tag0B5_
FNDA:4,_RNCNvNtCsdnTG4X9gKe5_15tensor4all_capi5index17t4a_index_id_u1280B5_
FNDA:2,_RNCNvNtCsdnTG4X9gKe5_15tensor4all_capi5index18t4a_index_get_tags0B5_
FNDA:1,_RNCNvNtCsdnTG4X9gKe5_15tensor4all_capi5index21t4a_index_new_with_id0B5_
FNDA:0,_RNCNvNtCsdnTG4X9gKe5_15tensor4all_capi5index22t4a_index_set_tags_csv0B5_
FNDA:2,_RNCNvNtCsdnTG4X9gKe5_15tensor4all_capi5index23t4a_index_new_with_tags0B5_
FNF:26
FNH:22
DA:29,14
DA:30,14
DA:31,1
DA:32,13
DA:34,13
DA:35,13
DA:36,13
DA:37,13
DA:39,13
DA:40,14
DA:51,2
DA:52,2
DA:53,0
DA:54,2
DA:56,2
DA:57,2
DA:58,0
DA:59,0
DA:60,2
DA:62,2
DA:63,2
DA:64,2
DA:65,0
DA:69,2
DA:70,2
DA:71,0
DA:73,2
DA:75,2
DA:76,2
DA:89,1
DA:90,1
DA:91,1
DA:92,1
DA:93,1
DA:94,1
DA:95,1
DA:96,0
DA:97,1
DA:99,1
DA:102,1
DA:104,1
DA:105,0
DA:107,1
DA:108,1
DA:109,1
DA:110,0
DA:112,1
DA:113,1
DA:114,0
DA:118,1
DA:119,1
DA:120,1
DA:122,1
DA:123,1
DA:138,6
DA:139,6
DA:140,0
DA:141,6
DA:143,6
DA:144,6
DA:145,6
DA:146,6
DA:147,6
DA:149,6
DA:150,6
DA:162,4
DA:163,4
DA:164,4
DA:165,4
DA:166,4
DA:167,4
DA:168,0
DA:169,4
DA:171,4
DA:172,4
DA:173,4
DA:174,4
DA:175,4
DA:176,4
DA:177,4
DA:179,4
DA:180,4
DA:196,2
DA:197,2
DA:198,2
DA:199,2
DA:200,2
DA:201,2
DA:202,2
DA:203,0
DA:204,2
DA:206,2
DA:207,2
DA:208,2
DA:211,4
DA:212,2
DA:213,2
DA:215,2
DA:217,2
DA:218,1
DA:219,1
DA:221,1
DA:222,0
DA:223,1
DA:226,1
DA:227,1
DA:229,1
DA:230,2
DA:232,2
DA:233,2
DA:248,0
DA:251,0
DA:252,0
DA:253,0
DA:255,0
DA:256,0
DA:257,0
DA:259,0
DA:260,0
DA:261,0
DA:265,0
DA:266,0
DA:267,0
DA:268,0
DA:269,0
DA:271,0
DA:273,0
DA:274,0
DA:285,0
DA:286,0
DA:287,0
DA:288,0
DA:291,0
DA:292,0
DA:293,0
DA:295,0
DA:296,0
DA:297,0
DA:299,0
DA:300,0
DA:301,0
DA:305,0
DA:306,0
DA:307,0
DA:308,0
DA:310,0
DA:311,0
DA:312,0
DA:314,0
DA:316,0
DA:317,0
DA:328,3
DA:329,3
DA:330,0
DA:331,3
DA:333,3
DA:334,3
DA:335,3
DA:337,3
DA:338,3
DA:339,0
DA:342,3
DA:343,2
DA:345,1
DA:347,3
DA:349,3
DA:350,3
DA:362,1
DA:363,1
DA:364,1
DA:366,1
DA:367,1
DA:368,1
DA:369,1
DA:371,1
DA:372,1
DA:375,1
DA:376,1
DA:377,1
DA:378,1
DA:381,1
DA:382,1
DA:383,1
DA:384,1
DA:387,1
DA:388,1
DA:390,1
DA:391,1
DA:393,1
DA:394,1
DA:396,1
DA:397,1
DA:400,1
DA:401,1
DA:402,1
DA:403,1
DA:406,1
DA:407,1
DA:408,1
DA:409,1
DA:412,1
DA:413,1
DA:414,1
DA:416,1
DA:417,1
DA:418,1
DA:420,1
DA:421,1
DA:424,1
DA:425,1
DA:426,1
DA:428,1
DA:429,1
DA:430,1
DA:431,1
DA:434,1
DA:436,1
DA:437,1
DA:440,1
DA:441,1
DA:442,1
DA:444,1
DA:445,1
DA:448,1
DA:449,1
DA:450,1
DA:451,1
DA:452,1
DA:455,1
DA:456,1
DA:457,1
DA:458,1
DA:459,1
DA:460,1
DA:462,1
DA:463,1
DA:464,1
DA:467,1
DA:468,1
DA:469,1
DA:470,1
DA:472,1
DA:473,1
DA:476,1
DA:477,1
DA:478,1
DA:479,1
DA:482,1
DA:483,1
DA:484,1
DA:486,1
DA:487,1
BRF:0
BRH:0
LF:256
LH:200
end_of_record
SF:/Users/ken/git_for_collab4/tensor4all-rs/crates/tensor4all-capi/src/macros.rs
FN:52,t4a_index_clone
FN:73,t4a_index_is_assigned
FN:33,t4a_index_release
FN:60,_RNCNvNtCsdnTG4X9gKe5_15tensor4all_capi6tensor16t4a_tensor_clone0B5_
FN:81,_RNCNvNtCsdnTG4X9gKe5_15tensor4all_capi6tensor22t4a_tensor_is_assigned0B5_
FN:60,_RNCNvNtCsdnTG4X9gKe5_15tensor4all_capi11tensortrain21t4a_tensortrain_clone0B5_
FN:81,_RNCNvNtCsdnTG4X9gKe5_15tensor4all_capi11tensortrain27t4a_tensortrain_is_assigned0B5_
FN:60,_RNCNvNtCsdnTG4X9gKe5_15tensor4all_capi5index15t4a_index_clone0B5_
FN:81,_RNCNvNtCsdnTG4X9gKe5_15tensor4all_capi5index21t4a_index_is_assigned0B5_
FN:52,t4a_tensortrain_clone
FN:73,t4a_tensortrain_is_assigned
FN:33,t4a_tensortrain_release
FN:52,t4a_tensor_clone
FN:73,t4a_tensor_is_assigned
FN:33,t4a_tensor_release
FNDA:3,t4a_index_clone
FNDA:0,t4a_index_is_assigned
FNDA:21,t4a_index_release
FNDA:1,_RNCNvNtCsdnTG4X9gKe5_15tensor4all_capi6tensor16t4a_tensor_clone0B5_
FNDA:1,_RNCNvNtCsdnTG4X9gKe5_15tensor4all_capi6tensor22t4a_tensor_is_assigned0B5_
FNDA:1,_RNCNvNtCsdnTG4X9gKe5_15tensor4all_capi11tensortrain21t4a_tensortrain_clone0B5_
FNDA:0,_RNCNvNtCsdnTG4X9gKe5_15tensor4all_capi11tensortrain27t4a_tensortrain_is_assigned0B5_
FNDA:3,_RNCNvNtCsdnTG4X9gKe5_15tensor4all_capi5index15t4a_index_clone0B5_
FNDA:0,_RNCNvNtCsdnTG4X9gKe5_15tensor4all_capi5index21t4a_index_is_assigned0B5_
FNDA:1,t4a_tensortrain_clone
FNDA:0,t4a_tensortrain_is_assigned
FNDA:6,t4a_tensortrain_release
FNDA:1,t4a_tensor_clone
FNDA:1,t4a_tensor_is_assigned
FNDA:8,t4a_tensor_release
FNF:5
FNH:5
DA:33,35
DA:34,35
DA:35,0
DA:36,35
DA:38,35
DA:39,35
DA:40,35
DA:41,35
DA:52,5
DA:53,5
DA:54,5
DA:55,5
DA:56,0
DA:57,5
DA:59,5
DA:60,5
DA:61,5
DA:62,5
DA:63,5
DA:65,5
DA:66,5
DA:73,1
DA:74,1
DA:75,1
DA:76,1
DA:77,0
DA:78,1
DA:80,1
DA:81,1
DA:82,1
DA:83,1
DA:85,1
DA:86,1
BRF:0
BRH:0
LF:33
LH:30
end_of_record
SF:/Users/ken/git_for_collab4/tensor4all-rs/crates/tensor4all-capi/src/simplett.rs
FN:39,_RNvMNtCsdnTG4X9gKe5_15tensor4all_capi8simplettNtB2_16t4a_simplett_f6410into_inner
FN:34,_RNvMNtCsdnTG4X9gKe5_15tensor4all_capi8simplettNtB2_16t4a_simplett_f649inner_mut
FN:47,_RNvXs_NtCsdnTG4X9gKe5_15tensor4all_capi8simplettNtB4_16t4a_simplett_f64NtNtNtCskzPJi2J8k3N_4core3ops4drop4Drop4drop
FN:23,_RNvMNtCsdnTG4X9gKe5_15tensor4all_capi8simplettNtB2_16t4a_simplett_f643new
FN:29,_RNvMNtCsdnTG4X9gKe5_15tensor4all_capi8simplettNtB2_16t4a_simplett_f645inner
FN:72,t4a_simplett_f64_clone
FN:99,t4a_simplett_f64_constant
FN:255,t4a_simplett_f64_evaluate
FN:149,t4a_simplett_f64_len
FN:204,t4a_simplett_f64_link_dims
FN:302,t4a_simplett_f64_norm
FN:230,t4a_simplett_f64_rank
FN:62,t4a_simplett_f64_release
FN:173,t4a_simplett_f64_site_dims
FN:332,t4a_simplett_f64_site_tensor
FN:283,t4a_simplett_f64_sum
FN:126,t4a_simplett_f64_zeros
FN:135,_RNCNCNvNtCsdnTG4X9gKe5_15tensor4all_capi8simplett22t4a_simplett_f64_zeros00B7_
FN:109,_RNCNCNvNtCsdnTG4X9gKe5_15tensor4all_capi8simplett25t4a_simplett_f64_constant00B7_
FN:267,_RNCNCNvNtCsdnTG4X9gKe5_15tensor4all_capi8simplett25t4a_simplett_f64_evaluate00B7_
FN:157,_RNCNvNtCsdnTG4X9gKe5_15tensor4all_capi8simplett20t4a_simplett_f64_len0B5_
FN:291,_RNCNvNtCsdnTG4X9gKe5_15tensor4all_capi8simplett20t4a_simplett_f64_sum0B5_
FN:310,_RNCNvNtCsdnTG4X9gKe5_15tensor4all_capi8simplett21t4a_simplett_f64_norm0B5_
FN:238,_RNCNvNtCsdnTG4X9gKe5_15tensor4all_capi8simplett21t4a_simplett_f64_rank0B5_
FN:77,_RNCNvNtCsdnTG4X9gKe5_15tensor4all_capi8simplett22t4a_simplett_f64_clone0B5_
FN:134,_RNCNvNtCsdnTG4X9gKe5_15tensor4all_capi8simplett22t4a_simplett_f64_zeros0B5_
FN:108,_RNCNvNtCsdnTG4X9gKe5_15tensor4all_capi8simplett25t4a_simplett_f64_constant0B5_
FN:265,_RNCNvNtCsdnTG4X9gKe5_15tensor4all_capi8simplett25t4a_simplett_f64_evaluate0B5_
FN:213,_RNCNvNtCsdnTG4X9gKe5_15tensor4all_capi8simplett26t4a_simplett_f64_link_dims0B5_
FN:182,_RNCNvNtCsdnTG4X9gKe5_15tensor4all_capi8simplett26t4a_simplett_f64_site_dims0B5_
FN:347,_RNCNvNtCsdnTG4X9gKe5_15tensor4all_capi8simplett28t4a_simplett_f64_site_tensor0B5_
FN:395,_RNvNtNtCsdnTG4X9gKe5_15tensor4all_capi8simplett5testss_22test_simplett_constant
FN:414,_RNvNtNtCsdnTG4X9gKe5_15tensor4all_capi8simplett5testss_22test_simplett_evaluate
FNDA:0,_RNvMNtCsdnTG4X9gKe5_15tensor4all_capi8simplettNtB2_16t4a_simplett_f6410into_inner
FNDA:0,_RNvMNtCsdnTG4X9gKe5_15tensor4all_capi8simplettNtB2_16t4a_simplett_f649inner_mut
FNDA:3,_RNvXs_NtCsdnTG4X9gKe5_15tensor4all_capi8simplettNtB4_16t4a_simplett_f64NtNtNtCskzPJi2J8k3N_4core3ops4drop4Drop4drop
FNDA:3,_RNvMNtCsdnTG4X9gKe5_15tensor4all_capi8simplettNtB2_16t4a_simplett_f643new
FNDA:4,_RNvMNtCsdnTG4X9gKe5_15tensor4all_capi8simplettNtB2_16t4a_simplett_f645inner
FNDA:0,t4a_simplett_f64_clone
FNDA:2,t4a_simplett_f64_constant
FNDA:1,t4a_simplett_f64_evaluate
FNDA:1,t4a_simplett_f64_len
FNDA:0,t4a_simplett_f64_link_dims
FNDA:0,t4a_simplett_f64_norm
FNDA:0,t4a_simplett_f64_rank
FNDA:3,t4a_simplett_f64_release
FNDA:0,t4a_simplett_f64_site_dims
FNDA:0,t4a_simplett_f64_site_tensor
FNDA:2,t4a_simplett_f64_sum
FNDA:0,t4a_simplett_f64_zeros
FNDA:0,_RNCNCNvNtCsdnTG4X9gKe5_15tensor4all_capi8simplett22t4a_simplett_f64_zeros00B7_
FNDA:5,_RNCNCNvNtCsdnTG4X9gKe5_15tensor4all_capi8simplett25t4a_simplett_f64_constant00B7_
FNDA:2,_RNCNCNvNtCsdnTG4X9gKe5_15tensor4all_capi8simplett25t4a_simplett_f64_evaluate00B7_
FNDA:1,_RNCNvNtCsdnTG4X9gKe5_15tensor4all_capi8simplett20t4a_simplett_f64_len0B5_
FNDA:2,_RNCNvNtCsdnTG4X9gKe5_15tensor4all_capi8simplett20t4a_simplett_f64_sum0B5_
FNDA:0,_RNCNvNtCsdnTG4X9gKe5_15tensor4all_capi8simplett21t4a_simplett_f64_norm0B5_
FNDA:0,_RNCNvNtCsdnTG4X9gKe5_15tensor4all_capi8simplett21t4a_simplett_f64_rank0B5_
FNDA:0,_RNCNvNtCsdnTG4X9gKe5_15tensor4all_capi8simplett22t4a_simplett_f64_clone0B5_
FNDA:0,_RNCNvNtCsdnTG4X9gKe5_15tensor4all_capi8simplett22t4a_simplett_f64_zeros0B5_
FNDA:2,_RNCNvNtCsdnTG4X9gKe5_15tensor4all_capi8simplett25t4a_simplett_f64_constant0B5_
FNDA:1,_RNCNvNtCsdnTG4X9gKe5_15tensor4all_capi8simplett25t4a_simplett_f64_evaluate0B5_
FNDA:0,_RNCNvNtCsdnTG4X9gKe5_15tensor4all_capi8simplett26t4a_simplett_f64_link_dims0B5_
FNDA:0,_RNCNvNtCsdnTG4X9gKe5_15tensor4all_capi8simplett26t4a_simplett_f64_site_dims0B5_
FNDA:0,_RNCNvNtCsdnTG4X9gKe5_15tensor4all_capi8simplett28t4a_simplett_f64_site_tensor0B5_
FNDA:1,_RNvNtNtCsdnTG4X9gKe5_15tensor4all_capi8simplett5testss_22test_simplett_constant
FNDA:1,_RNvNtNtCsdnTG4X9gKe5_15tensor4all_capi8simplett5testss_22test_simplett_evaluate
FNF:33
FNH:16
DA:23,3
DA:24,3
DA:25,3
DA:26,3
DA:27,3
DA:29,4
DA:30,4
DA:31,4
DA:34,0
DA:35,0
DA:36,0
DA:39,0
DA:40,0
DA:41,0
DA:42,0
DA:43,0
DA:47,3
DA:48,3
DA:49,3
DA:50,3
DA:51,3
DA:52,0
DA:53,3
DA:62,3
DA:63,3
DA:64,3
DA:65,3
DA:66,3
DA:67,0
DA:68,3
DA:72,0
DA:73,0
DA:74,0
DA:75,0
DA:77,0
DA:78,0
DA:79,0
DA:80,0
DA:82,0
DA:83,0
DA:99,2
DA:100,2
DA:101,2
DA:102,2
DA:103,2
DA:104,2
DA:105,0
DA:106,2
DA:108,2
DA:109,5
DA:110,2
DA:111,2
DA:112,2
DA:114,2
DA:115,2
DA:126,0
DA:127,0
DA:128,0
DA:129,0
DA:130,0
DA:131,0
DA:132,0
DA:134,0
DA:135,0
DA:136,0
DA:137,0
DA:138,0
DA:140,0
DA:141,0
DA:149,1
DA:150,1
DA:151,1
DA:152,1
DA:153,1
DA:154,0
DA:155,1
DA:157,1
DA:158,1
DA:159,1
DA:160,1
DA:161,1
DA:163,1
DA:164,1
DA:173,0
DA:174,0
DA:175,0
DA:176,0
DA:177,0
DA:178,0
DA:179,0
DA:180,0
DA:182,0
DA:183,0
DA:184,0
DA:185,0
DA:186,0
DA:187,0
DA:188,0
DA:189,0
DA:190,0
DA:191,0
DA:192,0
DA:194,0
DA:195,0
DA:204,0
DA:205,0
DA:206,0
DA:207,0
DA:208,0
DA:209,0
DA:210,0
DA:211,0
DA:213,0
DA:214,0
DA:215,0
DA:216,0
DA:217,0
DA:218,0
DA:219,0
DA:220,0
DA:221,0
DA:222,0
DA:223,0
DA:225,0
DA:226,0
DA:230,0
DA:231,0
DA:232,0
DA:233,0
DA:234,0
DA:235,0
DA:236,0
DA:238,0
DA:239,0
DA:240,0
DA:241,0
DA:242,0
DA:244,0
DA:245,0
DA:255,1
DA:256,1
DA:257,1
DA:258,1
DA:259,1
DA:260,1
DA:261,1
DA:262,0
DA:263,1
DA:265,1
DA:266,1
DA:267,2
DA:269,1
DA:270,1
DA:271,1
DA:272,1
DA:274,0
DA:276,1
DA:278,1
DA:279,1
DA:283,2
DA:284,2
DA:285,2
DA:286,2
DA:287,2
DA:288,0
DA:289,2
DA:291,2
DA:292,2
DA:293,2
DA:294,2
DA:295,2
DA:297,2
DA:298,2
DA:302,0
DA:303,0
DA:304,0
DA:305,0
DA:306,0
DA:307,0
DA:308,0
DA:310,0
DA:311,0
DA:312,0
DA:313,0
DA:314,0
DA:316,0
DA:317,0
DA:332,0
DA:333,0
DA:334,0
DA:335,0
DA:336,0
DA:337,0
DA:338,0
DA:339,0
DA:340,0
DA:343,0
DA:344,0
DA:345,0
DA:347,0
DA:348,0
DA:349,0
DA:350,0
DA:351,0
DA:353,0
DA:354,0
DA:355,0
DA:356,0
DA:357,0
DA:359,0
DA:360,0
DA:361,0
DA:364,0
DA:365,0
DA:366,0
DA:367,0
DA:368,0
DA:369,0
DA:370,0
DA:374,0
DA:375,0
DA:376,0
DA:377,0
DA:378,0
DA:379,0
DA:380,0
DA:381,0
DA:382,0
DA:384,0
DA:385,0
DA:387,0
DA:388,0
DA:395,1
DA:396,1
DA:397,1
DA:398,1
DA:400,1
DA:401,1
DA:402,1
DA:403,1
DA:405,1
DA:406,1
DA:407,1
DA:408,1
DA:410,1
DA:411,1
DA:414,1
DA:415,1
DA:416,1
DA:417,1
DA:419,1
DA:420,1
DA:421,1
DA:422,1
DA:423,1
DA:425,1
DA:426,1
BRF:0
BRH:0
LF:271
LH:109
end_of_record
SF:/Users/ken/git_for_collab4/tensor4all-rs/crates/tensor4all-capi/src/tensor.rs
FN:372,_RNCNCNvNtCsdnTG4X9gKe5_15tensor4all_capi6tensor24t4a_tensor_new_dense_c6400B7_
FN:382,_RNCNCNvNtCsdnTG4X9gKe5_15tensor4all_capi6tensor24t4a_tensor_new_dense_c640s_0B7_
FN:306,_RNCNCNvNtCsdnTG4X9gKe5_15tensor4all_capi6tensor24t4a_tensor_new_dense_f6400B7_
FN:66,_RNCNvNtCsdnTG4X9gKe5_15tensor4all_capi6tensor19t4a_tensor_get_dims0B5_
FN:36,_RNCNvNtCsdnTG4X9gKe5_15tensor4all_capi6tensor19t4a_tensor_get_rank0B5_
FN:106,_RNCNvNtCsdnTG4X9gKe5_15tensor4all_capi6tensor22t4a_tensor_get_indices0B5_
FN:235,_RNCNvNtCsdnTG4X9gKe5_15tensor4all_capi6tensor23t4a_tensor_get_data_c640B5_
FN:178,_RNCNvNtCsdnTG4X9gKe5_15tensor4all_capi6tensor23t4a_tensor_get_data_f640B5_
FN:359,_RNCNvNtCsdnTG4X9gKe5_15tensor4all_capi6tensor24t4a_tensor_new_dense_c640B5_
FN:293,_RNCNvNtCsdnTG4X9gKe5_15tensor4all_capi6tensor24t4a_tensor_new_dense_f640B5_
FN:140,_RNCNvNtCsdnTG4X9gKe5_15tensor4all_capi6tensor27t4a_tensor_get_storage_kind0B5_
FN:224,t4a_tensor_get_data_c64
FN:168,t4a_tensor_get_data_f64
FN:57,t4a_tensor_get_dims
FN:97,t4a_tensor_get_indices
FN:28,t4a_tensor_get_rank
FN:132,t4a_tensor_get_storage_kind
FN:347,t4a_tensor_new_dense_c64
FN:282,t4a_tensor_new_dense_f64
FN:513,_RNvNtNtCsdnTG4X9gKe5_15tensor4all_capi6tensor5testss_15test_tensor_c64
FN:434,_RNvNtNtCsdnTG4X9gKe5_15tensor4all_capi6tensor5testss_21test_tensor_accessors
FN:403,_RNvNtNtCsdnTG4X9gKe5_15tensor4all_capi6tensor5testss_21test_tensor_lifecycle
FNDA:2,_RNCNCNvNtCsdnTG4X9gKe5_15tensor4all_capi6tensor24t4a_tensor_new_dense_c6400B7_
FNDA:4,_RNCNCNvNtCsdnTG4X9gKe5_15tensor4all_capi6tensor24t4a_tensor_new_dense_c640s_0B7_
FNDA:10,_RNCNCNvNtCsdnTG4X9gKe5_15tensor4all_capi6tensor24t4a_tensor_new_dense_f6400B7_
FNDA:1,_RNCNvNtCsdnTG4X9gKe5_15tensor4all_capi6tensor19t4a_tensor_get_dims0B5_
FNDA:1,_RNCNvNtCsdnTG4X9gKe5_15tensor4all_capi6tensor19t4a_tensor_get_rank0B5_
FNDA:1,_RNCNvNtCsdnTG4X9gKe5_15tensor4all_capi6tensor22t4a_tensor_get_indices0B5_
FNDA:1,_RNCNvNtCsdnTG4X9gKe5_15tensor4all_capi6tensor23t4a_tensor_get_data_c640B5_
FNDA:2,_RNCNvNtCsdnTG4X9gKe5_15tensor4all_capi6tensor23t4a_tensor_get_data_f640B5_
FNDA:1,_RNCNvNtCsdnTG4X9gKe5_15tensor4all_capi6tensor24t4a_tensor_new_dense_c640B5_
FNDA:6,_RNCNvNtCsdnTG4X9gKe5_15tensor4all_capi6tensor24t4a_tensor_new_dense_f640B5_
FNDA:2,_RNCNvNtCsdnTG4X9gKe5_15tensor4all_capi6tensor27t4a_tensor_get_storage_kind0B5_
FNDA:1,t4a_tensor_get_data_c64
FNDA:2,t4a_tensor_get_data_f64
FNDA:1,t4a_tensor_get_dims
FNDA:1,t4a_tensor_get_indices
FNDA:1,t4a_tensor_get_rank
FNDA:2,t4a_tensor_get_storage_kind
FNDA:1,t4a_tensor_new_dense_c64
FNDA:6,t4a_tensor_new_dense_f64
FNDA:1,_RNvNtNtCsdnTG4X9gKe5_15tensor4all_capi6tensor5testss_15test_tensor_c64
FNDA:1,_RNvNtNtCsdnTG4X9gKe5_15tensor4all_capi6tensor5testss_21test_tensor_accessors
FNDA:1,_RNvNtNtCsdnTG4X9gKe5_15tensor4all_capi6tensor5testss_21test_tensor_lifecycle
FNF:22
FNH:22
DA:28,1
DA:29,1
DA:30,1
DA:31,1
DA:32,1
DA:33,0
DA:34,1
DA:36,1
DA:37,1
DA:38,1
DA:39,1
DA:40,1
DA:41,1
DA:43,1
DA:44,1
DA:57,1
DA:58,1
DA:59,1
DA:60,1
DA:61,1
DA:62,1
DA:63,0
DA:64,1
DA:66,1
DA:67,1
DA:68,1
DA:70,1
DA:71,0
DA:72,1
DA:75,2
DA:76,2
DA:77,2
DA:79,1
DA:80,1
DA:82,1
DA:83,1
DA:97,1
DA:98,1
DA:99,1
DA:100,1
DA:101,1
DA:102,1
DA:103,0
DA:104,1
DA:106,1
DA:107,1
DA:108,1
DA:110,1
DA:111,0
DA:112,1
DA:115,2
DA:116,2
DA:117,2
DA:118,2
DA:120,1
DA:121,1
DA:123,1
DA:124,1
DA:132,2
DA:133,2
DA:134,2
DA:135,2
DA:136,2
DA:137,0
DA:138,2
DA:140,2
DA:141,2
DA:142,2
DA:143,2
DA:144,2
DA:145,2
DA:147,2
DA:148,2
DA:168,2
DA:169,2
DA:170,2
DA:171,2
DA:172,2
DA:173,2
DA:174,2
DA:175,0
DA:176,2
DA:178,2
DA:179,2
DA:181,2
DA:182,2
DA:183,0
DA:186,2
DA:188,2
DA:189,1
DA:190,1
DA:192,1
DA:193,0
DA:194,1
DA:196,1
DA:197,1
DA:198,1
DA:199,1
DA:200,2
DA:202,2
DA:203,2
DA:224,1
DA:225,1
DA:226,1
DA:227,1
DA:228,1
DA:229,1
DA:230,1
DA:231,1
DA:232,0
DA:233,1
DA:235,1
DA:236,1
DA:238,1
DA:239,1
DA:240,0
DA:243,1
DA:245,1
DA:246,0
DA:247,1
DA:249,1
DA:250,0
DA:251,1
DA:254,4
DA:255,4
DA:256,4
DA:257,4
DA:259,1
DA:260,1
DA:262,1
DA:263,1
DA:282,6
DA:283,6
DA:284,6
DA:285,6
DA:286,6
DA:287,6
DA:288,6
DA:289,6
DA:290,0
DA:291,6
DA:293,6
DA:295,6
DA:296,10
DA:297,10
DA:298,10
DA:299,0
DA:300,10
DA:301,10
DA:302,10
DA:306,10
DA:309,6
DA:310,6
DA:311,0
DA:312,6
DA:315,6
DA:318,6
DA:321,6
DA:323,6
DA:324,6
DA:326,6
DA:327,6
DA:347,1
DA:348,1
DA:349,1
DA:350,1
DA:351,1
DA:352,1
DA:353,1
DA:354,1
DA:355,1
DA:356,0
DA:357,1
DA:359,1
DA:361,1
DA:362,2
DA:363,2
DA:364,2
DA:365,0
DA:366,2
DA:367,2
DA:368,2
DA:372,2
DA:375,1
DA:376,1
DA:377,0
DA:378,1
DA:381,1
DA:382,4
DA:383,1
DA:386,1
DA:389,1
DA:391,1
DA:392,1
DA:394,1
DA:395,1
DA:403,1
DA:405,1
DA:406,1
DA:407,1
DA:408,1
DA:411,1
DA:412,1
DA:413,1
DA:415,1
DA:416,1
DA:417,1
DA:420,1
DA:423,1
DA:424,1
DA:427,1
DA:428,1
DA:429,1
DA:430,1
DA:431,1
DA:434,1
DA:436,1
DA:437,1
DA:440,1
DA:441,1
DA:442,1
DA:444,1
DA:445,1
DA:448,1
DA:449,1
DA:450,1
DA:453,1
DA:456,1
DA:457,1
DA:458,1
DA:461,1
DA:464,1
DA:465,1
DA:466,1
DA:469,1
DA:472,1
DA:473,1
DA:474,1
DA:477,1
DA:479,1
DA:480,1
DA:481,1
DA:484,1
DA:487,1
DA:488,1
DA:489,1
DA:494,1
DA:495,1
DA:496,1
DA:497,1
DA:498,1
DA:499,1
DA:502,3
DA:503,2
DA:504,2
DA:507,1
DA:508,1
DA:509,1
DA:510,1
DA:513,1
DA:515,1
DA:516,1
DA:519,1
DA:520,1
DA:521,1
DA:522,1
DA:524,1
DA:526,1
DA:527,1
DA:528,1
DA:529,1
DA:532,1
DA:535,1
DA:536,1
DA:537,1
DA:540,1
DA:543,1
DA:544,1
DA:545,1
DA:546,1
DA:547,1
DA:548,1
DA:549,1
DA:550,1
DA:552,1
DA:556,1
DA:557,1
DA:558,1
DA:561,1
DA:562,1
DA:563,1
DA:564,1
BRF:0
BRH:0
LF:303
LH:284
end_of_record
SF:/Users/ken/git_for_collab4/tensor4all-rs/crates/tensor4all-capi/src/tensorci.rs
FN:497,_RNCNvNtNtCsdnTG4X9gKe5_15tensor4all_capi8tensorci5tests12sum_callback0B7_
FN:490,_RNvNtNtCsdnTG4X9gKe5_15tensor4all_capi8tensorci5tests12sum_callback
FN:61,_RNvXs_NtCsdnTG4X9gKe5_15tensor4all_capi8tensorciNtB4_12t4a_tci2_f64NtNtNtCskzPJi2J8k3N_4core3ops4drop4Drop4drop
FN:429,_RNCNCNCNvNtCsdnTG4X9gKe5_15tensor4all_capi8tensorci25t4a_crossinterpolate2_f640s0_00B9_
FN:420,_RNCNCNCNvNtCsdnTG4X9gKe5_15tensor4all_capi8tensorci25t4a_crossinterpolate2_f640s_00B9_
FN:107,_RNCNCNvNtCsdnTG4X9gKe5_15tensor4all_capi8tensorci16t4a_tci2_f64_new00B7_
FN:410,_RNCNCNvNtCsdnTG4X9gKe5_15tensor4all_capi8tensorci25t4a_crossinterpolate2_f6400B7_
FN:428,_RNCNCNvNtCsdnTG4X9gKe5_15tensor4all_capi8tensorci25t4a_crossinterpolate2_f640s0_0B7_
FN:418,_RNCNCNvNtCsdnTG4X9gKe5_15tensor4all_capi8tensorci25t4a_crossinterpolate2_f640s_0B7_
FN:133,_RNCNvNtCsdnTG4X9gKe5_15tensor4all_capi8tensorci16t4a_tci2_f64_len0B5_
FN:105,_RNCNvNtCsdnTG4X9gKe5_15tensor4all_capi8tensorci16t4a_tci2_f64_new0B5_
FN:152,_RNCNvNtCsdnTG4X9gKe5_15tensor4all_capi8tensorci17t4a_tci2_f64_rank0B5_
FN:303,_RNCNvNtCsdnTG4X9gKe5_15tensor4all_capi8tensorci18t4a_tci2_f64_sweep0B5_
FN:172,_RNCNvNtCsdnTG4X9gKe5_15tensor4all_capi8tensorci22t4a_tci2_f64_link_dims0B5_
FN:407,_RNCNvNtCsdnTG4X9gKe5_15tensor4all_capi8tensorci25t4a_crossinterpolate2_f640B5_
FN:216,_RNCNvNtCsdnTG4X9gKe5_15tensor4all_capi8tensorci27t4a_tci2_f64_max_bond_error0B5_
FN:354,_RNCNvNtCsdnTG4X9gKe5_15tensor4all_capi8tensorci28t4a_tci2_f64_to_tensor_train0B5_
FN:197,_RNCNvNtCsdnTG4X9gKe5_15tensor4all_capi8tensorci29t4a_tci2_f64_max_sample_value0B5_
FN:247,_RNCNvNtCsdnTG4X9gKe5_15tensor4all_capi8tensorci30t4a_tci2_f64_add_global_pivots0B5_
FN:45,_RNvMNtCsdnTG4X9gKe5_15tensor4all_capi8tensorciNtB2_12t4a_tci2_f643new
FN:51,_RNvMNtCsdnTG4X9gKe5_15tensor4all_capi8tensorciNtB2_12t4a_tci2_f645inner
FN:55,_RNvMNtCsdnTG4X9gKe5_15tensor4all_capi8tensorciNtB2_12t4a_tci2_f649inner_mut
FN:390,t4a_crossinterpolate2_f64
FN:237,t4a_tci2_f64_add_global_pivots
FN:125,t4a_tci2_f64_len
FN:163,t4a_tci2_f64_link_dims
FN:208,t4a_tci2_f64_max_bond_error
FN:189,t4a_tci2_f64_max_sample_value
FN:97,t4a_tci2_f64_new
FN:144,t4a_tci2_f64_rank
FN:76,t4a_tci2_f64_release
FN:290,t4a_tci2_f64_sweep
FN:349,t4a_tci2_f64_to_tensor_train
FN:504,_RNvNtNtCsdnTG4X9gKe5_15tensor4all_capi8tensorci5testss_13test_tci2_new
FN:518,_RNvNtNtCsdnTG4X9gKe5_15tensor4all_capi8tensorci5testss_31test_crossinterpolate2_constant
FN:520,_RNvNvNtNtCsdnTG4X9gKe5_15tensor4all_capi8tensorci5testss_31test_crossinterpolate2_constant14const_callback
FNDA:0,_RNCNvNtNtCsdnTG4X9gKe5_15tensor4all_capi8tensorci5tests12sum_callback0B7_
FNDA:0,_RNvNtNtCsdnTG4X9gKe5_15tensor4all_capi8tensorci5tests12sum_callback
FNDA:2,_RNvXs_NtCsdnTG4X9gKe5_15tensor4all_capi8tensorciNtB4_12t4a_tci2_f64NtNtNtCskzPJi2J8k3N_4core3ops4drop4Drop4drop
FNDA:26,_RNCNCNCNvNtCsdnTG4X9gKe5_15tensor4all_capi8tensorci25t4a_crossinterpolate2_f640s0_00B9_
FNDA:0,_RNCNCNCNvNtCsdnTG4X9gKe5_15tensor4all_capi8tensorci25t4a_crossinterpolate2_f640s_00B9_
FNDA:3,_RNCNCNvNtCsdnTG4X9gKe5_15tensor4all_capi8tensorci16t4a_tci2_f64_new00B7_
FNDA:2,_RNCNCNvNtCsdnTG4X9gKe5_15tensor4all_capi8tensorci25t4a_crossinterpolate2_f6400B7_
FNDA:13,_RNCNCNvNtCsdnTG4X9gKe5_15tensor4all_capi8tensorci25t4a_crossinterpolate2_f640s0_0B7_
FNDA:0,_RNCNCNvNtCsdnTG4X9gKe5_15tensor4all_capi8tensorci25t4a_crossinterpolate2_f640s_0B7_
FNDA:1,_RNCNvNtCsdnTG4X9gKe5_15tensor4all_capi8tensorci16t4a_tci2_f64_len0B5_
FNDA:1,_RNCNvNtCsdnTG4X9gKe5_15tensor4all_capi8tensorci16t4a_tci2_f64_new0B5_
FNDA:1,_RNCNvNtCsdnTG4X9gKe5_15tensor4all_capi8tensorci17t4a_tci2_f64_rank0B5_
FNDA:0,_RNCNvNtCsdnTG4X9gKe5_15tensor4all_capi8tensorci18t4a_tci2_f64_sweep0B5_
FNDA:0,_RNCNvNtCsdnTG4X9gKe5_15tensor4all_capi8tensorci22t4a_tci2_f64_link_dims0B5_
FNDA:1,_RNCNvNtCsdnTG4X9gKe5_15tensor4all_capi8tensorci25t4a_crossinterpolate2_f640B5_
FNDA:0,_RNCNvNtCsdnTG4X9gKe5_15tensor4all_capi8tensorci27t4a_tci2_f64_max_bond_error0B5_
FNDA:1,_RNCNvNtCsdnTG4X9gKe5_15tensor4all_capi8tensorci28t4a_tci2_f64_to_tensor_train0B5_
FNDA:0,_RNCNvNtCsdnTG4X9gKe5_15tensor4all_capi8tensorci29t4a_tci2_f64_max_sample_value0B5_
FNDA:0,_RNCNvNtCsdnTG4X9gKe5_15tensor4all_capi8tensorci30t4a_tci2_f64_add_global_pivots0B5_
FNDA:2,_RNvMNtCsdnTG4X9gKe5_15tensor4all_capi8tensorciNtB2_12t4a_tci2_f643new
FNDA:3,_RNvMNtCsdnTG4X9gKe5_15tensor4all_capi8tensorciNtB2_12t4a_tci2_f645inner
FNDA:0,_RNvMNtCsdnTG4X9gKe5_15tensor4all_capi8tensorciNtB2_12t4a_tci2_f649inner_mut
FNDA:1,t4a_crossinterpolate2_f64
FNDA:0,t4a_tci2_f64_add_global_pivots
FNDA:1,t4a_tci2_f64_len
FNDA:0,t4a_tci2_f64_link_dims
FNDA:0,t4a_tci2_f64_max_bond_error
FNDA:0,t4a_tci2_f64_max_sample_value
FNDA:1,t4a_tci2_f64_new
FNDA:1,t4a_tci2_f64_rank
FNDA:2,t4a_tci2_f64_release
FNDA:0,t4a_tci2_f64_sweep
FNDA:1,t4a_tci2_f64_to_tensor_train
FNDA:1,_RNvNtNtCsdnTG4X9gKe5_15tensor4all_capi8tensorci5testss_13test_tci2_new
FNDA:1,_RNvNtNtCsdnTG4X9gKe5_15tensor4all_capi8tensorci5testss_31test_crossinterpolate2_constant
FNDA:13,_RNvNvNtNtCsdnTG4X9gKe5_15tensor4all_capi8tensorci5testss_31test_crossinterpolate2_constant14const_callback
FNF:36
FNH:21
DA:45,2
DA:46,2
DA:47,2
DA:48,2
DA:49,2
DA:51,3
DA:52,3
DA:53,3
DA:55,0
DA:56,0
DA:57,0
DA:61,2
DA:62,2
DA:63,2
DA:64,2
DA:65,2
DA:66,0
DA:67,2
DA:76,2
DA:77,2
DA:78,2
DA:79,2
DA:80,2
DA:81,0
DA:82,2
DA:97,1
DA:98,1
DA:99,1
DA:100,1
DA:101,1
DA:102,0
DA:103,1
DA:105,1
DA:106,1
DA:107,3
DA:108,1
DA:110,1
DA:111,1
DA:112,0
DA:114,1
DA:116,1
DA:117,1
DA:125,1
DA:126,1
DA:127,1
DA:128,1
DA:129,1
DA:130,0
DA:131,1
DA:133,1
DA:134,1
DA:135,1
DA:136,1
DA:137,1
DA:139,1
DA:140,1
DA:144,1
DA:145,1
DA:146,1
DA:147,1
DA:148,1
DA:149,0
DA:150,1
DA:152,1
DA:153,1
DA:154,1
DA:155,1
DA:156,1
DA:158,1
DA:159,1
DA:163,0
DA:164,0
DA:165,0
DA:166,0
DA:167,0
DA:168,0
DA:169,0
DA:170,0
DA:172,0
DA:173,0
DA:174,0
DA:175,0
DA:176,0
DA:177,0
DA:178,0
DA:179,0
DA:180,0
DA:181,0
DA:182,0
DA:184,0
DA:185,0
DA:189,0
DA:190,0
DA:191,0
DA:192,0
DA:193,0
DA:194,0
DA:195,0
DA:197,0
DA:198,0
DA:199,0
DA:200,0
DA:201,0
DA:203,0
DA:204,0
DA:208,0
DA:209,0
DA:210,0
DA:211,0
DA:212,0
DA:213,0
DA:214,0
DA:216,0
DA:217,0
DA:218,0
DA:219,0
DA:220,0
DA:222,0
DA:223,0
DA:237,0
DA:238,0
DA:239,0
DA:240,0
DA:241,0
DA:242,0
DA:243,0
DA:244,0
DA:245,0
DA:247,0
DA:248,0
DA:251,0
DA:252,0
DA:253,0
DA:254,0
DA:255,0
DA:256,0
DA:257,0
DA:260,0
DA:261,0
DA:262,0
DA:264,0
DA:266,0
DA:267,0
DA:290,0
DA:291,0
DA:292,0
DA:293,0
DA:294,0
DA:295,0
DA:296,0
DA:297,0
DA:298,0
DA:299,0
DA:300,0
DA:301,0
DA:303,0
DA:304,0
DA:305,0
DA:318,0
DA:321,0
DA:322,0
DA:323,0
DA:324,0
DA:327,0
DA:328,0
DA:329,0
DA:331,0
DA:332,0
DA:334,0
DA:335,0
DA:349,1
DA:350,1
DA:351,0
DA:352,1
DA:354,1
DA:355,1
DA:356,1
DA:357,1
DA:358,0
DA:360,1
DA:362,1
DA:363,1
DA:390,1
DA:391,1
DA:392,1
DA:393,1
DA:394,1
DA:395,1
DA:396,1
DA:397,1
DA:398,1
DA:399,1
DA:400,1
DA:401,1
DA:402,1
DA:403,1
DA:404,0
DA:405,1
DA:407,1
DA:409,1
DA:410,2
DA:411,1
DA:414,1
DA:415,1
DA:417,0
DA:418,0
DA:419,0
DA:420,0
DA:421,0
DA:422,0
DA:423,0
DA:428,13
DA:429,26
DA:430,13
DA:432,13
DA:433,13
DA:434,13
DA:435,13
DA:436,13
DA:437,13
DA:439,13
DA:440,0
DA:442,13
DA:444,13
DA:447,1
DA:448,1
DA:449,1
DA:450,1
DA:452,0
DA:454,1
DA:455,1
DA:461,1
DA:462,1
DA:463,1
DA:464,1
DA:465,1
DA:467,1
DA:470,1
DA:471,1
DA:472,1
DA:473,1
DA:475,1
DA:477,0
DA:479,1
DA:481,1
DA:482,1
DA:490,0
DA:491,0
DA:492,0
DA:493,0
DA:494,0
DA:495,0
DA:497,0
DA:498,0
DA:500,0
DA:501,0
DA:504,1
DA:505,1
DA:506,1
DA:507,1
DA:509,1
DA:510,1
DA:511,1
DA:512,1
DA:514,1
DA:515,1
DA:518,1
DA:520,13
DA:521,13
DA:522,13
DA:523,13
DA:524,13
DA:525,13
DA:526,13
DA:527,13
DA:528,13
DA:530,1
DA:531,1
DA:532,1
DA:534,1
DA:535,1
DA:537,1
DA:539,1
DA:540,1
DA:544,1
DA:545,1
DA:548,1
DA:549,1
DA:552,1
DA:553,1
DA:554,1
DA:557,1
DA:558,1
DA:560,1
DA:561,1
DA:562,1
DA:564,1
DA:565,1
DA:566,1
BRF:0
BRH:0
LF:316
LH:176
end_of_record
SF:/Users/ken/git_for_collab4/tensor4all-rs/crates/tensor4all-capi/src/tensortrain.rs
FN:727,_RNCNvNtNtCsdnTG4X9gKe5_15tensor4all_capi11tensortrain5testss_20test_tt_from_tensors0B7_
FN:728,_RNCNvNtNtCsdnTG4X9gKe5_15tensor4all_capi11tensortrain5testss_20test_tt_from_tensorss_0B7_
FN:48,_RNCNCNvNtCsdnTG4X9gKe5_15tensor4all_capi11tensortrain10t4a_tt_new00B7_
FN:100,_RNCNvNtCsdnTG4X9gKe5_15tensor4all_capi11tensortrain10t4a_tt_len0B5_
FN:44,_RNCNvNtCsdnTG4X9gKe5_15tensor4all_capi11tensortrain10t4a_tt_new0B5_
FN:374,_RNCNvNtCsdnTG4X9gKe5_15tensor4all_capi11tensortrain11t4a_tt_llim0B5_
FN:564,_RNCNvNtCsdnTG4X9gKe5_15tensor4all_capi11tensortrain11t4a_tt_norm0B5_
FN:403,_RNCNvNtCsdnTG4X9gKe5_15tensor4all_capi11tensortrain11t4a_tt_rlim0B5_
FN:596,_RNCNvNtCsdnTG4X9gKe5_15tensor4all_capi11tensortrain12t4a_tt_inner0B5_
FN:151,_RNCNvNtCsdnTG4X9gKe5_15tensor4all_capi11tensortrain13t4a_tt_tensor0B5_
FN:311,_RNCNvNtCsdnTG4X9gKe5_15tensor4all_capi11tensortrain14t4a_tt_isortho0B5_
FN:283,_RNCNvNtCsdnTG4X9gKe5_15tensor4all_capi11tensortrain14t4a_tt_linkind0B5_
FN:648,_RNCNvNtCsdnTG4X9gKe5_15tensor4all_capi11tensortrain15t4a_tt_contract0B5_
FN:122,_RNCNvNtCsdnTG4X9gKe5_15tensor4all_capi11tensortrain15t4a_tt_is_empty0B5_
FN:527,_RNCNvNtCsdnTG4X9gKe5_15tensor4all_capi11tensortrain15t4a_tt_truncate0B5_
FN:223,_RNCNvNtCsdnTG4X9gKe5_15tensor4all_capi11tensortrain16t4a_tt_bond_dims0B5_
FN:69,_RNCNvNtCsdnTG4X9gKe5_15tensor4all_capi11tensortrain16t4a_tt_new_empty0B5_
FN:257,_RNCNvNtCsdnTG4X9gKe5_15tensor4all_capi11tensortrain17t4a_tt_maxbonddim0B5_
FN:188,_RNCNvNtCsdnTG4X9gKe5_15tensor4all_capi11tensortrain17t4a_tt_set_tensor0B5_
FN:340,_RNCNvNtCsdnTG4X9gKe5_15tensor4all_capi11tensortrain18t4a_tt_orthocenter0B5_
FN:466,_RNCNvNtCsdnTG4X9gKe5_15tensor4all_capi11tensortrain20t4a_tt_orthogonalize0B5_
FN:429,_RNCNvNtCsdnTG4X9gKe5_15tensor4all_capi11tensortrain21t4a_tt_canonical_form0B5_
FN:496,_RNCNvNtCsdnTG4X9gKe5_15tensor4all_capi11tensortrain25t4a_tt_orthogonalize_with0B5_
FN:214,t4a_tt_bond_dims
FN:421,t4a_tt_canonical_form
FN:636,t4a_tt_contract
FN:586,t4a_tt_inner
FN:117,t4a_tt_is_empty
FN:306,t4a_tt_isortho
FN:92,t4a_tt_len
FN:275,t4a_tt_linkind
FN:366,t4a_tt_llim
FN:249,t4a_tt_maxbonddim
FN:36,t4a_tt_new
FN:68,t4a_tt_new_empty
FN:556,t4a_tt_norm
FN:332,t4a_tt_orthocenter
FN:458,t4a_tt_orthogonalize
FN:487,t4a_tt_orthogonalize_with
FN:395,t4a_tt_rlim
FN:179,t4a_tt_set_tensor
FN:143,t4a_tt_tensor
FN:518,t4a_tt_truncate
FN:693,_RNvNtNtCsdnTG4X9gKe5_15tensor4all_capi11tensortrain5testss_17test_tt_lifecycle
FN:718,_RNvNtNtCsdnTG4X9gKe5_15tensor4all_capi11tensortrain5testss_20test_tt_from_tensors
FN:766,_RNvNtNtCsdnTG4X9gKe5_15tensor4all_capi11tensortrain5testss_42test_tt_contract_rounds_up_odd_nhalfsweeps
FNDA:6,_RNCNvNtNtCsdnTG4X9gKe5_15tensor4all_capi11tensortrain5testss_20test_tt_from_tensors0B7_
FNDA:6,_RNCNvNtNtCsdnTG4X9gKe5_15tensor4all_capi11tensortrain5testss_20test_tt_from_tensorss_0B7_
FNDA:4,_RNCNCNvNtCsdnTG4X9gKe5_15tensor4all_capi11tensortrain10t4a_tt_new00B7_
FNDA:2,_RNCNvNtCsdnTG4X9gKe5_15tensor4all_capi11tensortrain10t4a_tt_len0B5_
FNDA:3,_RNCNvNtCsdnTG4X9gKe5_15tensor4all_capi11tensortrain10t4a_tt_new0B5_
FNDA:0,_RNCNvNtCsdnTG4X9gKe5_15tensor4all_capi11tensortrain11t4a_tt_llim0B5_
FNDA:0,_RNCNvNtCsdnTG4X9gKe5_15tensor4all_capi11tensortrain11t4a_tt_norm0B5_
FNDA:0,_RNCNvNtCsdnTG4X9gKe5_15tensor4all_capi11tensortrain11t4a_tt_rlim0B5_
FNDA:0,_RNCNvNtCsdnTG4X9gKe5_15tensor4all_capi11tensortrain12t4a_tt_inner0B5_
FNDA:0,_RNCNvNtCsdnTG4X9gKe5_15tensor4all_capi11tensortrain13t4a_tt_tensor0B5_
FNDA:0,_RNCNvNtCsdnTG4X9gKe5_15tensor4all_capi11tensortrain14t4a_tt_isortho0B5_
FNDA:0,_RNCNvNtCsdnTG4X9gKe5_15tensor4all_capi11tensortrain14t4a_tt_linkind0B5_
FNDA:1,_RNCNvNtCsdnTG4X9gKe5_15tensor4all_capi11tensortrain15t4a_tt_contract0B5_
FNDA:1,_RNCNvNtCsdnTG4X9gKe5_15tensor4all_capi11tensortrain15t4a_tt_is_empty0B5_
FNDA:0,_RNCNvNtCsdnTG4X9gKe5_15tensor4all_capi11tensortrain15t4a_tt_truncate0B5_
FNDA:0,_RNCNvNtCsdnTG4X9gKe5_15tensor4all_capi11tensortrain16t4a_tt_bond_dims0B5_
FNDA:1,_RNCNvNtCsdnTG4X9gKe5_15tensor4all_capi11tensortrain16t4a_tt_new_empty0B5_
FNDA:1,_RNCNvNtCsdnTG4X9gKe5_15tensor4all_capi11tensortrain17t4a_tt_maxbonddim0B5_
FNDA:0,_RNCNvNtCsdnTG4X9gKe5_15tensor4all_capi11tensortrain17t4a_tt_set_tensor0B5_
FNDA:0,_RNCNvNtCsdnTG4X9gKe5_15tensor4all_capi11tensortrain18t4a_tt_orthocenter0B5_
FNDA:0,_RNCNvNtCsdnTG4X9gKe5_15tensor4all_capi11tensortrain20t4a_tt_orthogonalize0B5_
FNDA:0,_RNCNvNtCsdnTG4X9gKe5_15tensor4all_capi11tensortrain21t4a_tt_canonical_form0B5_
FNDA:0,_RNCNvNtCsdnTG4X9gKe5_15tensor4all_capi11tensortrain25t4a_tt_orthogonalize_with0B5_
FNDA:0,t4a_tt_bond_dims
FNDA:0,t4a_tt_canonical_form
FNDA:1,t4a_tt_contract
FNDA:0,t4a_tt_inner
FNDA:1,t4a_tt_is_empty
FNDA:0,t4a_tt_isortho
FNDA:2,t4a_tt_len
FNDA:0,t4a_tt_linkind
FNDA:0,t4a_tt_llim
FNDA:1,t4a_tt_maxbonddim
FNDA:3,t4a_tt_new
FNDA:1,t4a_tt_new_empty
FNDA:0,t4a_tt_norm
FNDA:0,t4a_tt_orthocenter
FNDA:0,t4a_tt_orthogonalize
FNDA:0,t4a_tt_orthogonalize_with
FNDA:0,t4a_tt_rlim
FNDA:0,t4a_tt_set_tensor
FNDA:0,t4a_tt_tensor
FNDA:0,t4a_tt_truncate
FNDA:1,_RNvNtNtCsdnTG4X9gKe5_15tensor4all_capi11tensortrain5testss_17test_tt_lifecycle
FNDA:1,_RNvNtNtCsdnTG4X9gKe5_15tensor4all_capi11tensortrain5testss_20test_tt_from_tensors
FNDA:1,_RNvNtNtCsdnTG4X9gKe5_15tensor4all_capi11tensortrain5testss_42test_tt_contract_rounds_up_odd_nhalfsweeps
FNF:46
FNH:18
DA:36,3
DA:37,3
DA:38,3
DA:39,3
DA:40,3
DA:41,0
DA:42,3
DA:44,3
DA:46,3
DA:47,3
DA:48,4
DA:49,4
DA:50,4
DA:51,3
DA:54,3
DA:55,3
DA:56,0
DA:58,3
DA:60,3
DA:61,3
DA:68,1
DA:69,1
DA:70,1
DA:71,1
DA:72,0
DA:74,1
DA:76,1
DA:77,1
DA:92,2
DA:93,2
DA:94,2
DA:95,2
DA:96,2
DA:97,0
DA:98,2
DA:100,2
DA:101,2
DA:102,2
DA:103,2
DA:104,2
DA:106,2
DA:107,2
DA:117,1
DA:118,1
DA:119,0
DA:120,1
DA:122,1
DA:123,1
DA:124,1
DA:125,1
DA:127,0
DA:129,1
DA:131,1
DA:132,1
DA:143,0
DA:144,0
DA:145,0
DA:146,0
DA:147,0
DA:148,0
DA:149,0
DA:151,0
DA:152,0
DA:153,0
DA:154,0
DA:155,0
DA:156,0
DA:157,0
DA:158,0
DA:160,0
DA:161,0
DA:179,0
DA:180,0
DA:181,0
DA:182,0
DA:183,0
DA:184,0
DA:185,0
DA:186,0
DA:188,0
DA:189,0
DA:190,0
DA:192,0
DA:193,0
DA:194,0
DA:196,0
DA:197,0
DA:198,0
DA:199,0
DA:201,0
DA:202,0
DA:214,0
DA:215,0
DA:216,0
DA:217,0
DA:218,0
DA:219,0
DA:220,0
DA:221,0
DA:223,0
DA:224,0
DA:225,0
DA:227,0
DA:228,0
DA:229,0
DA:231,0
DA:232,0
DA:233,0
DA:234,0
DA:235,0
DA:237,0
DA:238,0
DA:249,1
DA:250,1
DA:251,1
DA:252,1
DA:253,1
DA:254,0
DA:255,1
DA:257,1
DA:258,1
DA:259,1
DA:260,1
DA:261,1
DA:263,1
DA:264,1
DA:275,0
DA:276,0
DA:277,0
DA:278,0
DA:279,0
DA:280,0
DA:281,0
DA:283,0
DA:284,0
DA:285,0
DA:286,0
DA:287,0
DA:289,0
DA:291,0
DA:292,0
DA:306,0
DA:307,0
DA:308,0
DA:309,0
DA:311,0
DA:312,0
DA:313,0
DA:314,0
DA:316,0
DA:318,0
DA:320,0
DA:321,0
DA:332,0
DA:333,0
DA:334,0
DA:335,0
DA:336,0
DA:337,0
DA:338,0
DA:340,0
DA:341,0
DA:342,0
DA:343,0
DA:344,0
DA:345,0
DA:347,0
DA:349,0
DA:351,0
DA:352,0
DA:366,0
DA:367,0
DA:368,0
DA:369,0
DA:370,0
DA:371,0
DA:372,0
DA:374,0
DA:375,0
DA:376,0
DA:377,0
DA:378,0
DA:380,0
DA:381,0
DA:395,0
DA:396,0
DA:397,0
DA:398,0
DA:399,0
DA:400,0
DA:401,0
DA:403,0
DA:404,0
DA:405,0
DA:406,0
DA:407,0
DA:409,0
DA:410,0
DA:421,0
DA:422,0
DA:423,0
DA:424,0
DA:425,0
DA:426,0
DA:427,0
DA:429,0
DA:430,0
DA:431,0
DA:432,0
DA:433,0
DA:434,0
DA:436,0
DA:438,0
DA:440,0
DA:441,0
DA:458,0
DA:459,0
DA:460,0
DA:461,0
DA:462,0
DA:463,0
DA:464,0
DA:466,0
DA:467,0
DA:468,0
DA:469,0
DA:470,0
DA:472,0
DA:474,0
DA:475,0
DA:487,0
DA:488,0
DA:489,0
DA:490,0
DA:491,0
DA:492,0
DA:493,0
DA:494,0
DA:496,0
DA:497,0
DA:498,0
DA:499,0
DA:500,0
DA:501,0
DA:503,0
DA:505,0
DA:506,0
DA:518,0
DA:519,0
DA:520,0
DA:521,0
DA:522,0
DA:523,0
DA:524,0
DA:525,0
DA:527,0
DA:528,0
DA:530,0
DA:531,0
DA:532,0
DA:533,0
DA:534,0
DA:535,0
DA:536,0
DA:538,0
DA:539,0
DA:540,0
DA:542,0
DA:544,0
DA:545,0
DA:556,0
DA:557,0
DA:558,0
DA:559,0
DA:560,0
DA:561,0
DA:562,0
DA:564,0
DA:565,0
DA:566,0
DA:567,0
DA:568,0
DA:570,0
DA:571,0
DA:586,0
DA:587,0
DA:588,0
DA:589,0
DA:590,0
DA:591,0
DA:592,0
DA:593,0
DA:594,0
DA:596,0
DA:599,0
DA:600,0
DA:602,0
DA:604,0
DA:605,0
DA:606,0
DA:607,0
DA:608,0
DA:609,0
DA:610,0
DA:611,0
DA:612,0
DA:615,0
DA:616,0
DA:618,0
DA:619,0
DA:636,1
DA:637,1
DA:638,1
DA:639,1
DA:640,1
DA:641,1
DA:642,1
DA:643,1
DA:644,1
DA:645,0
DA:646,1
DA:648,1
DA:651,1
DA:652,1
DA:655,1
DA:656,1
DA:657,1
DA:658,0
DA:659,0
DA:662,1
DA:663,0
DA:664,1
DA:665,1
DA:666,0
DA:667,1
DA:668,1
DA:671,1
DA:672,0
DA:674,1
DA:676,1
DA:677,0
DA:679,1
DA:680,1
DA:681,0
DA:683,1
DA:685,1
DA:686,1
DA:693,1
DA:695,1
DA:696,1
DA:699,1
DA:700,1
DA:703,1
DA:704,1
DA:705,1
DA:706,1
DA:709,1
DA:710,1
DA:713,1
DA:714,1
DA:715,1
DA:718,1
DA:722,1
DA:723,1
DA:724,1
DA:727,6
DA:728,6
DA:731,1
DA:732,1
DA:733,1
DA:735,1
DA:736,1
DA:737,1
DA:738,1
DA:741,1
DA:742,1
DA:743,1
DA:746,1
DA:747,1
DA:748,1
DA:751,1
DA:752,1
DA:753,1
DA:756,1
DA:757,1
DA:758,1
DA:759,1
DA:760,1
DA:761,1
DA:762,1
DA:763,1
DA:766,1
DA:770,1
DA:771,1
DA:773,1
DA:774,1
DA:776,1
DA:777,1
DA:778,1
DA:780,1
DA:781,1
DA:782,1
DA:784,1
DA:785,1
DA:786,1
DA:787,1
DA:788,1
DA:789,1
DA:792,1
DA:793,1
DA:794,1
DA:795,1
DA:800,1
DA:803,1
DA:804,1
DA:805,1
DA:806,1
DA:807,1
DA:808,1
DA:809,1
DA:810,1
BRF:0
BRH:0
LF:443
LH:172
end_of_record
SF:/Users/ken/git_for_collab4/tensor4all-rs/crates/tensor4all-capi/src/types.rs
FN:344,_RNvXsj_NtCsdnTG4X9gKe5_15tensor4all_capi5typesNtNtCsjwG9vXUec8I_22tensor4all_itensorlike7options14ContractMethodINtNtCskzPJi2J8k3N_4core7convert4FromNtB5_19t4a_contract_methodE4from
FN:119,_RNvMs4_NtCsdnTG4X9gKe5_15tensor4all_capi5typesNtB5_10t4a_tensor9inner_mut
FN:260,_RNvXsg_NtCsdnTG4X9gKe5_15tensor4all_capi5typesNtB5_23t4a_factorize_algorithmINtNtCskzPJi2J8k3N_4core7convert4FromNtNtCs55lPmkOpiMP_15tensor4all_core11tensor_like12FactorizeAlgE4from
FN:271,_RNvXsh_NtCsdnTG4X9gKe5_15tensor4all_capi5typesNtNtCs55lPmkOpiMP_15tensor4all_core11tensor_like12FactorizeAlgINtNtCskzPJi2J8k3N_4core7convert4FromNtB5_23t4a_factorize_algorithmE4from
FN:334,_RNvXsi_NtCsdnTG4X9gKe5_15tensor4all_capi5typesNtB5_19t4a_contract_methodINtNtCskzPJi2J8k3N_4core7convert4FromNtNtCsjwG9vXUec8I_22tensor4all_itensorlike7options14ContractMethodE4from
FN:227,_RNvXsf_NtCsdnTG4X9gKe5_15tensor4all_capi5typesNtNtCslQORuovpJia_17tensor4all_treetn9algorithm13CanonicalFormINtNtCskzPJi2J8k3N_4core7convert4FromNtB5_18t4a_canonical_formE4from
FN:53,_RNvXs0_NtCsdnTG4X9gKe5_15tensor4all_capi5typesNtB5_9t4a_indexNtNtNtCskzPJi2J8k3N_4core3ops4drop4Drop4drop
FN:132,_RNvXs6_NtCsdnTG4X9gKe5_15tensor4all_capi5typesNtB5_10t4a_tensorNtNtNtCskzPJi2J8k3N_4core3ops4drop4Drop4drop
FN:189,_RNvXsb_NtCsdnTG4X9gKe5_15tensor4all_capi5typesNtB5_15t4a_tensortrainNtNtNtCskzPJi2J8k3N_4core3ops4drop4Drop4drop
FN:28,_RNvMNtCsdnTG4X9gKe5_15tensor4all_capi5typesNtB2_9t4a_index3new
FN:35,_RNvMNtCsdnTG4X9gKe5_15tensor4all_capi5typesNtB2_9t4a_index5inner
FN:40,_RNvMNtCsdnTG4X9gKe5_15tensor4all_capi5typesNtB2_9t4a_index9inner_mut
FN:84,_RNvMs3_NtCsdnTG4X9gKe5_15tensor4all_capi5typesNtB5_16t4a_storage_kind12from_storage
FN:106,_RNvMs4_NtCsdnTG4X9gKe5_15tensor4all_capi5typesNtB5_10t4a_tensor3new
FN:113,_RNvMs4_NtCsdnTG4X9gKe5_15tensor4all_capi5typesNtB5_10t4a_tensor5inner
FN:164,_RNvMs9_NtCsdnTG4X9gKe5_15tensor4all_capi5typesNtB5_15t4a_tensortrain3new
FN:171,_RNvMs9_NtCsdnTG4X9gKe5_15tensor4all_capi5typesNtB5_15t4a_tensortrain5inner
FN:176,_RNvMs9_NtCsdnTG4X9gKe5_15tensor4all_capi5typesNtB5_15t4a_tensortrain9inner_mut
FN:125,_RNvXs5_NtCsdnTG4X9gKe5_15tensor4all_capi5typesNtB5_10t4a_tensorNtNtCskzPJi2J8k3N_4core5clone5Clone5clone
FN:46,_RNvXs_NtCsdnTG4X9gKe5_15tensor4all_capi5typesNtB4_9t4a_indexNtNtCskzPJi2J8k3N_4core5clone5Clone5clone
FN:182,_RNvXsa_NtCsdnTG4X9gKe5_15tensor4all_capi5typesNtB5_15t4a_tensortrainNtNtCskzPJi2J8k3N_4core5clone5Clone5clone
FN:217,_RNvXse_NtCsdnTG4X9gKe5_15tensor4all_capi5typesNtB5_18t4a_canonical_formINtNtCskzPJi2J8k3N_4core7convert4FromNtNtCslQORuovpJia_17tensor4all_treetn9algorithm13CanonicalFormE4from
FNDA:1,_RNvXsj_NtCsdnTG4X9gKe5_15tensor4all_capi5typesNtNtCsjwG9vXUec8I_22tensor4all_itensorlike7options14ContractMethodINtNtCskzPJi2J8k3N_4core7convert4FromNtB5_19t4a_contract_methodE4from
FNDA:0,_RNvMs4_NtCsdnTG4X9gKe5_15tensor4all_capi5typesNtB5_10t4a_tensor9inner_mut
FNDA:0,_RNvXsg_NtCsdnTG4X9gKe5_15tensor4all_capi5typesNtB5_23t4a_factorize_algorithmINtNtCskzPJi2J8k3N_4core7convert4FromNtNtCs55lPmkOpiMP_15tensor4all_core11tensor_like12FactorizeAlgE4from
FNDA:0,_RNvXsh_NtCsdnTG4X9gKe5_15tensor4all_capi5typesNtNtCs55lPmkOpiMP_15tensor4all_core11tensor_like12FactorizeAlgINtNtCskzPJi2J8k3N_4core7convert4FromNtB5_23t4a_factorize_algorithmE4from
FNDA:0,_RNvXsi_NtCsdnTG4X9gKe5_15tensor4all_capi5typesNtB5_19t4a_contract_methodINtNtCskzPJi2J8k3N_4core7convert4FromNtNtCsjwG9vXUec8I_22tensor4all_itensorlike7options14ContractMethodE4from
FNDA:0,_RNvXsf_NtCsdnTG4X9gKe5_15tensor4all_capi5typesNtNtCslQORuovpJia_17tensor4all_treetn9algorithm13CanonicalFormINtNtCskzPJi2J8k3N_4core7convert4FromNtB5_18t4a_canonical_formE4from
FNDA:21,_RNvXs0_NtCsdnTG4X9gKe5_15tensor4all_capi5typesNtB5_9t4a_indexNtNtNtCskzPJi2J8k3N_4core3ops4drop4Drop4drop
FNDA:8,_RNvXs6_NtCsdnTG4X9gKe5_15tensor4all_capi5typesNtB5_10t4a_tensorNtNtNtCskzPJi2J8k3N_4core3ops4drop4Drop4drop
FNDA:6,_RNvXsb_NtCsdnTG4X9gKe5_15tensor4all_capi5typesNtB5_15t4a_tensortrainNtNtNtCskzPJi2J8k3N_4core3ops4drop4Drop4drop
FNDA:21,_RNvMNtCsdnTG4X9gKe5_15tensor4all_capi5typesNtB2_9t4a_index3new
FNDA:30,_RNvMNtCsdnTG4X9gKe5_15tensor4all_capi5typesNtB2_9t4a_index5inner
FNDA:0,_RNvMNtCsdnTG4X9gKe5_15tensor4all_capi5typesNtB2_9t4a_index9inner_mut
FNDA:2,_RNvMs3_NtCsdnTG4X9gKe5_15tensor4all_capi5typesNtB5_16t4a_storage_kind12from_storage
FNDA:8,_RNvMs4_NtCsdnTG4X9gKe5_15tensor4all_capi5typesNtB5_10t4a_tensor3new
FNDA:13,_RNvMs4_NtCsdnTG4X9gKe5_15tensor4all_capi5typesNtB5_10t4a_tensor5inner
FNDA:6,_RNvMs9_NtCsdnTG4X9gKe5_15tensor4all_capi5typesNtB5_15t4a_tensortrain3new
FNDA:7,_RNvMs9_NtCsdnTG4X9gKe5_15tensor4all_capi5typesNtB5_15t4a_tensortrain5inner
FNDA:0,_RNvMs9_NtCsdnTG4X9gKe5_15tensor4all_capi5typesNtB5_15t4a_tensortrain9inner_mut
FNDA:1,_RNvXs5_NtCsdnTG4X9gKe5_15tensor4all_capi5typesNtB5_10t4a_tensorNtNtCskzPJi2J8k3N_4core5clone5Clone5clone
FNDA:3,_RNvXs_NtCsdnTG4X9gKe5_15tensor4all_capi5typesNtB4_9t4a_indexNtNtCskzPJi2J8k3N_4core5clone5Clone5clone
FNDA:1,_RNvXsa_NtCsdnTG4X9gKe5_15tensor4all_capi5typesNtB5_15t4a_tensortrainNtNtCskzPJi2J8k3N_4core5clone5Clone5clone
FNDA:0,_RNvXse_NtCsdnTG4X9gKe5_15tensor4all_capi5typesNtB5_18t4a_canonical_formINtNtCskzPJi2J8k3N_4core7convert4FromNtNtCslQORuovpJia_17tensor4all_treetn9algorithm13CanonicalFormE4from
FNF:22
FNH:14
DA:28,21
DA:29,21
DA:30,21
DA:31,21
DA:32,21
DA:35,30
DA:36,30
DA:37,30
DA:40,0
DA:41,0
DA:42,0
DA:46,3
DA:47,3
DA:48,3
DA:49,3
DA:53,21
DA:55,21
DA:56,21
DA:57,21
DA:59,21
DA:84,2
DA:85,2
DA:86,1
DA:87,1
DA:88,0
DA:89,0
DA:91,2
DA:106,8
DA:107,8
DA:108,8
DA:109,8
DA:110,8
DA:113,13
DA:114,13
DA:115,13
DA:119,0
DA:120,0
DA:121,0
DA:125,1
DA:126,1
DA:127,1
DA:128,1
DA:132,8
DA:134,8
DA:135,8
DA:136,8
DA:138,8
DA:164,6
DA:165,6
DA:166,6
DA:167,6
DA:168,6
DA:171,7
DA:172,7
DA:173,7
DA:176,0
DA:177,0
DA:178,0
DA:182,1
DA:183,1
DA:184,1
DA:185,1
DA:189,6
DA:191,6
DA:192,6
DA:193,6
DA:195,6
DA:217,0
DA:218,0
DA:219,0
DA:220,0
DA:221,0
DA:223,0
DA:227,0
DA:228,0
DA:229,0
DA:230,0
DA:231,0
DA:233,0
DA:260,0
DA:261,0
DA:262,0
DA:263,0
DA:264,0
DA:265,0
DA:267,0
DA:271,0
DA:272,0
DA:273,0
DA:274,0
DA:275,0
DA:276,0
DA:278,0
DA:334,0
DA:335,0
DA:336,0
DA:337,0
DA:338,0
DA:340,0
DA:344,1
DA:345,1
DA:346,1
DA:347,0
DA:348,0
DA:350,1
BRF:0
BRH:0
LF:105
LH:60
end_of_record
SF:/Users/ken/git_for_collab4/tensor4all-rs/crates/tensor4all-core/src/defaults/contract.rs
FN:280,_RNvMNtNtCs55lPmkOpiMP_15tensor4all_core8defaults8contractNtB2_20RemappedAllowedPairs6as_ref
FN:294,_RNvNtNtCs55lPmkOpiMP_15tensor4all_core8defaults8contract13contract_pair
FN:57,_RNvNtNtCs55lPmkOpiMP_15tensor4all_core8defaults8contract14contract_multi
FN:437,_RNvNtNtCs55lPmkOpiMP_15tensor4all_core8defaults8contract18build_internal_ids
FN:136,_RNvNtNtCs55lPmkOpiMP_15tensor4all_core8defaults8contract18contract_connected
FN:246,_RNvNtNtCs55lPmkOpiMP_15tensor4all_core8defaults8contract19remap_allowed_pairs
FN:588,_RNvNtNtCs55lPmkOpiMP_15tensor4all_core8defaults8contract24execute_contraction_tree
FN:152,_RNvNtNtCs55lPmkOpiMP_15tensor4all_core8defaults8contract24has_contractable_indices
FN:531,_RNvNtNtCs55lPmkOpiMP_15tensor4all_core8defaults8contract24validate_connected_graph
FN:317,_RNvNtNtCs55lPmkOpiMP_15tensor4all_core8defaults8contract28contract_connected_optimized
FN:169,_RNvNtNtCs55lPmkOpiMP_15tensor4all_core8defaults8contract32find_tensor_connected_components
FN:301,_RNCNCNvNtNtCs55lPmkOpiMP_15tensor4all_core8defaults8contract13contract_pair00B9_
FN:302,_RNCNCNvNtNtCs55lPmkOpiMP_15tensor4all_core8defaults8contract13contract_pair0s_0B9_
FN:520,_RNCNCNvNtNtCs55lPmkOpiMP_15tensor4all_core8defaults8contract18build_internal_idss_00B9_
FN:155,_RNCNCNvNtNtCs55lPmkOpiMP_15tensor4all_core8defaults8contract24has_contractable_indices00B9_
FN:390,_RNCNCNvNtNtCs55lPmkOpiMP_15tensor4all_core8defaults8contract28contract_connected_optimizeds1_00B9_
FN:298,_RNCNvNtNtCs55lPmkOpiMP_15tensor4all_core8defaults8contract13contract_pair0B7_
FN:86,_RNCNvNtNtCs55lPmkOpiMP_15tensor4all_core8defaults8contract14contract_multi0B7_
FN:449,_RNCNvNtNtCs55lPmkOpiMP_15tensor4all_core8defaults8contract18build_internal_ids0B7_
FN:518,_RNCNvNtNtCs55lPmkOpiMP_15tensor4all_core8defaults8contract18build_internal_idss_0B7_
FN:254,_RNCNvNtNtCs55lPmkOpiMP_15tensor4all_core8defaults8contract19remap_allowed_pairs0B7_
FN:260,_RNCNvNtNtCs55lPmkOpiMP_15tensor4all_core8defaults8contract19remap_allowed_pairss_0B7_
FN:598,_RNCNvNtNtCs55lPmkOpiMP_15tensor4all_core8defaults8contract24execute_contraction_tree0B7_
FN:155,_RNCNvNtNtCs55lPmkOpiMP_15tensor4all_core8defaults8contract24has_contractable_indices0B7_
FN:351,_RNCNvNtNtCs55lPmkOpiMP_15tensor4all_core8defaults8contract28contract_connected_optimized0B7_
FN:368,_RNCNvNtNtCs55lPmkOpiMP_15tensor4all_core8defaults8contract28contract_connected_optimizeds0_0B7_
FN:386,_RNCNvNtNtCs55lPmkOpiMP_15tensor4all_core8defaults8contract28contract_connected_optimizeds1_0B7_
FN:407,_RNCNvNtNtCs55lPmkOpiMP_15tensor4all_core8defaults8contract28contract_connected_optimizeds2_0B7_
FN:183,_RNCNvNtNtCs55lPmkOpiMP_15tensor4all_core8defaults8contract32find_tensor_connected_components0B7_
FN:238,_RNCNvNtNtCs55lPmkOpiMP_15tensor4all_core8defaults8contract32find_tensor_connected_componentss_0B7_
FN:280,_RNvMNtNtCs9q2tZtL9dYv_15tensor4all_core8defaults8contractNtB2_20RemappedAllowedPairs6as_ref
FN:294,_RNvNtNtCs9q2tZtL9dYv_15tensor4all_core8defaults8contract13contract_pair
FN:57,_RNvNtNtCs9q2tZtL9dYv_15tensor4all_core8defaults8contract14contract_multi
FN:437,_RNvNtNtCs9q2tZtL9dYv_15tensor4all_core8defaults8contract18build_internal_ids
FN:136,_RNvNtNtCs9q2tZtL9dYv_15tensor4all_core8defaults8contract18contract_connected
FN:246,_RNvNtNtCs9q2tZtL9dYv_15tensor4all_core8defaults8contract19remap_allowed_pairs
FN:588,_RNvNtNtCs9q2tZtL9dYv_15tensor4all_core8defaults8contract24execute_contraction_tree
FN:152,_RNvNtNtCs9q2tZtL9dYv_15tensor4all_core8defaults8contract24has_contractable_indices
FN:531,_RNvNtNtCs9q2tZtL9dYv_15tensor4all_core8defaults8contract24validate_connected_graph
FN:317,_RNvNtNtCs9q2tZtL9dYv_15tensor4all_core8defaults8contract28contract_connected_optimized
FN:169,_RNvNtNtCs9q2tZtL9dYv_15tensor4all_core8defaults8contract32find_tensor_connected_components
FN:301,_RNCNCNvNtNtCs9q2tZtL9dYv_15tensor4all_core8defaults8contract13contract_pair00B9_
FN:302,_RNCNCNvNtNtCs9q2tZtL9dYv_15tensor4all_core8defaults8contract13contract_pair0s_0B9_
FN:520,_RNCNCNvNtNtCs9q2tZtL9dYv_15tensor4all_core8defaults8contract18build_internal_idss_00B9_
FN:155,_RNCNCNvNtNtCs9q2tZtL9dYv_15tensor4all_core8defaults8contract24has_contractable_indices00B9_
FN:390,_RNCNCNvNtNtCs9q2tZtL9dYv_15tensor4all_core8defaults8contract28contract_connected_optimizeds1_00B9_
FN:298,_RNCNvNtNtCs9q2tZtL9dYv_15tensor4all_core8defaults8contract13contract_pair0B7_
FN:86,_RNCNvNtNtCs9q2tZtL9dYv_15tensor4all_core8defaults8contract14contract_multi0B7_
FN:449,_RNCNvNtNtCs9q2tZtL9dYv_15tensor4all_core8defaults8contract18build_internal_ids0B7_
FN:518,_RNCNvNtNtCs9q2tZtL9dYv_15tensor4all_core8defaults8contract18build_internal_idss_0B7_
FN:254,_RNCNvNtNtCs9q2tZtL9dYv_15tensor4all_core8defaults8contract19remap_allowed_pairs0B7_
FN:260,_RNCNvNtNtCs9q2tZtL9dYv_15tensor4all_core8defaults8contract19remap_allowed_pairss_0B7_
FN:598,_RNCNvNtNtCs9q2tZtL9dYv_15tensor4all_core8defaults8contract24execute_contraction_tree0B7_
FN:155,_RNCNvNtNtCs9q2tZtL9dYv_15tensor4all_core8defaults8contract24has_contractable_indices0B7_
FN:351,_RNCNvNtNtCs9q2tZtL9dYv_15tensor4all_core8defaults8contract28contract_connected_optimized0B7_
FN:368,_RNCNvNtNtCs9q2tZtL9dYv_15tensor4all_core8defaults8contract28contract_connected_optimizeds0_0B7_
FN:386,_RNCNvNtNtCs9q2tZtL9dYv_15tensor4all_core8defaults8contract28contract_connected_optimizeds1_0B7_
FN:407,_RNCNvNtNtCs9q2tZtL9dYv_15tensor4all_core8defaults8contract28contract_connected_optimizeds2_0B7_
FN:183,_RNCNvNtNtCs9q2tZtL9dYv_15tensor4all_core8defaults8contract32find_tensor_connected_components0B7_
FN:238,_RNCNvNtNtCs9q2tZtL9dYv_15tensor4all_core8defaults8contract32find_tensor_connected_componentss_0B7_
FN:619,_RNvNtNtNtCs9q2tZtL9dYv_15tensor4all_core8defaults8contract5tests16make_test_tensor
FN:674,_RNvNtNtNtCs9q2tZtL9dYv_15tensor4all_core8defaults8contract5testss_24test_contract_multi_four
FN:650,_RNvNtNtNtCs9q2tZtL9dYv_15tensor4all_core8defaults8contract5testss_24test_contract_multi_pair
FN:869,_RNvNtNtNtCs9q2tZtL9dYv_15tensor4all_core8defaults8contract5testss_24test_omeco_hyperedge_svd
FN:635,_RNvNtNtNtCs9q2tZtL9dYv_15tensor4all_core8defaults8contract5testss_25test_contract_multi_empty
FN:660,_RNvNtNtNtCs9q2tZtL9dYv_15tensor4all_core8defaults8contract5testss_25test_contract_multi_three
FN:642,_RNvNtNtNtCs9q2tZtL9dYv_15tensor4all_core8defaults8contract5testss_26test_contract_multi_single
FN:822,_RNvNtNtNtCs9q2tZtL9dYv_15tensor4all_core8defaults8contract5testss_26test_omeco_hyperedge_delta
FN:743,_RNvNtNtNtCs9q2tZtL9dYv_15tensor4all_core8defaults8contract5testss_29test_contract_specified_pairs
FN:797,_RNvNtNtNtCs9q2tZtL9dYv_15tensor4all_core8defaults8contract5testss_29test_validate_connected_graph
FN:689,_RNvNtNtNtCs9q2tZtL9dYv_15tensor4all_core8defaults8contract5testss_33test_contract_multi_outer_product
FN:702,_RNvNtNtNtCs9q2tZtL9dYv_15tensor4all_core8defaults8contract5testss_40test_contract_multi_vector_outer_product
FN:715,_RNvNtNtNtCs9q2tZtL9dYv_15tensor4all_core8defaults8contract5testss_42test_contract_connected_disconnected_error
FN:777,_RNvNtNtNtCs9q2tZtL9dYv_15tensor4all_core8defaults8contract5testss_50test_contract_specified_disconnected_outer_product
FN:759,_RNvNtNtNtCs9q2tZtL9dYv_15tensor4all_core8defaults8contract5testss_53test_contract_specified_no_contractable_indices_error
FN:726,_RNvNtNtNtCs9q2tZtL9dYv_15tensor4all_core8defaults8contract5testss_55test_contract_connected_specified_no_contractable_error
FN:623,_RNCNvNtNtNtCs9q2tZtL9dYv_15tensor4all_core8defaults8contract5tests16make_test_tensor0B9_
FN:628,_RNCNvNtNtNtCs9q2tZtL9dYv_15tensor4all_core8defaults8contract5tests16make_test_tensors_0B9_
FNDA:22,_RNvMNtNtCs55lPmkOpiMP_15tensor4all_core8defaults8contractNtB2_20RemappedAllowedPairs6as_ref
FNDA:2187,_RNvNtNtCs55lPmkOpiMP_15tensor4all_core8defaults8contract13contract_pair
FNDA:1911,_RNvNtNtCs55lPmkOpiMP_15tensor4all_core8defaults8contract14contract_multi
FNDA:1902,_RNvNtNtCs55lPmkOpiMP_15tensor4all_core8defaults8contract18build_internal_ids
FNDA:1922,_RNvNtNtCs55lPmkOpiMP_15tensor4all_core8defaults8contract18contract_connected
FNDA:22,_RNvNtNtCs55lPmkOpiMP_15tensor4all_core8defaults8contract19remap_allowed_pairs
FNDA:6276,_RNvNtNtCs55lPmkOpiMP_15tensor4all_core8defaults8contract24execute_contraction_tree
FNDA:2525,_RNvNtNtCs55lPmkOpiMP_15tensor4all_core8defaults8contract24has_contractable_indices
FNDA:3,_RNvNtNtCs55lPmkOpiMP_15tensor4all_core8defaults8contract24validate_connected_graph
FNDA:1902,_RNvNtNtCs55lPmkOpiMP_15tensor4all_core8defaults8contract28contract_connected_optimized
FNDA:1911,_RNvNtNtCs55lPmkOpiMP_15tensor4all_core8defaults8contract32find_tensor_connected_components
FNDA:13733,_RNCNCNvNtNtCs55lPmkOpiMP_15tensor4all_core8defaults8contract13contract_pair00B9_
FNDA:2746,_RNCNCNvNtNtCs55lPmkOpiMP_15tensor4all_core8defaults8contract13contract_pair0s_0B9_
FNDA:11404,_RNCNCNvNtNtCs55lPmkOpiMP_15tensor4all_core8defaults8contract18build_internal_idss_00B9_
FNDA:11264,_RNCNCNvNtNtCs55lPmkOpiMP_15tensor4all_core8defaults8contract24has_contractable_indices00B9_
FNDA:11404,_RNCNCNvNtNtCs55lPmkOpiMP_15tensor4all_core8defaults8contract28contract_connected_optimizeds1_00B9_
FNDA:5721,_RNCNvNtNtCs55lPmkOpiMP_15tensor4all_core8defaults8contract13contract_pair0B7_
FNDA:24,_RNCNvNtNtCs55lPmkOpiMP_15tensor4all_core8defaults8contract14contract_multi0B7_
FNDA:2509,_RNCNvNtNtCs55lPmkOpiMP_15tensor4all_core8defaults8contract18build_internal_ids0B7_
FNDA:4089,_RNCNvNtNtCs55lPmkOpiMP_15tensor4all_core8defaults8contract18build_internal_idss_0B7_
FNDA:8,_RNCNvNtNtCs55lPmkOpiMP_15tensor4all_core8defaults8contract19remap_allowed_pairs0B7_
FNDA:4,_RNCNvNtNtCs55lPmkOpiMP_15tensor4all_core8defaults8contract19remap_allowed_pairss_0B7_
FNDA:4374,_RNCNvNtNtCs55lPmkOpiMP_15tensor4all_core8defaults8contract24execute_contraction_tree0B7_
FNDA:4978,_RNCNvNtNtCs55lPmkOpiMP_15tensor4all_core8defaults8contract24has_contractable_indices0B7_
FNDA:8658,_RNCNvNtNtCs55lPmkOpiMP_15tensor4all_core8defaults8contract28contract_connected_optimized0B7_
FNDA:0,_RNCNvNtNtCs55lPmkOpiMP_15tensor4all_core8defaults8contract28contract_connected_optimizeds0_0B7_
FNDA:4089,_RNCNvNtNtCs55lPmkOpiMP_15tensor4all_core8defaults8contract28contract_connected_optimizeds1_0B7_
FNDA:5912,_RNCNvNtNtCs55lPmkOpiMP_15tensor4all_core8defaults8contract28contract_connected_optimizeds2_0B7_
FNDA:4109,_RNCNvNtNtCs55lPmkOpiMP_15tensor4all_core8defaults8contract32find_tensor_connected_components0B7_
FNDA:22,_RNCNvNtNtCs55lPmkOpiMP_15tensor4all_core8defaults8contract32find_tensor_connected_componentss_0B7_
FNDA:10,_RNvMNtNtCs9q2tZtL9dYv_15tensor4all_core8defaults8contractNtB2_20RemappedAllowedPairs6as_ref
FNDA:20,_RNvNtNtCs9q2tZtL9dYv_15tensor4all_core8defaults8contract13contract_pair
FNDA:23,_RNvNtNtCs9q2tZtL9dYv_15tensor4all_core8defaults8contract14contract_multi
FNDA:17,_RNvNtNtCs9q2tZtL9dYv_15tensor4all_core8defaults8contract18build_internal_ids
FNDA:26,_RNvNtNtCs9q2tZtL9dYv_15tensor4all_core8defaults8contract18contract_connected
FNDA:10,_RNvNtNtCs9q2tZtL9dYv_15tensor4all_core8defaults8contract19remap_allowed_pairs
FNDA:56,_RNvNtNtCs9q2tZtL9dYv_15tensor4all_core8defaults8contract24execute_contraction_tree
FNDA:39,_RNvNtNtCs9q2tZtL9dYv_15tensor4all_core8defaults8contract24has_contractable_indices
FNDA:11,_RNvNtNtCs9q2tZtL9dYv_15tensor4all_core8defaults8contract24validate_connected_graph
FNDA:18,_RNvNtNtCs9q2tZtL9dYv_15tensor4all_core8defaults8contract28contract_connected_optimized
FNDA:19,_RNvNtNtCs9q2tZtL9dYv_15tensor4all_core8defaults8contract32find_tensor_connected_components
FNDA:42,_RNCNCNvNtNtCs9q2tZtL9dYv_15tensor4all_core8defaults8contract13contract_pair00B9_
FNDA:20,_RNCNCNvNtNtCs9q2tZtL9dYv_15tensor4all_core8defaults8contract13contract_pair0s_0B9_
FNDA:56,_RNCNCNvNtNtCs9q2tZtL9dYv_15tensor4all_core8defaults8contract18build_internal_idss_00B9_
FNDA:92,_RNCNCNvNtNtCs9q2tZtL9dYv_15tensor4all_core8defaults8contract24has_contractable_indices00B9_
FNDA:52,_RNCNCNvNtNtCs9q2tZtL9dYv_15tensor4all_core8defaults8contract28contract_connected_optimizeds1_00B9_
FNDA:30,_RNCNvNtNtCs9q2tZtL9dYv_15tensor4all_core8defaults8contract13contract_pair0B7_
FNDA:12,_RNCNvNtNtCs9q2tZtL9dYv_15tensor4all_core8defaults8contract14contract_multi0B7_
FNDA:25,_RNCNvNtNtCs9q2tZtL9dYv_15tensor4all_core8defaults8contract18build_internal_ids0B7_
FNDA:38,_RNCNvNtNtCs9q2tZtL9dYv_15tensor4all_core8defaults8contract18build_internal_idss_0B7_
FNDA:4,_RNCNvNtNtCs9q2tZtL9dYv_15tensor4all_core8defaults8contract19remap_allowed_pairs0B7_
FNDA:4,_RNCNvNtNtCs9q2tZtL9dYv_15tensor4all_core8defaults8contract19remap_allowed_pairss_0B7_
FNDA:40,_RNCNvNtNtCs9q2tZtL9dYv_15tensor4all_core8defaults8contract24execute_contraction_tree0B7_
FNDA:62,_RNCNvNtNtCs9q2tZtL9dYv_15tensor4all_core8defaults8contract24has_contractable_indices0B7_
FNDA:36,_RNCNvNtNtCs9q2tZtL9dYv_15tensor4all_core8defaults8contract28contract_connected_optimized0B7_
FNDA:0,_RNCNvNtNtCs9q2tZtL9dYv_15tensor4all_core8defaults8contract28contract_connected_optimizeds0_0B7_
FNDA:36,_RNCNvNtNtCs9q2tZtL9dYv_15tensor4all_core8defaults8contract28contract_connected_optimizeds1_0B7_
FNDA:12,_RNCNvNtNtCs9q2tZtL9dYv_15tensor4all_core8defaults8contract28contract_connected_optimizeds2_0B7_
FNDA:44,_RNCNvNtNtCs9q2tZtL9dYv_15tensor4all_core8defaults8contract32find_tensor_connected_components0B7_
FNDA:10,_RNCNvNtNtCs9q2tZtL9dYv_15tensor4all_core8defaults8contract32find_tensor_connected_componentss_0B7_
FNDA:28,_RNvNtNtNtCs9q2tZtL9dYv_15tensor4all_core8defaults8contract5tests16make_test_tensor
FNDA:1,_RNvNtNtNtCs9q2tZtL9dYv_15tensor4all_core8defaults8contract5testss_24test_contract_multi_four
FNDA:1,_RNvNtNtNtCs9q2tZtL9dYv_15tensor4all_core8defaults8contract5testss_24test_contract_multi_pair
FNDA:1,_RNvNtNtNtCs9q2tZtL9dYv_15tensor4all_core8defaults8contract5testss_24test_omeco_hyperedge_svd
FNDA:1,_RNvNtNtNtCs9q2tZtL9dYv_15tensor4all_core8defaults8contract5testss_25test_contract_multi_empty
FNDA:1,_RNvNtNtNtCs9q2tZtL9dYv_15tensor4all_core8defaults8contract5testss_25test_contract_multi_three
FNDA:1,_RNvNtNtNtCs9q2tZtL9dYv_15tensor4all_core8defaults8contract5testss_26test_contract_multi_single
FNDA:1,_RNvNtNtNtCs9q2tZtL9dYv_15tensor4all_core8defaults8contract5testss_26test_omeco_hyperedge_delta
FNDA:1,_RNvNtNtNtCs9q2tZtL9dYv_15tensor4all_core8defaults8contract5testss_29test_contract_specified_pairs
FNDA:1,_RNvNtNtNtCs9q2tZtL9dYv_15tensor4all_core8defaults8contract5testss_29test_validate_connected_graph
FNDA:1,_RNvNtNtNtCs9q2tZtL9dYv_15tensor4all_core8defaults8contract5testss_33test_contract_multi_outer_product
FNDA:1,_RNvNtNtNtCs9q2tZtL9dYv_15tensor4all_core8defaults8contract5testss_40test_contract_multi_vector_outer_product
FNDA:1,_RNvNtNtNtCs9q2tZtL9dYv_15tensor4all_core8defaults8contract5testss_42test_contract_connected_disconnected_error
FNDA:1,_RNvNtNtNtCs9q2tZtL9dYv_15tensor4all_core8defaults8contract5testss_50test_contract_specified_disconnected_outer_product
FNDA:1,_RNvNtNtNtCs9q2tZtL9dYv_15tensor4all_core8defaults8contract5testss_53test_contract_specified_no_contractable_indices_error
FNDA:1,_RNvNtNtNtCs9q2tZtL9dYv_15tensor4all_core8defaults8contract5testss_55test_contract_connected_specified_no_contractable_error
FNDA:54,_RNCNvNtNtNtCs9q2tZtL9dYv_15tensor4all_core8defaults8contract5tests16make_test_tensor0B9_
FNDA:357,_RNCNvNtNtNtCs9q2tZtL9dYv_15tensor4all_core8defaults8contract5tests16make_test_tensors_0B9_
FNF:48
FNH:47
DA:57,1934
DA:58,1934
DA:59,1
DA:60,2
DA:63,1931
DA:64,16
DA:65,10
DA:66,1
DA:67,1
DA:68,1
DA:69,1
DA:70,1
DA:71,9
DA:73,1924
DA:76,1930
DA:78,1930
DA:80,1914
DA:83,16
DA:84,48
DA:85,32
DA:86,36
DA:89,32
DA:90,32
DA:91,32
DA:92,32
DA:96,16
DA:97,16
DA:98,16
DA:100,15
DA:104,1934
DA:136,1948
DA:137,1948
DA:138,1948
DA:139,1948
DA:140,1948
DA:141,0
DA:142,28
DA:143,1920
DA:145,1948
DA:152,2564
DA:153,2564
DA:154,2564
DA:155,11356
DA:156,2564
DA:169,1930
DA:170,1930
DA:171,1930
DA:172,1930
DA:173,1930
DA:174,1930
DA:175,0
DA:176,1930
DA:177,1930
DA:178,0
DA:179,1930
DA:182,1930
DA:183,4153
DA:186,1930
DA:189,4135
DA:190,4135
DA:191,2537
DA:192,2412
DA:193,2412
DA:197,6
DA:199,14
DA:200,8
DA:201,8
DA:202,8
DA:208,1930
DA:210,1930
DA:212,1914
DA:213,16
DA:218,16
DA:219,16
DA:221,36
DA:222,36
DA:223,32
DA:224,32
DA:225,68
DA:226,36
DA:227,36
DA:228,36
DA:229,36
DA:230,36
DA:232,32
DA:233,32
DA:234,4
DA:238,32
DA:239,16
DA:240,1930
DA:246,32
DA:247,32
DA:248,24
DA:249,8
DA:251,8
DA:252,8
DA:253,8
DA:254,12
DA:255,8
DA:258,8
DA:259,8
DA:260,8
DA:261,8
DA:262,4
DA:263,4
DA:265,8
DA:266,8
DA:268,8
DA:271,32
DA:280,32
DA:281,32
DA:282,24
DA:283,8
DA:285,32
DA:294,2207
DA:295,2207
DA:296,2207
DA:297,2207
DA:298,5751
DA:299,5751
DA:300,5751
DA:301,13775
DA:302,5751
DA:303,5751
DA:304,2207
DA:306,2207
DA:308,0
DA:310,2207
DA:312,2207
DA:317,1920
DA:318,1920
DA:319,1920
DA:320,1920
DA:322,1920
DA:324,15
DA:325,9
DA:326,1
DA:327,1
DA:328,1
DA:329,1
DA:330,1
DA:331,8
DA:334,6
DA:335,1913
DA:340,1919
DA:343,1919
DA:344,6046
DA:345,15587
DA:346,11460
DA:347,11460
DA:349,1919
DA:350,1919
DA:351,8694
DA:352,1919
DA:353,1919
DA:354,1919
DA:357,1919
DA:358,4127
DA:359,11460
DA:360,11460
DA:361,11460
DA:362,11460
DA:366,1919
DA:367,1919
DA:368,1919
DA:372,1919
DA:373,1
DA:374,1
DA:375,1
DA:376,1
DA:377,1
DA:378,1
DA:379,1918
DA:383,1918
DA:384,1918
DA:385,1918
DA:386,4125
DA:387,4125
DA:388,4125
DA:389,4125
DA:390,11456
DA:392,11456
DA:393,11456
DA:394,4125
DA:395,4125
DA:396,4125
DA:397,1918
DA:400,1918
DA:404,1918
DA:405,1918
DA:406,1918
DA:407,5924
DA:409,5924
DA:410,5924
DA:411,5924
DA:412,5924
DA:413,1918
DA:415,1918
DA:416,1918
DA:417,1918
DA:418,1918
DA:419,1918
DA:420,1920
DA:437,1919
DA:438,1919
DA:439,1919
DA:440,1919
DA:441,1919
DA:443,1919
DA:445,1919
DA:449,2534
DA:450,6561
DA:451,19735
DA:452,19735
DA:453,2766
DA:454,2766
DA:455,2766
DA:456,2766
DA:457,2766
DA:458,2766
DA:459,2766
DA:460,2766
DA:461,2766
DA:462,2766
DA:463,0
DA:464,0
DA:465,0
DA:466,0
DA:467,0
DA:468,0
DA:469,0
DA:470,0
DA:471,0
DA:474,0
DA:476,0
DA:480,16969
DA:483,2534
DA:485,1919
DA:488,4113
DA:489,4113
DA:490,2526
DA:491,2526
DA:494,6
DA:496,14
DA:497,8
DA:498,8
DA:503,4127
DA:504,11460
DA:505,11460
DA:506,11460
DA:507,5928
DA:508,5928
DA:509,5928
DA:510,5928
DA:515,1919
DA:516,1919
DA:517,1919
DA:518,4127
DA:519,4127
DA:520,11460
DA:521,4127
DA:522,4127
DA:523,1919
DA:525,1919
DA:526,1919
DA:531,14
DA:532,14
DA:533,1
DA:534,13
DA:535,13
DA:536,1
DA:537,12
DA:538,12
DA:539,1
DA:540,1
DA:541,1
DA:542,11
DA:545,11
DA:546,29
DA:547,18
DA:548,0
DA:549,0
DA:550,0
DA:551,0
DA:552,0
DA:553,0
DA:554,18
DA:555,18
DA:556,18
DA:560,11
DA:561,11
DA:562,11
DA:563,11
DA:564,11
DA:566,39
DA:567,34
DA:568,34
DA:569,17
DA:570,17
DA:571,17
DA:572,17
DA:576,11
DA:577,2
DA:578,2
DA:579,2
DA:580,2
DA:581,2
DA:582,9
DA:584,9
DA:585,14
DA:588,6332
DA:589,6332
DA:590,6332
DA:591,6332
DA:592,6332
DA:593,4125
DA:594,2207
DA:596,2207
DA:597,2207
DA:598,4414
DA:599,2207
DA:602,2207
DA:603,2207
DA:604,2207
DA:606,2207
DA:609,6332
DA:619,28
DA:620,28
DA:621,28
DA:622,28
DA:623,54
DA:624,28
DA:625,28
DA:626,28
DA:627,28
DA:628,357
DA:629,28
DA:630,28
DA:631,28
DA:632,28
DA:635,1
DA:636,1
DA:637,1
DA:638,1
DA:639,1
DA:642,1
DA:643,1
DA:644,1
DA:645,1
DA:646,1
DA:647,1
DA:650,1
DA:652,1
DA:653,1
DA:654,1
DA:655,1
DA:656,1
DA:657,1
DA:660,1
DA:662,1
DA:663,1
DA:664,1
DA:665,1
DA:666,1
DA:668,1
DA:669,1
DA:670,1
DA:671,1
DA:674,1
DA:676,1
DA:677,1
DA:678,1
DA:679,1
DA:680,1
DA:681,1
DA:683,1
DA:684,1
DA:685,1
DA:686,1
DA:689,1
DA:691,1
DA:692,1
DA:693,1
DA:694,1
DA:696,1
DA:697,1
DA:698,1
DA:699,1
DA:702,1
DA:704,1
DA:705,1
DA:706,1
DA:707,1
DA:709,1
DA:710,1
DA:711,1
DA:712,1
DA:715,1
DA:717,1
DA:718,1
DA:719,1
DA:720,1
DA:721,1
DA:722,1
DA:723,1
DA:726,1
DA:729,1
DA:730,1
DA:731,1
DA:732,1
DA:733,1
DA:734,1
DA:735,1
DA:736,1
DA:743,1
DA:748,1
DA:749,1
DA:750,1
DA:751,1
DA:752,1
DA:753,1
DA:754,1
DA:755,1
DA:756,1
DA:759,1
DA:764,1
DA:765,1
DA:766,1
DA:767,1
DA:768,1
DA:769,1
DA:770,1
DA:771,1
DA:772,1
DA:773,1
DA:774,1
DA:777,1
DA:781,1
DA:782,1
DA:783,1
DA:784,1
DA:785,1
DA:786,1
DA:790,1
DA:791,1
DA:792,1
DA:793,1
DA:794,1
DA:797,1
DA:799,1
DA:800,1
DA:801,1
DA:804,1
DA:805,1
DA:808,1
DA:809,1
DA:810,1
DA:811,1
DA:822,1
DA:828,1
DA:829,1
DA:830,1
DA:831,1
DA:832,1
DA:834,1
DA:836,1
DA:838,1
DA:839,1
DA:840,1
DA:841,1
DA:842,1
DA:844,1
DA:845,1
DA:847,1
DA:851,1
DA:852,1
DA:858,1
DA:859,1
DA:860,0
DA:864,1
DA:865,1
DA:869,1
DA:875,1
DA:876,1
DA:877,1
DA:878,1
DA:880,1
DA:882,1
DA:884,1
DA:885,1
DA:886,1
DA:887,1
DA:889,1
DA:890,1
DA:892,1
DA:894,1
DA:895,1
DA:898,1
DA:901,1
DA:911,1
BRF:0
BRH:0
LF:521
LH:498
end_of_record
SF:/Users/ken/git_for_collab4/tensor4all-rs/crates/tensor4all-core/src/defaults/direct_sum.rs
FN:326,_RNCNvNtNtCs55lPmkOpiMP_15tensor4all_core8defaults10direct_sum14direct_sum_c640B7_
FN:330,_RNCNvNtNtCs55lPmkOpiMP_15tensor4all_core8defaults10direct_sum14direct_sum_c64s_0B7_
FN:264,_RNCNvNtNtCs55lPmkOpiMP_15tensor4all_core8defaults10direct_sum14direct_sum_f640B7_
FN:268,_RNCNvNtNtCs55lPmkOpiMP_15tensor4all_core8defaults10direct_sum14direct_sum_f64s_0B7_
FN:234,_RNCNvNtNtCs55lPmkOpiMP_15tensor4all_core8defaults10direct_sum15multi_to_linear0B7_
FN:98,_RNCNvNtNtCs55lPmkOpiMP_15tensor4all_core8defaults10direct_sum16setup_direct_sum0B7_
FN:152,_RNCNvNtNtCs55lPmkOpiMP_15tensor4all_core8defaults10direct_sum16setup_direct_sums0_0B7_
FN:156,_RNCNvNtNtCs55lPmkOpiMP_15tensor4all_core8defaults10direct_sum16setup_direct_sums1_0B7_
FN:158,_RNCNvNtNtCs55lPmkOpiMP_15tensor4all_core8defaults10direct_sum16setup_direct_sums2_0B7_
FN:159,_RNCNvNtNtCs55lPmkOpiMP_15tensor4all_core8defaults10direct_sum16setup_direct_sums3_0B7_
FN:166,_RNCNvNtNtCs55lPmkOpiMP_15tensor4all_core8defaults10direct_sum16setup_direct_sums4_0B7_
FN:104,_RNCNvNtNtCs55lPmkOpiMP_15tensor4all_core8defaults10direct_sum16setup_direct_sums_0B7_
FN:45,_RNvNtNtCs55lPmkOpiMP_15tensor4all_core8defaults10direct_sum10direct_sum
FN:299,_RNvNtNtCs55lPmkOpiMP_15tensor4all_core8defaults10direct_sum14direct_sum_c64
FN:237,_RNvNtNtCs55lPmkOpiMP_15tensor4all_core8defaults10direct_sum14direct_sum_f64
FN:223,_RNvNtNtCs55lPmkOpiMP_15tensor4all_core8defaults10direct_sum15linear_to_multi
FN:233,_RNvNtNtCs55lPmkOpiMP_15tensor4all_core8defaults10direct_sum15multi_to_linear
FN:79,_RNvNtNtCs55lPmkOpiMP_15tensor4all_core8defaults10direct_sum16setup_direct_sum
FN:45,_RNvNtNtCs9q2tZtL9dYv_15tensor4all_core8defaults10direct_sum10direct_sum
FN:299,_RNvNtNtCs9q2tZtL9dYv_15tensor4all_core8defaults10direct_sum14direct_sum_c64
FN:237,_RNvNtNtCs9q2tZtL9dYv_15tensor4all_core8defaults10direct_sum14direct_sum_f64
FN:223,_RNvNtNtCs9q2tZtL9dYv_15tensor4all_core8defaults10direct_sum15linear_to_multi
FN:233,_RNvNtNtCs9q2tZtL9dYv_15tensor4all_core8defaults10direct_sum15multi_to_linear
FN:79,_RNvNtNtCs9q2tZtL9dYv_15tensor4all_core8defaults10direct_sum16setup_direct_sum
FN:326,_RNCNvNtNtCs9q2tZtL9dYv_15tensor4all_core8defaults10direct_sum14direct_sum_c640B7_
FN:330,_RNCNvNtNtCs9q2tZtL9dYv_15tensor4all_core8defaults10direct_sum14direct_sum_c64s_0B7_
FN:264,_RNCNvNtNtCs9q2tZtL9dYv_15tensor4all_core8defaults10direct_sum14direct_sum_f640B7_
FN:268,_RNCNvNtNtCs9q2tZtL9dYv_15tensor4all_core8defaults10direct_sum14direct_sum_f64s_0B7_
FN:234,_RNCNvNtNtCs9q2tZtL9dYv_15tensor4all_core8defaults10direct_sum15multi_to_linear0B7_
FN:98,_RNCNvNtNtCs9q2tZtL9dYv_15tensor4all_core8defaults10direct_sum16setup_direct_sum0B7_
FN:152,_RNCNvNtNtCs9q2tZtL9dYv_15tensor4all_core8defaults10direct_sum16setup_direct_sums0_0B7_
FN:156,_RNCNvNtNtCs9q2tZtL9dYv_15tensor4all_core8defaults10direct_sum16setup_direct_sums1_0B7_
FN:158,_RNCNvNtNtCs9q2tZtL9dYv_15tensor4all_core8defaults10direct_sum16setup_direct_sums2_0B7_
FN:159,_RNCNvNtNtCs9q2tZtL9dYv_15tensor4all_core8defaults10direct_sum16setup_direct_sums3_0B7_
FN:166,_RNCNvNtNtCs9q2tZtL9dYv_15tensor4all_core8defaults10direct_sum16setup_direct_sums4_0B7_
FN:104,_RNCNvNtNtCs9q2tZtL9dYv_15tensor4all_core8defaults10direct_sum16setup_direct_sums_0B7_
FN:369,_RNvNtNtNtCs9q2tZtL9dYv_15tensor4all_core8defaults10direct_sum5testss_22test_direct_sum_simple
FN:432,_RNvNtNtNtCs9q2tZtL9dYv_15tensor4all_core8defaults10direct_sum5testss_30test_direct_sum_multiple_pairs
FNDA:0,_RNCNvNtNtCs55lPmkOpiMP_15tensor4all_core8defaults10direct_sum14direct_sum_c640B7_
FNDA:0,_RNCNvNtNtCs55lPmkOpiMP_15tensor4all_core8defaults10direct_sum14direct_sum_c64s_0B7_
FNDA:0,_RNCNvNtNtCs55lPmkOpiMP_15tensor4all_core8defaults10direct_sum14direct_sum_f640B7_
FNDA:0,_RNCNvNtNtCs55lPmkOpiMP_15tensor4all_core8defaults10direct_sum14direct_sum_f64s_0B7_
FNDA:0,_RNCNvNtNtCs55lPmkOpiMP_15tensor4all_core8defaults10direct_sum15multi_to_linear0B7_
FNDA:0,_RNCNvNtNtCs55lPmkOpiMP_15tensor4all_core8defaults10direct_sum16setup_direct_sum0B7_
FNDA:0,_RNCNvNtNtCs55lPmkOpiMP_15tensor4all_core8defaults10direct_sum16setup_direct_sums0_0B7_
FNDA:0,_RNCNvNtNtCs55lPmkOpiMP_15tensor4all_core8defaults10direct_sum16setup_direct_sums1_0B7_
FNDA:0,_RNCNvNtNtCs55lPmkOpiMP_15tensor4all_core8defaults10direct_sum16setup_direct_sums2_0B7_
FNDA:0,_RNCNvNtNtCs55lPmkOpiMP_15tensor4all_core8defaults10direct_sum16setup_direct_sums3_0B7_
FNDA:0,_RNCNvNtNtCs55lPmkOpiMP_15tensor4all_core8defaults10direct_sum16setup_direct_sums4_0B7_
FNDA:0,_RNCNvNtNtCs55lPmkOpiMP_15tensor4all_core8defaults10direct_sum16setup_direct_sums_0B7_
FNDA:0,_RNvNtNtCs55lPmkOpiMP_15tensor4all_core8defaults10direct_sum10direct_sum
FNDA:0,_RNvNtNtCs55lPmkOpiMP_15tensor4all_core8defaults10direct_sum14direct_sum_c64
FNDA:0,_RNvNtNtCs55lPmkOpiMP_15tensor4all_core8defaults10direct_sum14direct_sum_f64
FNDA:0,_RNvNtNtCs55lPmkOpiMP_15tensor4all_core8defaults10direct_sum15linear_to_multi
FNDA:0,_RNvNtNtCs55lPmkOpiMP_15tensor4all_core8defaults10direct_sum15multi_to_linear
FNDA:0,_RNvNtNtCs55lPmkOpiMP_15tensor4all_core8defaults10direct_sum16setup_direct_sum
FNDA:2,_RNvNtNtCs9q2tZtL9dYv_15tensor4all_core8defaults10direct_sum10direct_sum
FNDA:0,_RNvNtNtCs9q2tZtL9dYv_15tensor4all_core8defaults10direct_sum14direct_sum_c64
FNDA:2,_RNvNtNtCs9q2tZtL9dYv_15tensor4all_core8defaults10direct_sum14direct_sum_f64
FNDA:39,_RNvNtNtCs9q2tZtL9dYv_15tensor4all_core8defaults10direct_sum15linear_to_multi
FNDA:27,_RNvNtNtCs9q2tZtL9dYv_15tensor4all_core8defaults10direct_sum15multi_to_linear
FNDA:2,_RNvNtNtCs9q2tZtL9dYv_15tensor4all_core8defaults10direct_sum16setup_direct_sum
FNDA:0,_RNCNvNtNtCs9q2tZtL9dYv_15tensor4all_core8defaults10direct_sum14direct_sum_c640B7_
FNDA:0,_RNCNvNtNtCs9q2tZtL9dYv_15tensor4all_core8defaults10direct_sum14direct_sum_c64s_0B7_
FNDA:49,_RNCNvNtNtCs9q2tZtL9dYv_15tensor4all_core8defaults10direct_sum14direct_sum_f640B7_
FNDA:54,_RNCNvNtNtCs9q2tZtL9dYv_15tensor4all_core8defaults10direct_sum14direct_sum_f64s_0B7_
FNDA:54,_RNCNvNtNtCs9q2tZtL9dYv_15tensor4all_core8defaults10direct_sum15multi_to_linear0B7_
FNDA:4,_RNCNvNtNtCs9q2tZtL9dYv_15tensor4all_core8defaults10direct_sum16setup_direct_sum0B7_
FNDA:3,_RNCNvNtNtCs9q2tZtL9dYv_15tensor4all_core8defaults10direct_sum16setup_direct_sums0_0B7_
FNDA:3,_RNCNvNtNtCs9q2tZtL9dYv_15tensor4all_core8defaults10direct_sum16setup_direct_sums1_0B7_
FNDA:3,_RNCNvNtNtCs9q2tZtL9dYv_15tensor4all_core8defaults10direct_sum16setup_direct_sums2_0B7_
FNDA:3,_RNCNvNtNtCs9q2tZtL9dYv_15tensor4all_core8defaults10direct_sum16setup_direct_sums3_0B7_
FNDA:0,_RNCNvNtNtCs9q2tZtL9dYv_15tensor4all_core8defaults10direct_sum16setup_direct_sums4_0B7_
FNDA:4,_RNCNvNtNtCs9q2tZtL9dYv_15tensor4all_core8defaults10direct_sum16setup_direct_sums_0B7_
FNDA:1,_RNvNtNtNtCs9q2tZtL9dYv_15tensor4all_core8defaults10direct_sum5testss_22test_direct_sum_simple
FNDA:1,_RNvNtNtNtCs9q2tZtL9dYv_15tensor4all_core8defaults10direct_sum5testss_30test_direct_sum_multiple_pairs
FNF:20
FNH:16
DA:45,2
DA:46,2
DA:47,2
DA:48,2
DA:49,2
DA:51,2
DA:52,2
DA:53,0
DA:54,0
DA:55,0
DA:56,0
DA:58,2
DA:79,2
DA:80,2
DA:81,2
DA:82,2
DA:83,2
DA:87,2
DA:88,0
DA:89,0
DA:90,0
DA:91,2
DA:94,2
DA:95,2
DA:96,2
DA:97,2
DA:98,4
DA:99,2
DA:100,2
DA:101,2
DA:102,2
DA:103,2
DA:104,4
DA:105,2
DA:108,2
DA:109,2
DA:111,5
DA:112,3
DA:113,0
DA:114,0
DA:115,0
DA:116,3
DA:117,3
DA:118,0
DA:119,0
DA:120,0
DA:121,3
DA:122,3
DA:123,3
DA:127,2
DA:128,2
DA:129,6
DA:130,4
DA:131,3
DA:132,1
DA:133,1
DA:134,1
DA:135,0
DA:136,1
DA:137,1
DA:138,0
DA:139,0
DA:140,0
DA:141,0
DA:142,0
DA:143,1
DA:144,1
DA:145,1
DA:146,0
DA:150,2
DA:151,2
DA:152,3
DA:153,2
DA:154,2
DA:155,2
DA:156,3
DA:157,2
DA:158,3
DA:159,3
DA:162,2
DA:163,3
DA:164,3
DA:165,3
DA:166,3
DA:167,3
DA:171,2
DA:172,2
DA:175,3
DA:176,1
DA:177,1
DA:178,1
DA:181,5
DA:182,3
DA:183,3
DA:184,3
DA:187,2
DA:188,2
DA:189,2
DA:190,2
DA:191,2
DA:193,2
DA:194,2
DA:195,2
DA:196,2
DA:198,2
DA:199,2
DA:200,2
DA:201,2
DA:203,2
DA:205,2
DA:206,2
DA:207,2
DA:208,2
DA:209,2
DA:210,2
DA:211,2
DA:212,2
DA:213,2
DA:214,2
DA:215,2
DA:216,2
DA:217,2
DA:218,2
DA:219,2
DA:220,2
DA:221,2
DA:223,39
DA:224,39
DA:225,39
DA:226,78
DA:227,78
DA:228,78
DA:229,78
DA:230,39
DA:231,39
DA:233,27
DA:234,54
DA:235,27
DA:237,2
DA:238,2
DA:239,2
DA:240,2
DA:241,2
DA:242,2
DA:244,2
DA:245,2
DA:246,0
DA:248,2
DA:249,2
DA:250,0
DA:253,2
DA:256,39
DA:257,39
DA:258,39
DA:259,39
DA:261,39
DA:262,39
DA:263,39
DA:264,49
DA:265,39
DA:266,39
DA:267,39
DA:268,54
DA:270,39
DA:271,10
DA:272,10
DA:273,6
DA:274,6
DA:275,14
DA:276,14
DA:277,14
DA:278,10
DA:279,10
DA:280,29
DA:281,17
DA:282,17
DA:283,8
DA:284,8
DA:285,26
DA:286,26
DA:287,26
DA:288,17
DA:289,17
DA:290,12
DA:294,2
DA:295,2
DA:296,2
DA:297,2
DA:299,0
DA:300,0
DA:301,0
DA:302,0
DA:303,0
DA:304,0
DA:306,0
DA:307,0
DA:308,0
DA:310,0
DA:311,0
DA:312,0
DA:315,0
DA:318,0
DA:319,0
DA:320,0
DA:321,0
DA:323,0
DA:324,0
DA:325,0
DA:326,0
DA:327,0
DA:328,0
DA:329,0
DA:330,0
DA:332,0
DA:333,0
DA:334,0
DA:335,0
DA:336,0
DA:337,0
DA:338,0
DA:339,0
DA:340,0
DA:341,0
DA:342,0
DA:343,0
DA:344,0
DA:345,0
DA:346,0
DA:347,0
DA:348,0
DA:349,0
DA:350,0
DA:351,0
DA:352,0
DA:356,0
DA:357,0
DA:358,0
DA:359,0
DA:369,1
DA:371,1
DA:372,1
DA:373,1
DA:376,1
DA:377,1
DA:378,1
DA:379,1
DA:380,1
DA:381,1
DA:382,1
DA:386,1
DA:387,1
DA:388,1
DA:389,1
DA:390,1
DA:391,1
DA:392,1
DA:396,1
DA:397,1
DA:398,1
DA:401,1
DA:402,1
DA:403,1
DA:404,1
DA:405,1
DA:408,1
DA:409,1
DA:410,0
DA:415,1
DA:416,1
DA:417,1
DA:418,1
DA:419,1
DA:420,1
DA:421,1
DA:422,1
DA:423,1
DA:424,1
DA:425,1
DA:426,1
DA:427,1
DA:428,1
DA:429,1
DA:432,1
DA:434,1
DA:435,1
DA:436,1
DA:437,1
DA:440,1
DA:441,1
DA:442,1
DA:443,1
DA:444,1
DA:445,1
DA:449,1
DA:450,1
DA:451,1
DA:452,1
DA:453,1
DA:454,1
DA:458,1
DA:459,1
DA:460,1
DA:461,1
DA:462,1
DA:465,1
DA:466,1
DA:467,1
DA:468,1
DA:469,1
BRF:0
BRH:0
LF:321
LH:245
end_of_record
SF:/Users/ken/git_for_collab4/tensor4all-rs/crates/tensor4all-core/src/defaults/factorize.rs
FN:272,_RINvNtNtCs55lPmkOpiMP_15tensor4all_core8defaults9factorize12factorize_ciINtCseyqKeAT1xJ3_11num_complex7ComplexdEEB6_
FN:272,_RINvNtNtCs55lPmkOpiMP_15tensor4all_core8defaults9factorize12factorize_cidEB6_
FN:206,_RINvNtNtCs55lPmkOpiMP_15tensor4all_core8defaults9factorize12factorize_luINtCseyqKeAT1xJ3_11num_complex7ComplexdEEB6_
FN:206,_RINvNtNtCs55lPmkOpiMP_15tensor4all_core8defaults9factorize12factorize_ludEB6_
FN:164,_RINvNtNtCs55lPmkOpiMP_15tensor4all_core8defaults9factorize12factorize_qrINtCseyqKeAT1xJ3_11num_complex7ComplexdEEB6_
FN:164,_RINvNtNtCs55lPmkOpiMP_15tensor4all_core8defaults9factorize12factorize_qrdEB6_
FN:99,_RINvNtNtCs55lPmkOpiMP_15tensor4all_core8defaults9factorize13factorize_svdINtCseyqKeAT1xJ3_11num_complex7ComplexdEEB6_
FN:99,_RINvNtNtCs55lPmkOpiMP_15tensor4all_core8defaults9factorize13factorize_svddEB6_
FN:376,_RINvNtNtCs55lPmkOpiMP_15tensor4all_core8defaults9factorize13matrix_to_vecINtCseyqKeAT1xJ3_11num_complex7ComplexdEEB6_
FN:376,_RINvNtNtCs55lPmkOpiMP_15tensor4all_core8defaults9factorize13matrix_to_vecdEB6_
FN:76,_RINvNtNtCs55lPmkOpiMP_15tensor4all_core8defaults9factorize14factorize_implINtCseyqKeAT1xJ3_11num_complex7ComplexdEEB6_
FN:76,_RINvNtNtCs55lPmkOpiMP_15tensor4all_core8defaults9factorize14factorize_impldEB6_
FN:358,_RINvNtNtCs55lPmkOpiMP_15tensor4all_core8defaults9factorize17dtensor_to_matrixINtCseyqKeAT1xJ3_11num_complex7ComplexdEEB6_
FN:358,_RINvNtNtCs55lPmkOpiMP_15tensor4all_core8defaults9factorize17dtensor_to_matrixdEB6_
FN:288,_RNCINvNtNtCs55lPmkOpiMP_15tensor4all_core8defaults9factorize12factorize_ciINtCseyqKeAT1xJ3_11num_complex7ComplexdEE0B8_
FN:312,_RNCINvNtNtCs55lPmkOpiMP_15tensor4all_core8defaults9factorize12factorize_ciINtCseyqKeAT1xJ3_11num_complex7ComplexdEEs_0B8_
FN:288,_RNCINvNtNtCs55lPmkOpiMP_15tensor4all_core8defaults9factorize12factorize_cidE0B8_
FN:312,_RNCINvNtNtCs55lPmkOpiMP_15tensor4all_core8defaults9factorize12factorize_cidEs_0B8_
FN:222,_RNCINvNtNtCs55lPmkOpiMP_15tensor4all_core8defaults9factorize12factorize_luINtCseyqKeAT1xJ3_11num_complex7ComplexdEE0B8_
FN:246,_RNCINvNtNtCs55lPmkOpiMP_15tensor4all_core8defaults9factorize12factorize_luINtCseyqKeAT1xJ3_11num_complex7ComplexdEEs_0B8_
FN:222,_RNCINvNtNtCs55lPmkOpiMP_15tensor4all_core8defaults9factorize12factorize_ludE0B8_
FN:246,_RNCINvNtNtCs55lPmkOpiMP_15tensor4all_core8defaults9factorize12factorize_ludEs_0B8_
FN:352,_RNCNvNtNtCs55lPmkOpiMP_15tensor4all_core8defaults9factorize23extract_singular_valuess0_0B7_
FN:348,_RNCNvNtNtCs55lPmkOpiMP_15tensor4all_core8defaults9factorize23extract_singular_valuess_0B7_
FN:338,_RNvNtNtCs55lPmkOpiMP_15tensor4all_core8defaults9factorize23extract_singular_values
FN:60,_RNvNtNtCs55lPmkOpiMP_15tensor4all_core8defaults9factorize9factorize
FN:272,_RINvNtNtCs9q2tZtL9dYv_15tensor4all_core8defaults9factorize12factorize_cipEB6_
FN:206,_RINvNtNtCs9q2tZtL9dYv_15tensor4all_core8defaults9factorize12factorize_lupEB6_
FN:164,_RINvNtNtCs9q2tZtL9dYv_15tensor4all_core8defaults9factorize12factorize_qrpEB6_
FN:99,_RINvNtNtCs9q2tZtL9dYv_15tensor4all_core8defaults9factorize13factorize_svdpEB6_
FN:376,_RINvNtNtCs9q2tZtL9dYv_15tensor4all_core8defaults9factorize13matrix_to_vecpEB6_
FN:76,_RINvNtNtCs9q2tZtL9dYv_15tensor4all_core8defaults9factorize14factorize_implpEB6_
FN:358,_RINvNtNtCs9q2tZtL9dYv_15tensor4all_core8defaults9factorize17dtensor_to_matrixpEB6_
FN:288,_RNCINvNtNtCs9q2tZtL9dYv_15tensor4all_core8defaults9factorize12factorize_cipE0B8_
FN:312,_RNCINvNtNtCs9q2tZtL9dYv_15tensor4all_core8defaults9factorize12factorize_cipEs_0B8_
FN:222,_RNCINvNtNtCs9q2tZtL9dYv_15tensor4all_core8defaults9factorize12factorize_lupE0B8_
FN:246,_RNCINvNtNtCs9q2tZtL9dYv_15tensor4all_core8defaults9factorize12factorize_lupEs_0B8_
FN:352,_RNCNvNtNtCs9q2tZtL9dYv_15tensor4all_core8defaults9factorize23extract_singular_valuess0_0B7_
FN:348,_RNCNvNtNtCs9q2tZtL9dYv_15tensor4all_core8defaults9factorize23extract_singular_valuess_0B7_
FN:338,_RNvNtNtCs9q2tZtL9dYv_15tensor4all_core8defaults9factorize23extract_singular_values
FN:60,_RNvNtNtCs9q2tZtL9dYv_15tensor4all_core8defaults9factorize9factorize
FNDA:0,_RINvNtNtCs55lPmkOpiMP_15tensor4all_core8defaults9factorize12factorize_ciINtCseyqKeAT1xJ3_11num_complex7ComplexdEEB6_
FNDA:6,_RINvNtNtCs55lPmkOpiMP_15tensor4all_core8defaults9factorize12factorize_cidEB6_
FNDA:0,_RINvNtNtCs55lPmkOpiMP_15tensor4all_core8defaults9factorize12factorize_luINtCseyqKeAT1xJ3_11num_complex7ComplexdEEB6_
FNDA:7,_RINvNtNtCs55lPmkOpiMP_15tensor4all_core8defaults9factorize12factorize_ludEB6_
FNDA:0,_RINvNtNtCs55lPmkOpiMP_15tensor4all_core8defaults9factorize12factorize_qrINtCseyqKeAT1xJ3_11num_complex7ComplexdEEB6_
FNDA:51,_RINvNtNtCs55lPmkOpiMP_15tensor4all_core8defaults9factorize12factorize_qrdEB6_
FNDA:312,_RINvNtNtCs55lPmkOpiMP_15tensor4all_core8defaults9factorize13factorize_svdINtCseyqKeAT1xJ3_11num_complex7ComplexdEEB6_
FNDA:238,_RINvNtNtCs55lPmkOpiMP_15tensor4all_core8defaults9factorize13factorize_svddEB6_
FNDA:0,_RINvNtNtCs55lPmkOpiMP_15tensor4all_core8defaults9factorize13matrix_to_vecINtCseyqKeAT1xJ3_11num_complex7ComplexdEEB6_
FNDA:26,_RINvNtNtCs55lPmkOpiMP_15tensor4all_core8defaults9factorize13matrix_to_vecdEB6_
FNDA:312,_RINvNtNtCs55lPmkOpiMP_15tensor4all_core8defaults9factorize14factorize_implINtCseyqKeAT1xJ3_11num_complex7ComplexdEEB6_
FNDA:302,_RINvNtNtCs55lPmkOpiMP_15tensor4all_core8defaults9factorize14factorize_impldEB6_
FNDA:0,_RINvNtNtCs55lPmkOpiMP_15tensor4all_core8defaults9factorize17dtensor_to_matrixINtCseyqKeAT1xJ3_11num_complex7ComplexdEEB6_
FNDA:13,_RINvNtNtCs55lPmkOpiMP_15tensor4all_core8defaults9factorize17dtensor_to_matrixdEB6_
FNDA:0,_RNCINvNtNtCs55lPmkOpiMP_15tensor4all_core8defaults9factorize12factorize_ciINtCseyqKeAT1xJ3_11num_complex7ComplexdEE0B8_
FNDA:0,_RNCINvNtNtCs55lPmkOpiMP_15tensor4all_core8defaults9factorize12factorize_ciINtCseyqKeAT1xJ3_11num_complex7ComplexdEEs_0B8_
FNDA:0,_RNCINvNtNtCs55lPmkOpiMP_15tensor4all_core8defaults9factorize12factorize_cidE0B8_
FNDA:0,_RNCINvNtNtCs55lPmkOpiMP_15tensor4all_core8defaults9factorize12factorize_cidEs_0B8_
FNDA:0,_RNCINvNtNtCs55lPmkOpiMP_15tensor4all_core8defaults9factorize12factorize_luINtCseyqKeAT1xJ3_11num_complex7ComplexdEE0B8_
FNDA:0,_RNCINvNtNtCs55lPmkOpiMP_15tensor4all_core8defaults9factorize12factorize_luINtCseyqKeAT1xJ3_11num_complex7ComplexdEEs_0B8_
FNDA:0,_RNCINvNtNtCs55lPmkOpiMP_15tensor4all_core8defaults9factorize12factorize_ludE0B8_
FNDA:0,_RNCINvNtNtCs55lPmkOpiMP_15tensor4all_core8defaults9factorize12factorize_ludEs_0B8_
FNDA:0,_RNCNvNtNtCs55lPmkOpiMP_15tensor4all_core8defaults9factorize23extract_singular_valuess0_0B7_
FNDA:0,_RNCNvNtNtCs55lPmkOpiMP_15tensor4all_core8defaults9factorize23extract_singular_valuess_0B7_
FNDA:550,_RNvNtNtCs55lPmkOpiMP_15tensor4all_core8defaults9factorize23extract_singular_values
FNDA:614,_RNvNtNtCs55lPmkOpiMP_15tensor4all_core8defaults9factorize9factorize
FNDA:0,_RINvNtNtCs9q2tZtL9dYv_15tensor4all_core8defaults9factorize12factorize_cipEB6_
FNDA:0,_RINvNtNtCs9q2tZtL9dYv_15tensor4all_core8defaults9factorize12factorize_lupEB6_
FNDA:0,_RINvNtNtCs9q2tZtL9dYv_15tensor4all_core8defaults9factorize12factorize_qrpEB6_
FNDA:0,_RINvNtNtCs9q2tZtL9dYv_15tensor4all_core8defaults9factorize13factorize_svdpEB6_
FNDA:0,_RINvNtNtCs9q2tZtL9dYv_15tensor4all_core8defaults9factorize13matrix_to_vecpEB6_
FNDA:0,_RINvNtNtCs9q2tZtL9dYv_15tensor4all_core8defaults9factorize14factorize_implpEB6_
FNDA:0,_RINvNtNtCs9q2tZtL9dYv_15tensor4all_core8defaults9factorize17dtensor_to_matrixpEB6_
FNDA:0,_RNCINvNtNtCs9q2tZtL9dYv_15tensor4all_core8defaults9factorize12factorize_cipE0B8_
FNDA:0,_RNCINvNtNtCs9q2tZtL9dYv_15tensor4all_core8defaults9factorize12factorize_cipEs_0B8_
FNDA:0,_RNCINvNtNtCs9q2tZtL9dYv_15tensor4all_core8defaults9factorize12factorize_lupE0B8_
FNDA:0,_RNCINvNtNtCs9q2tZtL9dYv_15tensor4all_core8defaults9factorize12factorize_lupEs_0B8_
FNDA:0,_RNCNvNtNtCs9q2tZtL9dYv_15tensor4all_core8defaults9factorize23extract_singular_valuess0_0B7_
FNDA:0,_RNCNvNtNtCs9q2tZtL9dYv_15tensor4all_core8defaults9factorize23extract_singular_valuess_0B7_
FNDA:0,_RNvNtNtCs9q2tZtL9dYv_15tensor4all_core8defaults9factorize23extract_singular_values
FNDA:0,_RNvNtNtCs9q2tZtL9dYv_15tensor4all_core8defaults9factorize9factorize
FNF:15
FNH:9
DA:60,614
DA:61,614
DA:62,614
DA:63,614
DA:64,614
DA:66,614
DA:67,302
DA:68,312
DA:69,0
DA:70,0
DA:71,0
DA:73,614
DA:76,614
DA:77,614
DA:78,614
DA:79,614
DA:80,614
DA:81,614
DA:82,614
DA:83,614
DA:84,614
DA:85,614
DA:86,614
DA:87,614
DA:88,614
DA:90,614
DA:91,550
DA:92,51
DA:93,7
DA:94,6
DA:96,614
DA:99,550
DA:100,550
DA:101,550
DA:102,550
DA:103,550
DA:104,550
DA:105,550
DA:106,550
DA:107,550
DA:108,550
DA:109,550
DA:110,550
DA:111,550
DA:113,550
DA:114,550
DA:115,2
DA:116,548
DA:117,550
DA:118,17
DA:119,533
DA:121,550
DA:124,550
DA:125,550
DA:132,550
DA:133,550
DA:135,550
DA:138,548
DA:139,548
DA:140,548
DA:141,548
DA:142,548
DA:143,548
DA:144,548
DA:145,548
DA:146,548
DA:150,2
DA:151,2
DA:152,2
DA:153,2
DA:154,2
DA:155,2
DA:156,2
DA:157,2
DA:158,2
DA:161,550
DA:164,51
DA:165,51
DA:166,51
DA:167,51
DA:168,51
DA:169,51
DA:170,51
DA:171,51
DA:172,51
DA:173,51
DA:174,51
DA:175,51
DA:176,51
DA:178,51
DA:179,1
DA:180,1
DA:181,1
DA:182,50
DA:184,50
DA:185,50
DA:186,0
DA:187,50
DA:189,50
DA:192,50
DA:194,50
DA:196,50
DA:197,50
DA:198,50
DA:199,50
DA:200,50
DA:201,50
DA:202,50
DA:203,51
DA:206,7
DA:207,7
DA:208,7
DA:209,7
DA:210,7
DA:211,7
DA:212,7
DA:213,7
DA:214,7
DA:215,7
DA:216,7
DA:217,7
DA:218,7
DA:221,7
DA:222,7
DA:225,7
DA:228,7
DA:229,7
DA:230,7
DA:231,7
DA:232,7
DA:233,7
DA:234,7
DA:237,7
DA:238,7
DA:241,7
DA:242,7
DA:245,7
DA:246,7
DA:249,7
DA:250,7
DA:251,7
DA:252,7
DA:253,7
DA:256,7
DA:257,7
DA:258,7
DA:259,7
DA:260,7
DA:262,7
DA:263,7
DA:264,7
DA:265,7
DA:266,7
DA:267,7
DA:268,7
DA:269,7
DA:272,6
DA:273,6
DA:274,6
DA:275,6
DA:276,6
DA:277,6
DA:278,6
DA:279,6
DA:280,6
DA:281,6
DA:282,6
DA:283,6
DA:284,6
DA:287,6
DA:288,6
DA:291,6
DA:294,6
DA:295,6
DA:296,6
DA:297,6
DA:298,6
DA:299,6
DA:300,6
DA:303,6
DA:304,6
DA:307,6
DA:308,6
DA:311,6
DA:312,6
DA:315,6
DA:316,6
DA:317,6
DA:318,6
DA:319,6
DA:322,6
DA:323,6
DA:324,6
DA:325,6
DA:326,6
DA:328,6
DA:329,6
DA:330,6
DA:331,6
DA:332,6
DA:333,6
DA:334,6
DA:335,6
DA:338,550
DA:339,550
DA:340,550
DA:341,0
DA:343,0
DA:345,0
DA:347,0
DA:348,0
DA:350,0
DA:351,0
DA:352,0
DA:355,550
DA:358,13
DA:359,13
DA:360,13
DA:361,13
DA:362,13
DA:363,13
DA:364,13
DA:366,13
DA:367,26
DA:368,78
DA:369,78
DA:370,78
DA:372,13
DA:373,13
DA:376,26
DA:377,26
DA:378,26
DA:380,26
DA:381,26
DA:382,26
DA:383,51
DA:384,125
DA:385,125
DA:386,125
DA:388,26
DA:389,26
BRF:0
BRH:0
LF:247
LH:229
end_of_record
SF:/Users/ken/git_for_collab4/tensor4all-rs/crates/tensor4all-core/src/defaults/index.rs
FN:209,_RNvMs1_NtNtCs55lPmkOpiMP_15tensor4all_core8defaults5indexINtB5_5IndexppE13new_with_tagsB9_
FN:219,_RNvMs1_NtNtCs55lPmkOpiMP_15tensor4all_core8defaults5indexINtB5_5IndexppE4tagsB9_
FN:229,_RNvMs2_NtNtCs55lPmkOpiMP_15tensor4all_core8defaults5indexINtB5_5IndexppE13new_with_sizeB9_
FN:238,_RNvMs2_NtNtCs55lPmkOpiMP_15tensor4all_core8defaults5indexINtB5_5IndexppE22new_with_size_and_tagsB9_
FN:311,_RINvXs6_NtNtCs55lPmkOpiMP_15tensor4all_core8defaults5indexINtB6_5IndexNtB6_5DynIdENtNtCskzPJi2J8k3N_4core4hash4Hash4hashNtNtNtCsiThrkg7suPy_3std4hash6random13DefaultHasherEBa_
FN:415,_RNCNvMs9_NtNtCs55lPmkOpiMP_15tensor4all_core8defaults5indexINtB7_5IndexNtB7_5DynIdE8new_bond0Bb_
FN:332,_RNCNvNtNtCs55lPmkOpiMP_15tensor4all_core8defaults5index11generate_id0B7_
FN:200,_RNvMs1_NtNtCs55lPmkOpiMP_15tensor4all_core8defaults5indexINtB5_5IndexNtB5_5DynIdE3newB9_
FN:214,_RNvMs1_NtNtCs55lPmkOpiMP_15tensor4all_core8defaults5indexINtB5_5IndexNtB5_5DynIdE4sizeB9_
FN:303,_RNvXs4_NtNtCs55lPmkOpiMP_15tensor4all_core8defaults5indexINtB5_5IndexNtB5_5DynIdENtNtCskzPJi2J8k3N_4core3cmp9PartialEq2eqB9_
FN:96,_RNvMNtNtCs55lPmkOpiMP_15tensor4all_core8defaults5indexNtB2_6TagSet3len
FN:51,_RNvMNtNtCs55lPmkOpiMP_15tensor4all_core8defaults5indexNtB2_6TagSet3new
FN:106,_RNvMNtNtCs55lPmkOpiMP_15tensor4all_core8defaults5indexNtB2_6TagSet5inner
FN:91,_RNvMNtNtCs55lPmkOpiMP_15tensor4all_core8defaults5indexNtB2_6TagSet7has_tag
FN:57,_RNvMNtNtCs55lPmkOpiMP_15tensor4all_core8defaults5indexNtB2_6TagSet8from_str
FN:101,_RNvMNtNtCs55lPmkOpiMP_15tensor4all_core8defaults5indexNtB2_6TagSet8is_empty
FN:77,_RNvMNtNtCs55lPmkOpiMP_15tensor4all_core8defaults5indexNtB2_6TagSet9from_tags
FN:284,_RNvMs3_NtNtCs55lPmkOpiMP_15tensor4all_core8defaults5indexINtB5_5IndexNtB5_5DynIdE16new_dyn_with_tag
FN:271,_RNvMs3_NtNtCs55lPmkOpiMP_15tensor4all_core8defaults5indexINtB5_5IndexNtB5_5DynIdE17new_dyn_with_tags
FN:250,_RNvMs3_NtNtCs55lPmkOpiMP_15tensor4all_core8defaults5indexINtB5_5IndexNtB5_5DynIdE7new_dyn
FN:296,_RNvMs3_NtNtCs55lPmkOpiMP_15tensor4all_core8defaults5indexINtB5_5IndexNtB5_5DynIdE8new_link
FN:414,_RNvMs9_NtNtCs55lPmkOpiMP_15tensor4all_core8defaults5indexINtB5_5IndexNtB5_5DynIdE8new_bond
FN:331,_RNvNtNtCs55lPmkOpiMP_15tensor4all_core8defaults5index11generate_id
FN:148,_RNvXs0_NtNtCs55lPmkOpiMP_15tensor4all_core8defaults5indexNtB5_6TagSetNtNtB9_6tagset10TagSetLike10remove_tag
FN:128,_RNvXs0_NtNtCs55lPmkOpiMP_15tensor4all_core8defaults5indexNtB5_6TagSetNtNtB9_6tagset10TagSetLike3get
FN:120,_RNvXs0_NtNtCs55lPmkOpiMP_15tensor4all_core8defaults5indexNtB5_6TagSetNtNtB9_6tagset10TagSetLike3len
FN:132,_RNvXs0_NtNtCs55lPmkOpiMP_15tensor4all_core8defaults5indexNtB5_6TagSetNtNtB9_6tagset10TagSetLike4iter
FN:140,_RNvXs0_NtNtCs55lPmkOpiMP_15tensor4all_core8defaults5indexNtB5_6TagSetNtNtB9_6tagset10TagSetLike7add_tag
FN:136,_RNvXs0_NtNtCs55lPmkOpiMP_15tensor4all_core8defaults5indexNtB5_6TagSetNtNtB9_6tagset10TagSetLike7has_tag
FN:124,_RNvXs0_NtNtCs55lPmkOpiMP_15tensor4all_core8defaults5indexNtB5_6TagSetNtNtB9_6tagset10TagSetLike8capacity
FN:369,_RNvXs8_NtNtCs55lPmkOpiMP_15tensor4all_core8defaults5indexINtB5_5IndexNtB5_5DynIdENtNtB9_10index_like9IndexLike10conj_state
FN:387,_RNvXs8_NtNtCs55lPmkOpiMP_15tensor4all_core8defaults5indexINtB5_5IndexNtB5_5DynIdENtNtB9_10index_like9IndexLike22create_dummy_link_pair
FN:361,_RNvXs8_NtNtCs55lPmkOpiMP_15tensor4all_core8defaults5indexINtB5_5IndexNtB5_5DynIdENtNtB9_10index_like9IndexLike2id
FN:365,_RNvXs8_NtNtCs55lPmkOpiMP_15tensor4all_core8defaults5indexINtB5_5IndexNtB5_5DynIdENtNtB9_10index_like9IndexLike3dim
FN:379,_RNvXs8_NtNtCs55lPmkOpiMP_15tensor4all_core8defaults5indexINtB5_5IndexNtB5_5DynIdENtNtB9_10index_like9IndexLike3sim
FN:374,_RNvXs8_NtNtCs55lPmkOpiMP_15tensor4all_core8defaults5indexINtB5_5IndexNtB5_5DynIdENtNtB9_10index_like9IndexLike4conj
FN:114,_RNvXs_NtNtCs55lPmkOpiMP_15tensor4all_core8defaults5indexNtB4_6TagSetNtNtNtCskzPJi2J8k3N_4core3ops5deref5Deref5deref
FN:214,_RNvMs1_NtNtCs55lPmkOpiMP_15tensor4all_core8defaults5indexINtB5_5IndexNtNvCsiE17YSM4w6k_12common_basics_25test_index_with_custom_id8StaticIdE4sizeB19_
FN:229,_RNvMs2_NtNtCs55lPmkOpiMP_15tensor4all_core8defaults5indexINtB5_5IndexNtNvCsiE17YSM4w6k_12common_basics_25test_index_with_custom_id8StaticIdE13new_with_sizeB19_
FN:219,_RNvMs1_NtNtCs55lPmkOpiMP_15tensor4all_core8defaults5indexINtB5_5IndexNtB5_5DynIdE4tagsCs4WtaOiHqeOe_16common_index_ops
FN:219,_RNvMs1_NtNtCs55lPmkOpiMP_15tensor4all_core8defaults5indexINtB5_5IndexNtB5_5DynIdE4tagsCsiilMvY82Bl4_17common_index_tags
FN:219,_RNvMs1_NtNtCs55lPmkOpiMP_15tensor4all_core8defaults5indexINtB5_5IndexNtB5_5DynIdE4tagsCshXoL3K4vzbe_9linalg_qr
FN:219,_RNvMs1_NtNtCs55lPmkOpiMP_15tensor4all_core8defaults5indexINtB5_5IndexNtB5_5DynIdE4tagsCsip3AcFacaFV_10linalg_svd
FN:219,_RNvMs1_NtNtCs55lPmkOpiMP_15tensor4all_core8defaults5indexINtB5_5IndexNtB5_5DynIdE4tagsCsdnTG4X9gKe5_15tensor4all_capi
FN:238,_RNvMs2_NtNtCs55lPmkOpiMP_15tensor4all_core8defaults5indexINtB5_5IndexNtB5_5DynIdE22new_with_size_and_tagsCsdnTG4X9gKe5_15tensor4all_capi
FN:96,_RNvMNtNtCs9q2tZtL9dYv_15tensor4all_core8defaults5indexNtB2_6TagSet3len
FN:106,_RNvMNtNtCs9q2tZtL9dYv_15tensor4all_core8defaults5indexNtB2_6TagSet5inner
FN:101,_RNvMNtNtCs9q2tZtL9dYv_15tensor4all_core8defaults5indexNtB2_6TagSet8is_empty
FN:77,_RNvMNtNtCs9q2tZtL9dYv_15tensor4all_core8defaults5indexNtB2_6TagSet9from_tags
FN:209,_RNvMs1_NtNtCs9q2tZtL9dYv_15tensor4all_core8defaults5indexINtB5_5IndexppE13new_with_tagsB9_
FN:214,_RNvMs1_NtNtCs9q2tZtL9dYv_15tensor4all_core8defaults5indexINtB5_5IndexppE4sizeB9_
FN:219,_RNvMs1_NtNtCs9q2tZtL9dYv_15tensor4all_core8defaults5indexINtB5_5IndexppE4tagsB9_
FN:229,_RNvMs2_NtNtCs9q2tZtL9dYv_15tensor4all_core8defaults5indexINtB5_5IndexppE13new_with_sizeB9_
FN:238,_RNvMs2_NtNtCs9q2tZtL9dYv_15tensor4all_core8defaults5indexINtB5_5IndexppE22new_with_size_and_tagsB9_
FN:148,_RNvXs0_NtNtCs9q2tZtL9dYv_15tensor4all_core8defaults5indexNtB5_6TagSetNtNtB9_6tagset10TagSetLike10remove_tag
FN:128,_RNvXs0_NtNtCs9q2tZtL9dYv_15tensor4all_core8defaults5indexNtB5_6TagSetNtNtB9_6tagset10TagSetLike3get
FN:120,_RNvXs0_NtNtCs9q2tZtL9dYv_15tensor4all_core8defaults5indexNtB5_6TagSetNtNtB9_6tagset10TagSetLike3len
FN:132,_RNvXs0_NtNtCs9q2tZtL9dYv_15tensor4all_core8defaults5indexNtB5_6TagSetNtNtB9_6tagset10TagSetLike4iter
FN:140,_RNvXs0_NtNtCs9q2tZtL9dYv_15tensor4all_core8defaults5indexNtB5_6TagSetNtNtB9_6tagset10TagSetLike7add_tag
FN:136,_RNvXs0_NtNtCs9q2tZtL9dYv_15tensor4all_core8defaults5indexNtB5_6TagSetNtNtB9_6tagset10TagSetLike7has_tag
FN:124,_RNvXs0_NtNtCs9q2tZtL9dYv_15tensor4all_core8defaults5indexNtB5_6TagSetNtNtB9_6tagset10TagSetLike8capacity
FN:387,_RNvXs8_NtNtCs9q2tZtL9dYv_15tensor4all_core8defaults5indexINtB5_5IndexNtB5_5DynIdENtNtB9_10index_like9IndexLike22create_dummy_link_pair
FN:114,_RNvXs_NtNtCs9q2tZtL9dYv_15tensor4all_core8defaults5indexNtB4_6TagSetNtNtNtCskzPJi2J8k3N_4core3ops5deref5Deref5deref
FN:311,_RINvXs6_NtNtCs9q2tZtL9dYv_15tensor4all_core8defaults5indexINtB6_5IndexNtB6_5DynIdENtNtCskzPJi2J8k3N_4core4hash4Hash4hashNtNtNtCsiThrkg7suPy_3std4hash6random13DefaultHasherEBa_
FN:415,_RNCNvMs9_NtNtCs9q2tZtL9dYv_15tensor4all_core8defaults5indexINtB7_5IndexNtB7_5DynIdE8new_bond0Bb_
FN:332,_RNCNvNtNtCs9q2tZtL9dYv_15tensor4all_core8defaults5index11generate_id0B7_
FN:200,_RNvMs1_NtNtCs9q2tZtL9dYv_15tensor4all_core8defaults5indexINtB5_5IndexNtB5_5DynIdE3newB9_
FN:303,_RNvXs4_NtNtCs9q2tZtL9dYv_15tensor4all_core8defaults5indexINtB5_5IndexNtB5_5DynIdENtNtCskzPJi2J8k3N_4core3cmp9PartialEq2eqB9_
FN:557,_RINvNtNtNtCs9q2tZtL9dYv_15tensor4all_core8defaults5index5tests25__assert_index_like_boundsINtB4_5IndexNtB4_5DynIdEEB8_
FN:451,_RNCNCNCNvNtNtNtCs9q2tZtL9dYv_15tensor4all_core8defaults5index5testss_37test_thread_local_rng_different_seeds000Bd_
FN:449,_RNCNCNvNtNtNtCs9q2tZtL9dYv_15tensor4all_core8defaults5index5testss_37test_thread_local_rng_different_seeds00Bb_
FN:448,_RNCNvNtNtNtCs9q2tZtL9dYv_15tensor4all_core8defaults5index5testss_37test_thread_local_rng_different_seeds0B9_
FN:527,_RNvNtNtNtCs9q2tZtL9dYv_15tensor4all_core8defaults5index5testss_13test_new_bond
FN:426,_RNvNtNtNtCs9q2tZtL9dYv_15tensor4all_core8defaults5index5testss_18test_id_generation
FN:471,_RNvNtNtNtCs9q2tZtL9dYv_15tensor4all_core8defaults5index5testss_21test_index_like_basic
FN:500,_RNvNtNtNtCs9q2tZtL9dYv_15tensor4all_core8defaults5index5testss_24test_index_like_equality
FN:572,_RNvNtNtNtCs9q2tZtL9dYv_15tensor4all_core8defaults5index5testss_25test_conj_undirected_noop
FN:566,_RNvNtNtNtCs9q2tZtL9dYv_15tensor4all_core8defaults5index5testss_26test_conj_state_undirected
FN:483,_RNvNtNtNtCs9q2tZtL9dYv_15tensor4all_core8defaults5index5testss_26test_index_like_id_methods
FN:512,_RNvNtNtNtCs9q2tZtL9dYv_15tensor4all_core8defaults5index5testss_26test_index_like_in_hashset
FN:560,_RNvNtNtNtCs9q2tZtL9dYv_15tensor4all_core8defaults5index5testss_31test_index_satisfies_index_like
FN:581,_RNvNtNtNtCs9q2tZtL9dYv_15tensor4all_core8defaults5index5testss_31test_is_contractable_undirected
FN:593,_RNvNtNtNtCs9q2tZtL9dYv_15tensor4all_core8defaults5index5testss_32test_is_contractable_same_id_dim
FN:443,_RNvNtNtNtCs9q2tZtL9dYv_15tensor4all_core8defaults5index5testss_37test_thread_local_rng_different_seeds
FN:537,_RNvNtNtNtCs9q2tZtL9dYv_15tensor4all_core8defaults5index5testss_8test_sim
FN:51,_RNvMNtNtCs9q2tZtL9dYv_15tensor4all_core8defaults5indexNtB2_6TagSet3new
FN:91,_RNvMNtNtCs9q2tZtL9dYv_15tensor4all_core8defaults5indexNtB2_6TagSet7has_tag
FN:57,_RNvMNtNtCs9q2tZtL9dYv_15tensor4all_core8defaults5indexNtB2_6TagSet8from_str
FN:284,_RNvMs3_NtNtCs9q2tZtL9dYv_15tensor4all_core8defaults5indexINtB5_5IndexNtB5_5DynIdE16new_dyn_with_tag
FN:271,_RNvMs3_NtNtCs9q2tZtL9dYv_15tensor4all_core8defaults5indexINtB5_5IndexNtB5_5DynIdE17new_dyn_with_tags
FN:250,_RNvMs3_NtNtCs9q2tZtL9dYv_15tensor4all_core8defaults5indexINtB5_5IndexNtB5_5DynIdE7new_dyn
FN:296,_RNvMs3_NtNtCs9q2tZtL9dYv_15tensor4all_core8defaults5indexINtB5_5IndexNtB5_5DynIdE8new_link
FN:414,_RNvMs9_NtNtCs9q2tZtL9dYv_15tensor4all_core8defaults5indexINtB5_5IndexNtB5_5DynIdE8new_bond
FN:331,_RNvNtNtCs9q2tZtL9dYv_15tensor4all_core8defaults5index11generate_id
FN:369,_RNvXs8_NtNtCs9q2tZtL9dYv_15tensor4all_core8defaults5indexINtB5_5IndexNtB5_5DynIdENtNtB9_10index_like9IndexLike10conj_state
FN:361,_RNvXs8_NtNtCs9q2tZtL9dYv_15tensor4all_core8defaults5indexINtB5_5IndexNtB5_5DynIdENtNtB9_10index_like9IndexLike2id
FN:365,_RNvXs8_NtNtCs9q2tZtL9dYv_15tensor4all_core8defaults5indexINtB5_5IndexNtB5_5DynIdENtNtB9_10index_like9IndexLike3dim
FN:379,_RNvXs8_NtNtCs9q2tZtL9dYv_15tensor4all_core8defaults5indexINtB5_5IndexNtB5_5DynIdENtNtB9_10index_like9IndexLike3sim
FN:374,_RNvXs8_NtNtCs9q2tZtL9dYv_15tensor4all_core8defaults5indexINtB5_5IndexNtB5_5DynIdENtNtB9_10index_like9IndexLike4conj
FN:229,_RNvMs2_NtNtCs55lPmkOpiMP_15tensor4all_core8defaults5indexINtB5_5IndexNtB5_5DynIdE13new_with_sizeCshTphA2Fw2hY_22tensor4all_itensorlike
FNDA:0,_RNvMs1_NtNtCs55lPmkOpiMP_15tensor4all_core8defaults5indexINtB5_5IndexppE13new_with_tagsB9_
FNDA:0,_RNvMs1_NtNtCs55lPmkOpiMP_15tensor4all_core8defaults5indexINtB5_5IndexppE4tagsB9_
FNDA:0,_RNvMs2_NtNtCs55lPmkOpiMP_15tensor4all_core8defaults5indexINtB5_5IndexppE13new_with_sizeB9_
FNDA:0,_RNvMs2_NtNtCs55lPmkOpiMP_15tensor4all_core8defaults5indexINtB5_5IndexppE22new_with_size_and_tagsB9_
FNDA:97160,_RINvXs6_NtNtCs55lPmkOpiMP_15tensor4all_core8defaults5indexINtB6_5IndexNtB6_5DynIdENtNtCskzPJi2J8k3N_4core4hash4Hash4hashNtNtNtCsiThrkg7suPy_3std4hash6random13DefaultHasherEBa_
FNDA:0,_RNCNvMs9_NtNtCs55lPmkOpiMP_15tensor4all_core8defaults5indexINtB7_5IndexNtB7_5DynIdE8new_bond0Bb_
FNDA:5219,_RNCNvNtNtCs55lPmkOpiMP_15tensor4all_core8defaults5index11generate_id0B7_
FNDA:11417,_RNvMs1_NtNtCs55lPmkOpiMP_15tensor4all_core8defaults5indexINtB5_5IndexNtB5_5DynIdE3newB9_
FNDA:110,_RNvMs1_NtNtCs55lPmkOpiMP_15tensor4all_core8defaults5indexINtB5_5IndexNtB5_5DynIdE4sizeB9_
FNDA:47604,_RNvXs4_NtNtCs55lPmkOpiMP_15tensor4all_core8defaults5indexINtB5_5IndexNtB5_5DynIdENtNtCskzPJi2J8k3N_4core3cmp9PartialEq2eqB9_
FNDA:7,_RNvMNtNtCs55lPmkOpiMP_15tensor4all_core8defaults5indexNtB2_6TagSet3len
FNDA:3161,_RNvMNtNtCs55lPmkOpiMP_15tensor4all_core8defaults5indexNtB2_6TagSet3new
FNDA:0,_RNvMNtNtCs55lPmkOpiMP_15tensor4all_core8defaults5indexNtB2_6TagSet5inner
FNDA:34,_RNvMNtNtCs55lPmkOpiMP_15tensor4all_core8defaults5indexNtB2_6TagSet7has_tag
FNDA:646,_RNvMNtNtCs55lPmkOpiMP_15tensor4all_core8defaults5indexNtB2_6TagSet8from_str
FNDA:0,_RNvMNtNtCs55lPmkOpiMP_15tensor4all_core8defaults5indexNtB2_6TagSet8is_empty
FNDA:2,_RNvMNtNtCs55lPmkOpiMP_15tensor4all_core8defaults5indexNtB2_6TagSet9from_tags
FNDA:638,_RNvMs3_NtNtCs55lPmkOpiMP_15tensor4all_core8defaults5indexINtB5_5IndexNtB5_5DynIdE16new_dyn_with_tag
FNDA:7,_RNvMs3_NtNtCs55lPmkOpiMP_15tensor4all_core8defaults5indexINtB5_5IndexNtB5_5DynIdE17new_dyn_with_tags
FNDA:3161,_RNvMs3_NtNtCs55lPmkOpiMP_15tensor4all_core8defaults5indexINtB5_5IndexNtB5_5DynIdE7new_dyn
FNDA:628,_RNvMs3_NtNtCs55lPmkOpiMP_15tensor4all_core8defaults5indexINtB5_5IndexNtB5_5DynIdE8new_link
FNDA:628,_RNvMs9_NtNtCs55lPmkOpiMP_15tensor4all_core8defaults5indexINtB5_5IndexNtB5_5DynIdE8new_bond
FNDA:5219,_RNvNtNtCs55lPmkOpiMP_15tensor4all_core8defaults5index11generate_id
FNDA:0,_RNvXs0_NtNtCs55lPmkOpiMP_15tensor4all_core8defaults5indexNtB5_6TagSetNtNtB9_6tagset10TagSetLike10remove_tag
FNDA:0,_RNvXs0_NtNtCs55lPmkOpiMP_15tensor4all_core8defaults5indexNtB5_6TagSetNtNtB9_6tagset10TagSetLike3get
FNDA:0,_RNvXs0_NtNtCs55lPmkOpiMP_15tensor4all_core8defaults5indexNtB5_6TagSetNtNtB9_6tagset10TagSetLike3len
FNDA:0,_RNvXs0_NtNtCs55lPmkOpiMP_15tensor4all_core8defaults5indexNtB5_6TagSetNtNtB9_6tagset10TagSetLike4iter
FNDA:0,_RNvXs0_NtNtCs55lPmkOpiMP_15tensor4all_core8defaults5indexNtB5_6TagSetNtNtB9_6tagset10TagSetLike7add_tag
FNDA:0,_RNvXs0_NtNtCs55lPmkOpiMP_15tensor4all_core8defaults5indexNtB5_6TagSetNtNtB9_6tagset10TagSetLike7has_tag
FNDA:0,_RNvXs0_NtNtCs55lPmkOpiMP_15tensor4all_core8defaults5indexNtB5_6TagSetNtNtB9_6tagset10TagSetLike8capacity
FNDA:24250,_RNvXs8_NtNtCs55lPmkOpiMP_15tensor4all_core8defaults5indexINtB5_5IndexNtB5_5DynIdENtNtB9_10index_like9IndexLike10conj_state
FNDA:7,_RNvXs8_NtNtCs55lPmkOpiMP_15tensor4all_core8defaults5indexINtB5_5IndexNtB5_5DynIdENtNtB9_10index_like9IndexLike22create_dummy_link_pair
FNDA:278017,_RNvXs8_NtNtCs55lPmkOpiMP_15tensor4all_core8defaults5indexINtB5_5IndexNtB5_5DynIdENtNtB9_10index_like9IndexLike2id
FNDA:31865,_RNvXs8_NtNtCs55lPmkOpiMP_15tensor4all_core8defaults5indexINtB5_5IndexNtB5_5DynIdENtNtB9_10index_like9IndexLike3dim
FNDA:1406,_RNvXs8_NtNtCs55lPmkOpiMP_15tensor4all_core8defaults5indexINtB5_5IndexNtB5_5DynIdENtNtB9_10index_like9IndexLike3sim
FNDA:1841,_RNvXs8_NtNtCs55lPmkOpiMP_15tensor4all_core8defaults5indexINtB5_5IndexNtB5_5DynIdENtNtB9_10index_like9IndexLike4conj
FNDA:2,_RNvXs_NtNtCs55lPmkOpiMP_15tensor4all_core8defaults5indexNtB4_6TagSetNtNtNtCskzPJi2J8k3N_4core3ops5deref5Deref5deref
FNDA:1,_RNvMs1_NtNtCs55lPmkOpiMP_15tensor4all_core8defaults5indexINtB5_5IndexNtNvCsiE17YSM4w6k_12common_basics_25test_index_with_custom_id8StaticIdE4sizeB19_
FNDA:1,_RNvMs2_NtNtCs55lPmkOpiMP_15tensor4all_core8defaults5indexINtB5_5IndexNtNvCsiE17YSM4w6k_12common_basics_25test_index_with_custom_id8StaticIdE13new_with_sizeB19_
FNDA:4,_RNvMs1_NtNtCs55lPmkOpiMP_15tensor4all_core8defaults5indexINtB5_5IndexNtB5_5DynIdE4tagsCs4WtaOiHqeOe_16common_index_ops
FNDA:13,_RNvMs1_NtNtCs55lPmkOpiMP_15tensor4all_core8defaults5indexINtB5_5IndexNtB5_5DynIdE4tagsCsiilMvY82Bl4_17common_index_tags
FNDA:6,_RNvMs1_NtNtCs55lPmkOpiMP_15tensor4all_core8defaults5indexINtB5_5IndexNtB5_5DynIdE4tagsCshXoL3K4vzbe_9linalg_qr
FNDA:10,_RNvMs1_NtNtCs55lPmkOpiMP_15tensor4all_core8defaults5indexINtB5_5IndexNtB5_5DynIdE4tagsCsip3AcFacaFV_10linalg_svd
FNDA:5,_RNvMs1_NtNtCs55lPmkOpiMP_15tensor4all_core8defaults5indexINtB5_5IndexNtB5_5DynIdE4tagsCsdnTG4X9gKe5_15tensor4all_capi
FNDA:1,_RNvMs2_NtNtCs55lPmkOpiMP_15tensor4all_core8defaults5indexINtB5_5IndexNtB5_5DynIdE22new_with_size_and_tagsCsdnTG4X9gKe5_15tensor4all_capi
FNDA:0,_RNvMNtNtCs9q2tZtL9dYv_15tensor4all_core8defaults5indexNtB2_6TagSet3len
FNDA:0,_RNvMNtNtCs9q2tZtL9dYv_15tensor4all_core8defaults5indexNtB2_6TagSet5inner
FNDA:0,_RNvMNtNtCs9q2tZtL9dYv_15tensor4all_core8defaults5indexNtB2_6TagSet8is_empty
FNDA:0,_RNvMNtNtCs9q2tZtL9dYv_15tensor4all_core8defaults5indexNtB2_6TagSet9from_tags
FNDA:0,_RNvMs1_NtNtCs9q2tZtL9dYv_15tensor4all_core8defaults5indexINtB5_5IndexppE13new_with_tagsB9_
FNDA:0,_RNvMs1_NtNtCs9q2tZtL9dYv_15tensor4all_core8defaults5indexINtB5_5IndexppE4sizeB9_
FNDA:0,_RNvMs1_NtNtCs9q2tZtL9dYv_15tensor4all_core8defaults5indexINtB5_5IndexppE4tagsB9_
FNDA:0,_RNvMs2_NtNtCs9q2tZtL9dYv_15tensor4all_core8defaults5indexINtB5_5IndexppE13new_with_sizeB9_
FNDA:0,_RNvMs2_NtNtCs9q2tZtL9dYv_15tensor4all_core8defaults5indexINtB5_5IndexppE22new_with_size_and_tagsB9_
FNDA:0,_RNvXs0_NtNtCs9q2tZtL9dYv_15tensor4all_core8defaults5indexNtB5_6TagSetNtNtB9_6tagset10TagSetLike10remove_tag
FNDA:0,_RNvXs0_NtNtCs9q2tZtL9dYv_15tensor4all_core8defaults5indexNtB5_6TagSetNtNtB9_6tagset10TagSetLike3get
FNDA:0,_RNvXs0_NtNtCs9q2tZtL9dYv_15tensor4all_core8defaults5indexNtB5_6TagSetNtNtB9_6tagset10TagSetLike3len
FNDA:0,_RNvXs0_NtNtCs9q2tZtL9dYv_15tensor4all_core8defaults5indexNtB5_6TagSetNtNtB9_6tagset10TagSetLike4iter
FNDA:0,_RNvXs0_NtNtCs9q2tZtL9dYv_15tensor4all_core8defaults5indexNtB5_6TagSetNtNtB9_6tagset10TagSetLike7add_tag
FNDA:0,_RNvXs0_NtNtCs9q2tZtL9dYv_15tensor4all_core8defaults5indexNtB5_6TagSetNtNtB9_6tagset10TagSetLike7has_tag
FNDA:0,_RNvXs0_NtNtCs9q2tZtL9dYv_15tensor4all_core8defaults5indexNtB5_6TagSetNtNtB9_6tagset10TagSetLike8capacity
FNDA:0,_RNvXs8_NtNtCs9q2tZtL9dYv_15tensor4all_core8defaults5indexINtB5_5IndexNtB5_5DynIdENtNtB9_10index_like9IndexLike22create_dummy_link_pair
FNDA:0,_RNvXs_NtNtCs9q2tZtL9dYv_15tensor4all_core8defaults5indexNtB4_6TagSetNtNtNtCskzPJi2J8k3N_4core3ops5deref5Deref5deref
FNDA:402,_RINvXs6_NtNtCs9q2tZtL9dYv_15tensor4all_core8defaults5indexINtB6_5IndexNtB6_5DynIdENtNtCskzPJi2J8k3N_4core4hash4Hash4hashNtNtNtCsiThrkg7suPy_3std4hash6random13DefaultHasherEBa_
FNDA:0,_RNCNvMs9_NtNtCs9q2tZtL9dYv_15tensor4all_core8defaults5indexINtB7_5IndexNtB7_5DynIdE8new_bond0Bb_
FNDA:435,_RNCNvNtNtCs9q2tZtL9dYv_15tensor4all_core8defaults5index11generate_id0B7_
FNDA:131,_RNvMs1_NtNtCs9q2tZtL9dYv_15tensor4all_core8defaults5indexINtB5_5IndexNtB5_5DynIdE3newB9_
FNDA:56,_RNvXs4_NtNtCs9q2tZtL9dYv_15tensor4all_core8defaults5indexINtB5_5IndexNtB5_5DynIdENtNtCskzPJi2J8k3N_4core3cmp9PartialEq2eqB9_
FNDA:1,_RINvNtNtNtCs9q2tZtL9dYv_15tensor4all_core8defaults5index5tests25__assert_index_like_boundsINtB4_5IndexNtB4_5DynIdEEB8_
FNDA:400,_RNCNCNCNvNtNtNtCs9q2tZtL9dYv_15tensor4all_core8defaults5index5testss_37test_thread_local_rng_different_seeds000Bd_
FNDA:4,_RNCNCNvNtNtNtCs9q2tZtL9dYv_15tensor4all_core8defaults5index5testss_37test_thread_local_rng_different_seeds00Bb_
FNDA:4,_RNCNvNtNtNtCs9q2tZtL9dYv_15tensor4all_core8defaults5index5testss_37test_thread_local_rng_different_seeds0B9_
FNDA:1,_RNvNtNtNtCs9q2tZtL9dYv_15tensor4all_core8defaults5index5testss_13test_new_bond
FNDA:1,_RNvNtNtNtCs9q2tZtL9dYv_15tensor4all_core8defaults5index5testss_18test_id_generation
FNDA:1,_RNvNtNtNtCs9q2tZtL9dYv_15tensor4all_core8defaults5index5testss_21test_index_like_basic
FNDA:1,_RNvNtNtNtCs9q2tZtL9dYv_15tensor4all_core8defaults5index5testss_24test_index_like_equality
FNDA:1,_RNvNtNtNtCs9q2tZtL9dYv_15tensor4all_core8defaults5index5testss_25test_conj_undirected_noop
FNDA:1,_RNvNtNtNtCs9q2tZtL9dYv_15tensor4all_core8defaults5index5testss_26test_conj_state_undirected
FNDA:1,_RNvNtNtNtCs9q2tZtL9dYv_15tensor4all_core8defaults5index5testss_26test_index_like_id_methods
FNDA:1,_RNvNtNtNtCs9q2tZtL9dYv_15tensor4all_core8defaults5index5testss_26test_index_like_in_hashset
FNDA:1,_RNvNtNtNtCs9q2tZtL9dYv_15tensor4all_core8defaults5index5testss_31test_index_satisfies_index_like
FNDA:1,_RNvNtNtNtCs9q2tZtL9dYv_15tensor4all_core8defaults5index5testss_31test_is_contractable_undirected
FNDA:1,_RNvNtNtNtCs9q2tZtL9dYv_15tensor4all_core8defaults5index5testss_32test_is_contractable_same_id_dim
FNDA:1,_RNvNtNtNtCs9q2tZtL9dYv_15tensor4all_core8defaults5index5testss_37test_thread_local_rng_different_seeds
FNDA:1,_RNvNtNtNtCs9q2tZtL9dYv_15tensor4all_core8defaults5index5testss_8test_sim
FNDA:25,_RNvMNtNtCs9q2tZtL9dYv_15tensor4all_core8defaults5indexNtB2_6TagSet3new
FNDA:2,_RNvMNtNtCs9q2tZtL9dYv_15tensor4all_core8defaults5indexNtB2_6TagSet7has_tag
FNDA:6,_RNvMNtNtCs9q2tZtL9dYv_15tensor4all_core8defaults5indexNtB2_6TagSet8from_str
FNDA:5,_RNvMs3_NtNtCs9q2tZtL9dYv_15tensor4all_core8defaults5indexINtB5_5IndexNtB5_5DynIdE16new_dyn_with_tag
FNDA:1,_RNvMs3_NtNtCs9q2tZtL9dYv_15tensor4all_core8defaults5indexINtB5_5IndexNtB5_5DynIdE17new_dyn_with_tags
FNDA:25,_RNvMs3_NtNtCs9q2tZtL9dYv_15tensor4all_core8defaults5indexINtB5_5IndexNtB5_5DynIdE7new_dyn
FNDA:5,_RNvMs3_NtNtCs9q2tZtL9dYv_15tensor4all_core8defaults5indexINtB5_5IndexNtB5_5DynIdE8new_link
FNDA:2,_RNvMs9_NtNtCs9q2tZtL9dYv_15tensor4all_core8defaults5indexINtB5_5IndexNtB5_5DynIdE8new_bond
FNDA:435,_RNvNtNtCs9q2tZtL9dYv_15tensor4all_core8defaults5index11generate_id
FNDA:221,_RNvXs8_NtNtCs9q2tZtL9dYv_15tensor4all_core8defaults5indexINtB5_5IndexNtB5_5DynIdENtNtB9_10index_like9IndexLike10conj_state
FNDA:1112,_RNvXs8_NtNtCs9q2tZtL9dYv_15tensor4all_core8defaults5indexINtB5_5IndexNtB5_5DynIdENtNtB9_10index_like9IndexLike2id
FNDA:268,_RNvXs8_NtNtCs9q2tZtL9dYv_15tensor4all_core8defaults5indexINtB5_5IndexNtB5_5DynIdENtNtB9_10index_like9IndexLike3dim
FNDA:1,_RNvXs8_NtNtCs9q2tZtL9dYv_15tensor4all_core8defaults5indexINtB5_5IndexNtB5_5DynIdENtNtB9_10index_like9IndexLike3sim
FNDA:29,_RNvXs8_NtNtCs9q2tZtL9dYv_15tensor4all_core8defaults5indexINtB5_5IndexNtB5_5DynIdENtNtB9_10index_like9IndexLike4conj
FNDA:40,_RNvMs2_NtNtCs55lPmkOpiMP_15tensor4all_core8defaults5indexINtB5_5IndexNtB5_5DynIdE13new_with_sizeCshTphA2Fw2hY_22tensor4all_itensorlike
FNF:54
FNH:43
DA:51,3186
DA:52,3186
DA:53,3186
DA:57,652
DA:58,652
DA:59,652
DA:77,2
DA:78,2
DA:79,4
DA:80,3
DA:81,1
DA:82,1
DA:83,1
DA:84,2
DA:85,2
DA:87,1
DA:88,2
DA:91,36
DA:92,36
DA:93,36
DA:96,7
DA:97,7
DA:98,7
DA:101,0
DA:102,0
DA:103,0
DA:106,0
DA:107,0
DA:108,0
DA:114,2
DA:115,2
DA:116,2
DA:120,0
DA:121,0
DA:122,0
DA:124,0
DA:125,0
DA:126,0
DA:128,0
DA:129,0
DA:130,0
DA:132,0
DA:133,0
DA:134,0
DA:136,0
DA:137,0
DA:138,0
DA:140,0
DA:142,0
DA:143,0
DA:144,0
DA:145,0
DA:146,0
DA:148,0
DA:150,0
DA:151,0
DA:152,0
DA:153,0
DA:154,0
DA:155,0
DA:156,0
DA:200,11548
DA:201,11548
DA:202,11548
DA:203,11548
DA:204,11548
DA:205,11548
DA:206,11548
DA:209,0
DA:210,0
DA:211,0
DA:214,111
DA:215,111
DA:216,111
DA:219,38
DA:220,38
DA:221,38
DA:229,41
DA:230,41
DA:231,41
DA:232,41
DA:233,41
DA:234,41
DA:235,41
DA:238,1
DA:239,1
DA:240,1
DA:241,1
DA:242,1
DA:243,1
DA:244,1
DA:250,3186
DA:251,3186
DA:252,3186
DA:253,3186
DA:254,3186
DA:255,3186
DA:256,3186
DA:271,8
DA:272,8
DA:273,8
DA:274,8
DA:275,8
DA:276,8
DA:277,8
DA:284,643
DA:286,643
DA:287,643
DA:288,643
DA:290,643
DA:296,633
DA:297,633
DA:298,633
DA:303,47660
DA:304,47660
DA:305,47660
DA:311,97562
DA:312,97562
DA:313,97562
DA:331,5654
DA:332,5654
DA:333,5654
DA:361,279129
DA:362,279129
DA:363,279129
DA:365,32133
DA:366,32133
DA:367,32133
DA:369,24471
DA:371,24471
DA:372,24471
DA:374,1870
DA:376,1870
DA:377,1870
DA:379,1407
DA:380,1407
DA:381,1407
DA:382,1407
DA:383,1407
DA:384,1407
DA:385,1407
DA:387,7
DA:388,7
DA:389,7
DA:390,7
DA:391,7
DA:392,7
DA:393,7
DA:394,7
DA:395,7
DA:396,7
DA:397,7
DA:398,7
DA:399,7
DA:400,7
DA:414,630
DA:415,630
DA:416,630
DA:426,1
DA:427,1
DA:428,1
DA:429,1
DA:432,1
DA:433,1
DA:434,1
DA:437,1
DA:438,1
DA:439,1
DA:440,1
DA:443,1
DA:447,1
DA:448,4
DA:449,4
DA:450,4
DA:451,400
DA:452,4
DA:453,4
DA:454,4
DA:455,1
DA:457,1
DA:458,5
DA:459,4
DA:460,4
DA:461,4
DA:463,1
DA:464,1
DA:465,1
DA:466,0
DA:468,1
DA:471,1
DA:472,1
DA:475,1
DA:478,1
DA:479,1
DA:480,1
DA:483,1
DA:484,1
DA:485,1
DA:486,1
DA:489,1
DA:491,1
DA:494,1
DA:495,1
DA:496,1
DA:497,1
DA:500,1
DA:501,1
DA:502,1
DA:503,1
DA:506,1
DA:508,1
DA:509,1
DA:512,1
DA:513,1
DA:514,1
DA:515,1
DA:517,1
DA:518,1
DA:521,1
DA:523,1
DA:524,1
DA:527,1
DA:528,1
DA:529,1
DA:532,1
DA:533,1
DA:534,1
DA:537,1
DA:538,1
DA:539,1
DA:542,1
DA:545,1
DA:546,1
DA:549,1
DA:552,1
DA:553,1
DA:554,1
DA:555,1
DA:557,1
DA:560,1
DA:562,1
DA:563,1
DA:566,1
DA:567,1
DA:568,1
DA:569,1
DA:572,1
DA:573,1
DA:574,1
DA:576,1
DA:577,1
DA:578,1
DA:581,1
DA:582,1
DA:583,1
DA:584,1
DA:587,1
DA:589,1
DA:590,1
DA:593,1
DA:594,1
DA:595,1
DA:596,1
DA:599,1
DA:602,1
DA:603,1
BRF:0
BRH:0
LF:271
LH:231
end_of_record
SF:/Users/ken/git_for_collab4/tensor4all-rs/crates/tensor4all-core/src/defaults/qr.rs
FN:143,_RINvNtNtCs55lPmkOpiMP_15tensor4all_core8defaults2qr2qrpEB6_
FN:268,_RNvNtNtCs55lPmkOpiMP_15tensor4all_core8defaults2qr6qr_c64B5_
FN:40,_RNvMNtNtCs55lPmkOpiMP_15tensor4all_core8defaults2qrNtB2_9QrOptions4rtol
FN:33,_RNvMNtNtCs55lPmkOpiMP_15tensor4all_core8defaults2qrNtB2_9QrOptions9with_rtol
FN:52,_RNvNtNtCs55lPmkOpiMP_15tensor4all_core8defaults2qr15default_qr_rtol
FN:63,_RNvNtNtCs55lPmkOpiMP_15tensor4all_core8defaults2qr19set_default_qr_rtol
FN:81,_RINvNtNtCs55lPmkOpiMP_15tensor4all_core8defaults2qr24compute_retained_rank_qrINtCseyqKeAT1xJ3_11num_complex7ComplexdEEB6_
FN:81,_RINvNtNtCs55lPmkOpiMP_15tensor4all_core8defaults2qr24compute_retained_rank_qrdEB6_
FN:191,_RINvNtNtCs55lPmkOpiMP_15tensor4all_core8defaults2qr7qr_withINtCseyqKeAT1xJ3_11num_complex7ComplexdEEB6_
FN:191,_RINvNtNtCs55lPmkOpiMP_15tensor4all_core8defaults2qr7qr_withdEB6_
FN:208,_RNCINvNtNtCs55lPmkOpiMP_15tensor4all_core8defaults2qr7qr_withINtCseyqKeAT1xJ3_11num_complex7ComplexdEE0B8_
FN:239,_RNCINvNtNtCs55lPmkOpiMP_15tensor4all_core8defaults2qr7qr_withINtCseyqKeAT1xJ3_11num_complex7ComplexdEEs_0B8_
FN:208,_RNCINvNtNtCs55lPmkOpiMP_15tensor4all_core8defaults2qr7qr_withdE0B8_
FN:239,_RNCINvNtNtCs55lPmkOpiMP_15tensor4all_core8defaults2qr7qr_withdEs_0B8_
FN:66,_RNCNvNtNtCs55lPmkOpiMP_15tensor4all_core8defaults2qr19set_default_qr_rtol0B7_
FN:143,_RINvNtNtCs55lPmkOpiMP_15tensor4all_core8defaults2qr2qrINtCseyqKeAT1xJ3_11num_complex7ComplexdEECshXoL3K4vzbe_9linalg_qr
FN:143,_RINvNtNtCs55lPmkOpiMP_15tensor4all_core8defaults2qr2qrdECshXoL3K4vzbe_9linalg_qr
FN:268,_RNvNtNtCs55lPmkOpiMP_15tensor4all_core8defaults2qr6qr_c64CshXoL3K4vzbe_9linalg_qr
FN:81,_RINvNtNtCs9q2tZtL9dYv_15tensor4all_core8defaults2qr24compute_retained_rank_qrpEB6_
FN:143,_RINvNtNtCs9q2tZtL9dYv_15tensor4all_core8defaults2qr2qrpEB6_
FN:191,_RINvNtNtCs9q2tZtL9dYv_15tensor4all_core8defaults2qr7qr_withpEB6_
FN:208,_RNCINvNtNtCs9q2tZtL9dYv_15tensor4all_core8defaults2qr7qr_withpE0B8_
FN:239,_RNCINvNtNtCs9q2tZtL9dYv_15tensor4all_core8defaults2qr7qr_withpEs_0B8_
FN:66,_RNCNvNtNtCs9q2tZtL9dYv_15tensor4all_core8defaults2qr19set_default_qr_rtol0B7_
FN:40,_RNvMNtNtCs9q2tZtL9dYv_15tensor4all_core8defaults2qrNtB2_9QrOptions4rtol
FN:33,_RNvMNtNtCs9q2tZtL9dYv_15tensor4all_core8defaults2qrNtB2_9QrOptions9with_rtol
FN:52,_RNvNtNtCs9q2tZtL9dYv_15tensor4all_core8defaults2qr15default_qr_rtol
FN:63,_RNvNtNtCs9q2tZtL9dYv_15tensor4all_core8defaults2qr19set_default_qr_rtol
FN:268,_RNvNtNtCs9q2tZtL9dYv_15tensor4all_core8defaults2qr6qr_c64B5_
FNDA:0,_RINvNtNtCs55lPmkOpiMP_15tensor4all_core8defaults2qr2qrpEB6_
FNDA:0,_RNvNtNtCs55lPmkOpiMP_15tensor4all_core8defaults2qr6qr_c64B5_
FNDA:0,_RNvMNtNtCs55lPmkOpiMP_15tensor4all_core8defaults2qrNtB2_9QrOptions4rtol
FNDA:0,_RNvMNtNtCs55lPmkOpiMP_15tensor4all_core8defaults2qrNtB2_9QrOptions9with_rtol
FNDA:58,_RNvNtNtCs55lPmkOpiMP_15tensor4all_core8defaults2qr15default_qr_rtol
FNDA:0,_RNvNtNtCs55lPmkOpiMP_15tensor4all_core8defaults2qr19set_default_qr_rtol
FNDA:1,_RINvNtNtCs55lPmkOpiMP_15tensor4all_core8defaults2qr24compute_retained_rank_qrINtCseyqKeAT1xJ3_11num_complex7ComplexdEEB6_
FNDA:54,_RINvNtNtCs55lPmkOpiMP_15tensor4all_core8defaults2qr24compute_retained_rank_qrdEB6_
FNDA:1,_RINvNtNtCs55lPmkOpiMP_15tensor4all_core8defaults2qr7qr_withINtCseyqKeAT1xJ3_11num_complex7ComplexdEEB6_
FNDA:57,_RINvNtNtCs55lPmkOpiMP_15tensor4all_core8defaults2qr7qr_withdEB6_
FNDA:0,_RNCINvNtNtCs55lPmkOpiMP_15tensor4all_core8defaults2qr7qr_withINtCseyqKeAT1xJ3_11num_complex7ComplexdEE0B8_
FNDA:0,_RNCINvNtNtCs55lPmkOpiMP_15tensor4all_core8defaults2qr7qr_withINtCseyqKeAT1xJ3_11num_complex7ComplexdEEs_0B8_
FNDA:3,_RNCINvNtNtCs55lPmkOpiMP_15tensor4all_core8defaults2qr7qr_withdE0B8_
FNDA:0,_RNCINvNtNtCs55lPmkOpiMP_15tensor4all_core8defaults2qr7qr_withdEs_0B8_
FNDA:0,_RNCNvNtNtCs55lPmkOpiMP_15tensor4all_core8defaults2qr19set_default_qr_rtol0B7_
FNDA:1,_RINvNtNtCs55lPmkOpiMP_15tensor4all_core8defaults2qr2qrINtCseyqKeAT1xJ3_11num_complex7ComplexdEECshXoL3K4vzbe_9linalg_qr
FNDA:7,_RINvNtNtCs55lPmkOpiMP_15tensor4all_core8defaults2qr2qrdECshXoL3K4vzbe_9linalg_qr
FNDA:1,_RNvNtNtCs55lPmkOpiMP_15tensor4all_core8defaults2qr6qr_c64CshXoL3K4vzbe_9linalg_qr
FNDA:0,_RINvNtNtCs9q2tZtL9dYv_15tensor4all_core8defaults2qr24compute_retained_rank_qrpEB6_
FNDA:0,_RINvNtNtCs9q2tZtL9dYv_15tensor4all_core8defaults2qr2qrpEB6_
FNDA:0,_RINvNtNtCs9q2tZtL9dYv_15tensor4all_core8defaults2qr7qr_withpEB6_
FNDA:0,_RNCINvNtNtCs9q2tZtL9dYv_15tensor4all_core8defaults2qr7qr_withpE0B8_
FNDA:0,_RNCINvNtNtCs9q2tZtL9dYv_15tensor4all_core8defaults2qr7qr_withpEs_0B8_
FNDA:0,_RNCNvNtNtCs9q2tZtL9dYv_15tensor4all_core8defaults2qr19set_default_qr_rtol0B7_
FNDA:0,_RNvMNtNtCs9q2tZtL9dYv_15tensor4all_core8defaults2qrNtB2_9QrOptions4rtol
FNDA:0,_RNvMNtNtCs9q2tZtL9dYv_15tensor4all_core8defaults2qrNtB2_9QrOptions9with_rtol
FNDA:0,_RNvNtNtCs9q2tZtL9dYv_15tensor4all_core8defaults2qr15default_qr_rtol
FNDA:0,_RNvNtNtCs9q2tZtL9dYv_15tensor4all_core8defaults2qr19set_default_qr_rtol
FNDA:0,_RNvNtNtCs9q2tZtL9dYv_15tensor4all_core8defaults2qr6qr_c64B5_
FNF:11
FNH:6
DA:33,0
DA:34,0
DA:35,0
DA:36,0
DA:37,0
DA:40,0
DA:41,0
DA:42,0
DA:52,58
DA:53,58
DA:54,58
DA:63,0
DA:64,0
DA:65,0
DA:66,0
DA:67,0
DA:81,55
DA:82,55
DA:83,55
DA:84,55
DA:86,55
DA:87,0
DA:88,55
DA:92,55
DA:93,55
DA:95,112
DA:96,112
DA:97,112
DA:98,112
DA:99,26
DA:100,26
DA:101,86
DA:105,55
DA:106,55
DA:143,8
DA:144,8
DA:145,8
DA:146,8
DA:147,8
DA:148,8
DA:149,8
DA:151,8
DA:152,8
DA:191,58
DA:192,58
DA:193,58
DA:194,58
DA:195,58
DA:196,58
DA:197,58
DA:198,58
DA:201,58
DA:202,58
DA:203,0
DA:204,58
DA:207,58
DA:208,58
DA:209,58
DA:210,55
DA:214,55
DA:215,55
DA:218,55
DA:222,55
DA:223,148
DA:224,243
DA:225,243
DA:226,243
DA:230,55
DA:231,86
DA:232,300
DA:233,300
DA:234,300
DA:238,55
DA:239,55
DA:240,55
DA:243,55
DA:244,55
DA:245,55
DA:246,55
DA:249,55
DA:250,55
DA:251,55
DA:252,55
DA:254,55
DA:255,58
DA:268,1
DA:269,1
DA:270,1
DA:271,1
DA:272,1
DA:273,1
BRF:0
BRH:0
LF:94
LH:77
end_of_record
SF:/Users/ken/git_for_collab4/tensor4all-rs/crates/tensor4all-core/src/defaults/svd.rs
FN:260,_RINvNtNtCs55lPmkOpiMP_15tensor4all_core8defaults3svd3svdpEB6_
FN:412,_RNvNtNtCs55lPmkOpiMP_15tensor4all_core8defaults3svd7svd_c64B5_
FN:160,_RINvNtNtCs55lPmkOpiMP_15tensor4all_core8defaults3svd27extract_usv_from_svd_resultINtCseyqKeAT1xJ3_11num_complex7ComplexdEEB6_
FN:160,_RINvNtNtCs55lPmkOpiMP_15tensor4all_core8defaults3svd27extract_usv_from_svd_resultdEB6_
FN:313,_RINvNtNtCs55lPmkOpiMP_15tensor4all_core8defaults3svd8svd_withINtCseyqKeAT1xJ3_11num_complex7ComplexdEEB6_
FN:313,_RINvNtNtCs55lPmkOpiMP_15tensor4all_core8defaults3svd8svd_withdEB6_
FN:330,_RNCINvNtNtCs55lPmkOpiMP_15tensor4all_core8defaults3svd8svd_withINtCseyqKeAT1xJ3_11num_complex7ComplexdEE0B8_
FN:371,_RNCINvNtNtCs55lPmkOpiMP_15tensor4all_core8defaults3svd8svd_withINtCseyqKeAT1xJ3_11num_complex7ComplexdEEs_0B8_
FN:330,_RNCINvNtNtCs55lPmkOpiMP_15tensor4all_core8defaults3svd8svd_withdE0B8_
FN:371,_RNCINvNtNtCs55lPmkOpiMP_15tensor4all_core8defaults3svd8svd_withdEs_0B8_
FN:90,_RNCNvNtNtCs55lPmkOpiMP_15tensor4all_core8defaults3svd20set_default_svd_rtol0B7_
FN:110,_RNCNvNtNtCs55lPmkOpiMP_15tensor4all_core8defaults3svd21compute_retained_rank0B7_
FN:42,_RNvMNtNtCs55lPmkOpiMP_15tensor4all_core8defaults3svdNtB2_10SvdOptions13with_max_rank
FN:49,_RNvMNtNtCs55lPmkOpiMP_15tensor4all_core8defaults3svdNtB2_10SvdOptions4rtol
FN:54,_RNvMNtNtCs55lPmkOpiMP_15tensor4all_core8defaults3svdNtB2_10SvdOptions8max_rank
FN:35,_RNvMNtNtCs55lPmkOpiMP_15tensor4all_core8defaults3svdNtB2_10SvdOptions9with_rtol
FN:76,_RNvNtNtCs55lPmkOpiMP_15tensor4all_core8defaults3svd16default_svd_rtol
FN:87,_RNvNtNtCs55lPmkOpiMP_15tensor4all_core8defaults3svd20set_default_svd_rtol
FN:104,_RNvNtNtCs55lPmkOpiMP_15tensor4all_core8defaults3svd21compute_retained_rank
FN:60,_RNvXs_NtNtCs55lPmkOpiMP_15tensor4all_core8defaults3svdNtB4_10SvdOptionsNtNtB8_10truncation19HasTruncationParams17truncation_params
FN:64,_RNvXs_NtNtCs55lPmkOpiMP_15tensor4all_core8defaults3svdNtB4_10SvdOptionsNtNtB8_10truncation19HasTruncationParams21truncation_params_mut
FN:260,_RINvNtNtCs55lPmkOpiMP_15tensor4all_core8defaults3svd3svddECs5DpBAVeA0A6_16linalg_factorize
FN:260,_RINvNtNtCs55lPmkOpiMP_15tensor4all_core8defaults3svd3svdINtCseyqKeAT1xJ3_11num_complex7ComplexdEECsip3AcFacaFV_10linalg_svd
FN:260,_RINvNtNtCs55lPmkOpiMP_15tensor4all_core8defaults3svd3svddECsip3AcFacaFV_10linalg_svd
FN:412,_RNvNtNtCs55lPmkOpiMP_15tensor4all_core8defaults3svd7svd_c64Csip3AcFacaFV_10linalg_svd
FN:160,_RINvNtNtCs9q2tZtL9dYv_15tensor4all_core8defaults3svd27extract_usv_from_svd_resultpEB6_
FN:260,_RINvNtNtCs9q2tZtL9dYv_15tensor4all_core8defaults3svd3svdpEB6_
FN:313,_RINvNtNtCs9q2tZtL9dYv_15tensor4all_core8defaults3svd8svd_withpEB6_
FN:330,_RNCINvNtNtCs9q2tZtL9dYv_15tensor4all_core8defaults3svd8svd_withpE0B8_
FN:371,_RNCINvNtNtCs9q2tZtL9dYv_15tensor4all_core8defaults3svd8svd_withpEs_0B8_
FN:90,_RNCNvNtNtCs9q2tZtL9dYv_15tensor4all_core8defaults3svd20set_default_svd_rtol0B7_
FN:110,_RNCNvNtNtCs9q2tZtL9dYv_15tensor4all_core8defaults3svd21compute_retained_rank0B7_
FN:42,_RNvMNtNtCs9q2tZtL9dYv_15tensor4all_core8defaults3svdNtB2_10SvdOptions13with_max_rank
FN:49,_RNvMNtNtCs9q2tZtL9dYv_15tensor4all_core8defaults3svdNtB2_10SvdOptions4rtol
FN:54,_RNvMNtNtCs9q2tZtL9dYv_15tensor4all_core8defaults3svdNtB2_10SvdOptions8max_rank
FN:35,_RNvMNtNtCs9q2tZtL9dYv_15tensor4all_core8defaults3svdNtB2_10SvdOptions9with_rtol
FN:76,_RNvNtNtCs9q2tZtL9dYv_15tensor4all_core8defaults3svd16default_svd_rtol
FN:87,_RNvNtNtCs9q2tZtL9dYv_15tensor4all_core8defaults3svd20set_default_svd_rtol
FN:104,_RNvNtNtCs9q2tZtL9dYv_15tensor4all_core8defaults3svd21compute_retained_rank
FN:412,_RNvNtNtCs9q2tZtL9dYv_15tensor4all_core8defaults3svd7svd_c64B5_
FN:60,_RNvXs_NtNtCs9q2tZtL9dYv_15tensor4all_core8defaults3svdNtB4_10SvdOptionsNtNtB8_10truncation19HasTruncationParams17truncation_params
FN:64,_RNvXs_NtNtCs9q2tZtL9dYv_15tensor4all_core8defaults3svdNtB4_10SvdOptionsNtNtB8_10truncation19HasTruncationParams21truncation_params_mut
FNDA:0,_RINvNtNtCs55lPmkOpiMP_15tensor4all_core8defaults3svd3svdpEB6_
FNDA:0,_RNvNtNtCs55lPmkOpiMP_15tensor4all_core8defaults3svd7svd_c64B5_
FNDA:313,_RINvNtNtCs55lPmkOpiMP_15tensor4all_core8defaults3svd27extract_usv_from_svd_resultINtCseyqKeAT1xJ3_11num_complex7ComplexdEEB6_
FNDA:247,_RINvNtNtCs55lPmkOpiMP_15tensor4all_core8defaults3svd27extract_usv_from_svd_resultdEB6_
FNDA:313,_RINvNtNtCs55lPmkOpiMP_15tensor4all_core8defaults3svd8svd_withINtCseyqKeAT1xJ3_11num_complex7ComplexdEEB6_
FNDA:250,_RINvNtNtCs55lPmkOpiMP_15tensor4all_core8defaults3svd8svd_withdEB6_
FNDA:0,_RNCINvNtNtCs55lPmkOpiMP_15tensor4all_core8defaults3svd8svd_withINtCseyqKeAT1xJ3_11num_complex7ComplexdEE0B8_
FNDA:0,_RNCINvNtNtCs55lPmkOpiMP_15tensor4all_core8defaults3svd8svd_withINtCseyqKeAT1xJ3_11num_complex7ComplexdEEs_0B8_
FNDA:3,_RNCINvNtNtCs55lPmkOpiMP_15tensor4all_core8defaults3svd8svd_withdE0B8_
FNDA:0,_RNCINvNtNtCs55lPmkOpiMP_15tensor4all_core8defaults3svd8svd_withdEs_0B8_
FNDA:3,_RNCNvNtNtCs55lPmkOpiMP_15tensor4all_core8defaults3svd20set_default_svd_rtol0B7_
FNDA:993,_RNCNvNtNtCs55lPmkOpiMP_15tensor4all_core8defaults3svd21compute_retained_rank0B7_
FNDA:0,_RNvMNtNtCs55lPmkOpiMP_15tensor4all_core8defaults3svdNtB2_10SvdOptions13with_max_rank
FNDA:0,_RNvMNtNtCs55lPmkOpiMP_15tensor4all_core8defaults3svdNtB2_10SvdOptions4rtol
FNDA:0,_RNvMNtNtCs55lPmkOpiMP_15tensor4all_core8defaults3svdNtB2_10SvdOptions8max_rank
FNDA:3,_RNvMNtNtCs55lPmkOpiMP_15tensor4all_core8defaults3svdNtB2_10SvdOptions9with_rtol
FNDA:569,_RNvNtNtCs55lPmkOpiMP_15tensor4all_core8defaults3svd16default_svd_rtol
FNDA:9,_RNvNtNtCs55lPmkOpiMP_15tensor4all_core8defaults3svd20set_default_svd_rtol
FNDA:560,_RNvNtNtCs55lPmkOpiMP_15tensor4all_core8defaults3svd21compute_retained_rank
FNDA:0,_RNvXs_NtNtCs55lPmkOpiMP_15tensor4all_core8defaults3svdNtB4_10SvdOptionsNtNtB8_10truncation19HasTruncationParams17truncation_params
FNDA:0,_RNvXs_NtNtCs55lPmkOpiMP_15tensor4all_core8defaults3svdNtB4_10SvdOptionsNtNtB8_10truncation19HasTruncationParams21truncation_params_mut
FNDA:1,_RINvNtNtCs55lPmkOpiMP_15tensor4all_core8defaults3svd3svddECs5DpBAVeA0A6_16linalg_factorize
FNDA:1,_RINvNtNtCs55lPmkOpiMP_15tensor4all_core8defaults3svd3svdINtCseyqKeAT1xJ3_11num_complex7ComplexdEECsip3AcFacaFV_10linalg_svd
FNDA:8,_RINvNtNtCs55lPmkOpiMP_15tensor4all_core8defaults3svd3svddECsip3AcFacaFV_10linalg_svd
FNDA:1,_RNvNtNtCs55lPmkOpiMP_15tensor4all_core8defaults3svd7svd_c64Csip3AcFacaFV_10linalg_svd
FNDA:0,_RINvNtNtCs9q2tZtL9dYv_15tensor4all_core8defaults3svd27extract_usv_from_svd_resultpEB6_
FNDA:0,_RINvNtNtCs9q2tZtL9dYv_15tensor4all_core8defaults3svd3svdpEB6_
FNDA:0,_RINvNtNtCs9q2tZtL9dYv_15tensor4all_core8defaults3svd8svd_withpEB6_
FNDA:0,_RNCINvNtNtCs9q2tZtL9dYv_15tensor4all_core8defaults3svd8svd_withpE0B8_
FNDA:0,_RNCINvNtNtCs9q2tZtL9dYv_15tensor4all_core8defaults3svd8svd_withpEs_0B8_
FNDA:0,_RNCNvNtNtCs9q2tZtL9dYv_15tensor4all_core8defaults3svd20set_default_svd_rtol0B7_
FNDA:0,_RNCNvNtNtCs9q2tZtL9dYv_15tensor4all_core8defaults3svd21compute_retained_rank0B7_
FNDA:0,_RNvMNtNtCs9q2tZtL9dYv_15tensor4all_core8defaults3svdNtB2_10SvdOptions13with_max_rank
FNDA:0,_RNvMNtNtCs9q2tZtL9dYv_15tensor4all_core8defaults3svdNtB2_10SvdOptions4rtol
FNDA:0,_RNvMNtNtCs9q2tZtL9dYv_15tensor4all_core8defaults3svdNtB2_10SvdOptions8max_rank
FNDA:0,_RNvMNtNtCs9q2tZtL9dYv_15tensor4all_core8defaults3svdNtB2_10SvdOptions9with_rtol
FNDA:0,_RNvNtNtCs9q2tZtL9dYv_15tensor4all_core8defaults3svd16default_svd_rtol
FNDA:0,_RNvNtNtCs9q2tZtL9dYv_15tensor4all_core8defaults3svd20set_default_svd_rtol
FNDA:0,_RNvNtNtCs9q2tZtL9dYv_15tensor4all_core8defaults3svd21compute_retained_rank
FNDA:0,_RNvNtNtCs9q2tZtL9dYv_15tensor4all_core8defaults3svd7svd_c64B5_
FNDA:0,_RNvXs_NtNtCs9q2tZtL9dYv_15tensor4all_core8defaults3svdNtB4_10SvdOptionsNtNtB8_10truncation19HasTruncationParams17truncation_params
FNDA:0,_RNvXs_NtNtCs9q2tZtL9dYv_15tensor4all_core8defaults3svdNtB4_10SvdOptionsNtNtB8_10truncation19HasTruncationParams21truncation_params_mut
FNF:17
FNH:11
DA:35,3
DA:36,3
DA:37,3
DA:38,3
DA:39,3
DA:42,0
DA:43,0
DA:44,0
DA:45,0
DA:46,0
DA:49,0
DA:50,0
DA:51,0
DA:54,0
DA:55,0
DA:56,0
DA:60,0
DA:61,0
DA:62,0
DA:64,0
DA:65,0
DA:66,0
DA:76,569
DA:77,569
DA:78,569
DA:87,9
DA:88,9
DA:89,9
DA:90,9
DA:91,9
DA:104,560
DA:105,560
DA:106,0
DA:107,560
DA:110,993
DA:113,560
DA:114,16
DA:115,544
DA:120,544
DA:121,544
DA:124,544
DA:125,544
DA:128,848
DA:129,848
DA:130,848
DA:131,304
DA:132,304
DA:133,304
DA:134,544
DA:139,544
DA:140,560
DA:160,560
DA:161,560
DA:162,560
DA:163,560
DA:164,560
DA:165,560
DA:166,560
DA:167,560
DA:168,560
DA:170,560
DA:181,560
DA:182,993
DA:183,993
DA:184,993
DA:185,993
DA:186,993
DA:187,993
DA:188,993
DA:191,560
DA:192,1047
DA:193,2034
DA:194,2034
DA:195,2034
DA:202,560
DA:203,993
DA:204,3523
DA:205,3523
DA:206,3523
DA:209,560
DA:210,1981
DA:211,3523
DA:212,3523
DA:213,3523
DA:214,3523
DA:217,560
DA:218,560
DA:260,10
DA:261,10
DA:262,10
DA:263,10
DA:264,10
DA:265,10
DA:266,10
DA:268,10
DA:269,10
DA:313,563
DA:314,563
DA:315,563
DA:316,563
DA:317,563
DA:318,563
DA:319,563
DA:320,563
DA:323,563
DA:324,563
DA:325,0
DA:326,563
DA:329,563
DA:330,563
DA:331,563
DA:332,560
DA:336,560
DA:337,560
DA:340,560
DA:343,560
DA:346,560
DA:347,17
DA:348,543
DA:351,560
DA:354,560
DA:355,1047
DA:356,1342
DA:357,1342
DA:358,1342
DA:362,560
DA:363,1981
DA:364,2306
DA:365,2306
DA:366,2306
DA:370,560
DA:371,560
DA:372,560
DA:375,560
DA:376,560
DA:377,560
DA:378,560
DA:383,560
DA:384,560
DA:385,560
DA:388,560
DA:389,560
DA:390,560
DA:391,560
DA:393,560
DA:394,563
DA:412,1
DA:413,1
DA:414,1
DA:415,1
DA:416,1
DA:417,1
BRF:0
BRH:0
LF:156
LH:136
end_of_record
SF:/Users/ken/git_for_collab4/tensor4all-rs/crates/tensor4all-core/src/defaults/tensor_data.rs
FN:243,_RNCNCNvMs_NtNtCs55lPmkOpiMP_15tensor4all_core8defaults11tensor_dataNtB8_10TensorData11materialize00Bc_
FN:238,_RNCNvMs_NtNtCs55lPmkOpiMP_15tensor4all_core8defaults11tensor_dataNtB6_10TensorData11materialize0Ba_
FN:264,_RNCNvMs_NtNtCs55lPmkOpiMP_15tensor4all_core8defaults11tensor_dataNtB6_10TensorData11materializes0_0Ba_
FN:204,_RNCNvMs_NtNtCs55lPmkOpiMP_15tensor4all_core8defaults11tensor_dataNtB6_10TensorData15permute_by_perm0Ba_
FN:209,_RNCNvMs_NtNtCs55lPmkOpiMP_15tensor4all_core8defaults11tensor_dataNtB6_10TensorData15permute_by_perms_0Ba_
FN:178,_RNCNvMs_NtNtCs55lPmkOpiMP_15tensor4all_core8defaults11tensor_dataNtB6_10TensorData7permute0Ba_
FN:34,_RNvMNtNtCs55lPmkOpiMP_15tensor4all_core8defaults11tensor_dataNtB2_15TensorComponent3new
FN:48,_RNvMNtNtCs55lPmkOpiMP_15tensor4all_core8defaults11tensor_dataNtB2_15TensorComponent4ndim
FN:53,_RNvMNtNtCs55lPmkOpiMP_15tensor4all_core8defaults11tensor_dataNtB2_15TensorComponent5numel
FN:278,_RNvMs_NtNtCs55lPmkOpiMP_15tensor4all_core8defaults11tensor_dataNtB4_10TensorData10components
FN:226,_RNvMs_NtNtCs55lPmkOpiMP_15tensor4all_core8defaults11tensor_dataNtB4_10TensorData11materialize
FN:140,_RNvMs_NtNtCs55lPmkOpiMP_15tensor4all_core8defaults11tensor_dataNtB4_10TensorData13outer_product
FN:90,_RNvMs_NtNtCs55lPmkOpiMP_15tensor4all_core8defaults11tensor_dataNtB4_10TensorData15from_components
FN:273,_RNvMs_NtNtCs55lPmkOpiMP_15tensor4all_core8defaults11tensor_dataNtB4_10TensorData15into_components
FN:195,_RNvMs_NtNtCs55lPmkOpiMP_15tensor4all_core8defaults11tensor_dataNtB4_10TensorData15permute_by_perm
FN:80,_RNvMs_NtNtCs55lPmkOpiMP_15tensor4all_core8defaults11tensor_dataNtB4_10TensorData3new
FN:127,_RNvMs_NtNtCs55lPmkOpiMP_15tensor4all_core8defaults11tensor_dataNtB4_10TensorData4dims
FN:117,_RNvMs_NtNtCs55lPmkOpiMP_15tensor4all_core8defaults11tensor_dataNtB4_10TensorData4ndim
FN:122,_RNvMs_NtNtCs55lPmkOpiMP_15tensor4all_core8defaults11tensor_dataNtB4_10TensorData5numel
FN:165,_RNvMs_NtNtCs55lPmkOpiMP_15tensor4all_core8defaults11tensor_dataNtB4_10TensorData7permute
FN:108,_RNvMs_NtNtCs55lPmkOpiMP_15tensor4all_core8defaults11tensor_dataNtB4_10TensorData7storage
FN:132,_RNvMs_NtNtCs55lPmkOpiMP_15tensor4all_core8defaults11tensor_dataNtB4_10TensorData9index_ids
FN:103,_RNvMs_NtNtCs55lPmkOpiMP_15tensor4all_core8defaults11tensor_dataNtB4_10TensorData9is_simple
FN:204,_RNCNvMs_NtNtCs9q2tZtL9dYv_15tensor4all_core8defaults11tensor_dataNtB6_10TensorData15permute_by_perm0Ba_
FN:209,_RNCNvMs_NtNtCs9q2tZtL9dYv_15tensor4all_core8defaults11tensor_dataNtB6_10TensorData15permute_by_perms_0Ba_
FN:48,_RNvMNtNtCs9q2tZtL9dYv_15tensor4all_core8defaults11tensor_dataNtB2_15TensorComponent4ndim
FN:53,_RNvMNtNtCs9q2tZtL9dYv_15tensor4all_core8defaults11tensor_dataNtB2_15TensorComponent5numel
FN:278,_RNvMs_NtNtCs9q2tZtL9dYv_15tensor4all_core8defaults11tensor_dataNtB4_10TensorData10components
FN:90,_RNvMs_NtNtCs9q2tZtL9dYv_15tensor4all_core8defaults11tensor_dataNtB4_10TensorData15from_components
FN:273,_RNvMs_NtNtCs9q2tZtL9dYv_15tensor4all_core8defaults11tensor_dataNtB4_10TensorData15into_components
FN:195,_RNvMs_NtNtCs9q2tZtL9dYv_15tensor4all_core8defaults11tensor_dataNtB4_10TensorData15permute_by_perm
FN:132,_RNvMs_NtNtCs9q2tZtL9dYv_15tensor4all_core8defaults11tensor_dataNtB4_10TensorData9index_ids
FN:288,_RNvNtNtNtCs9q2tZtL9dYv_15tensor4all_core8defaults11tensor_data5tests17make_test_storage
FN:292,_RNvNtNtNtCs9q2tZtL9dYv_15tensor4all_core8defaults11tensor_data5tests6new_id
FN:334,_RNvNtNtNtCs9q2tZtL9dYv_15tensor4all_core8defaults11tensor_data5testss_12test_permute
FN:313,_RNvNtNtNtCs9q2tZtL9dYv_15tensor4all_core8defaults11tensor_data5testss_18test_outer_product
FN:382,_RNvNtNtNtCs9q2tZtL9dYv_15tensor4all_core8defaults11tensor_data5testss_23test_materialize_simple
FN:299,_RNvNtNtNtCs9q2tZtL9dYv_15tensor4all_core8defaults11tensor_data5testss_23test_tensor_data_simple
FN:357,_RNvNtNtNtCs9q2tZtL9dYv_15tensor4all_core8defaults11tensor_data5testss_26test_permute_outer_product
FN:436,_RNvNtNtNtCs9q2tZtL9dYv_15tensor4all_core8defaults11tensor_data5testss_29test_materialize_with_permute
FN:402,_RNvNtNtNtCs9q2tZtL9dYv_15tensor4all_core8defaults11tensor_data5testss_30test_materialize_outer_product
FN:243,_RNCNCNvMs_NtNtCs9q2tZtL9dYv_15tensor4all_core8defaults11tensor_dataNtB8_10TensorData11materialize00Bc_
FN:238,_RNCNvMs_NtNtCs9q2tZtL9dYv_15tensor4all_core8defaults11tensor_dataNtB6_10TensorData11materialize0Ba_
FN:264,_RNCNvMs_NtNtCs9q2tZtL9dYv_15tensor4all_core8defaults11tensor_dataNtB6_10TensorData11materializes0_0Ba_
FN:178,_RNCNvMs_NtNtCs9q2tZtL9dYv_15tensor4all_core8defaults11tensor_dataNtB6_10TensorData7permute0Ba_
FN:34,_RNvMNtNtCs9q2tZtL9dYv_15tensor4all_core8defaults11tensor_dataNtB2_15TensorComponent3new
FN:226,_RNvMs_NtNtCs9q2tZtL9dYv_15tensor4all_core8defaults11tensor_dataNtB4_10TensorData11materialize
FN:140,_RNvMs_NtNtCs9q2tZtL9dYv_15tensor4all_core8defaults11tensor_dataNtB4_10TensorData13outer_product
FN:80,_RNvMs_NtNtCs9q2tZtL9dYv_15tensor4all_core8defaults11tensor_dataNtB4_10TensorData3new
FN:127,_RNvMs_NtNtCs9q2tZtL9dYv_15tensor4all_core8defaults11tensor_dataNtB4_10TensorData4dims
FN:117,_RNvMs_NtNtCs9q2tZtL9dYv_15tensor4all_core8defaults11tensor_dataNtB4_10TensorData4ndim
FN:122,_RNvMs_NtNtCs9q2tZtL9dYv_15tensor4all_core8defaults11tensor_dataNtB4_10TensorData5numel
FN:165,_RNvMs_NtNtCs9q2tZtL9dYv_15tensor4all_core8defaults11tensor_dataNtB4_10TensorData7permute
FN:108,_RNvMs_NtNtCs9q2tZtL9dYv_15tensor4all_core8defaults11tensor_dataNtB4_10TensorData7storage
FN:103,_RNvMs_NtNtCs9q2tZtL9dYv_15tensor4all_core8defaults11tensor_dataNtB4_10TensorData9is_simple
FNDA:4,_RNCNCNvMs_NtNtCs55lPmkOpiMP_15tensor4all_core8defaults11tensor_dataNtB8_10TensorData11materialize00Bc_
FNDA:4,_RNCNvMs_NtNtCs55lPmkOpiMP_15tensor4all_core8defaults11tensor_dataNtB6_10TensorData11materialize0Ba_
FNDA:2,_RNCNvMs_NtNtCs55lPmkOpiMP_15tensor4all_core8defaults11tensor_dataNtB6_10TensorData11materializes0_0Ba_
FNDA:0,_RNCNvMs_NtNtCs55lPmkOpiMP_15tensor4all_core8defaults11tensor_dataNtB6_10TensorData15permute_by_perm0Ba_
FNDA:0,_RNCNvMs_NtNtCs55lPmkOpiMP_15tensor4all_core8defaults11tensor_dataNtB6_10TensorData15permute_by_perms_0Ba_
FNDA:3,_RNCNvMs_NtNtCs55lPmkOpiMP_15tensor4all_core8defaults11tensor_dataNtB6_10TensorData7permute0Ba_
FNDA:19540,_RNvMNtNtCs55lPmkOpiMP_15tensor4all_core8defaults11tensor_dataNtB2_15TensorComponent3new
FNDA:0,_RNvMNtNtCs55lPmkOpiMP_15tensor4all_core8defaults11tensor_dataNtB2_15TensorComponent4ndim
FNDA:0,_RNvMNtNtCs55lPmkOpiMP_15tensor4all_core8defaults11tensor_dataNtB2_15TensorComponent5numel
FNDA:1,_RNvMs_NtNtCs55lPmkOpiMP_15tensor4all_core8defaults11tensor_dataNtB4_10TensorData10components
FNDA:2,_RNvMs_NtNtCs55lPmkOpiMP_15tensor4all_core8defaults11tensor_dataNtB4_10TensorData11materialize
FNDA:2,_RNvMs_NtNtCs55lPmkOpiMP_15tensor4all_core8defaults11tensor_dataNtB4_10TensorData13outer_product
FNDA:0,_RNvMs_NtNtCs55lPmkOpiMP_15tensor4all_core8defaults11tensor_dataNtB4_10TensorData15from_components
FNDA:0,_RNvMs_NtNtCs55lPmkOpiMP_15tensor4all_core8defaults11tensor_dataNtB4_10TensorData15into_components
FNDA:0,_RNvMs_NtNtCs55lPmkOpiMP_15tensor4all_core8defaults11tensor_dataNtB4_10TensorData15permute_by_perm
FNDA:19540,_RNvMs_NtNtCs55lPmkOpiMP_15tensor4all_core8defaults11tensor_dataNtB4_10TensorData3new
FNDA:3,_RNvMs_NtNtCs55lPmkOpiMP_15tensor4all_core8defaults11tensor_dataNtB4_10TensorData4dims
FNDA:2,_RNvMs_NtNtCs55lPmkOpiMP_15tensor4all_core8defaults11tensor_dataNtB4_10TensorData4ndim
FNDA:0,_RNvMs_NtNtCs55lPmkOpiMP_15tensor4all_core8defaults11tensor_dataNtB4_10TensorData5numel
FNDA:1,_RNvMs_NtNtCs55lPmkOpiMP_15tensor4all_core8defaults11tensor_dataNtB4_10TensorData7permute
FNDA:22529,_RNvMs_NtNtCs55lPmkOpiMP_15tensor4all_core8defaults11tensor_dataNtB4_10TensorData7storage
FNDA:2,_RNvMs_NtNtCs55lPmkOpiMP_15tensor4all_core8defaults11tensor_dataNtB4_10TensorData9index_ids
FNDA:23789,_RNvMs_NtNtCs55lPmkOpiMP_15tensor4all_core8defaults11tensor_dataNtB4_10TensorData9is_simple
FNDA:0,_RNCNvMs_NtNtCs9q2tZtL9dYv_15tensor4all_core8defaults11tensor_dataNtB6_10TensorData15permute_by_perm0Ba_
FNDA:0,_RNCNvMs_NtNtCs9q2tZtL9dYv_15tensor4all_core8defaults11tensor_dataNtB6_10TensorData15permute_by_perms_0Ba_
FNDA:0,_RNvMNtNtCs9q2tZtL9dYv_15tensor4all_core8defaults11tensor_dataNtB2_15TensorComponent4ndim
FNDA:0,_RNvMNtNtCs9q2tZtL9dYv_15tensor4all_core8defaults11tensor_dataNtB2_15TensorComponent5numel
FNDA:0,_RNvMs_NtNtCs9q2tZtL9dYv_15tensor4all_core8defaults11tensor_dataNtB4_10TensorData10components
FNDA:0,_RNvMs_NtNtCs9q2tZtL9dYv_15tensor4all_core8defaults11tensor_dataNtB4_10TensorData15from_components
FNDA:0,_RNvMs_NtNtCs9q2tZtL9dYv_15tensor4all_core8defaults11tensor_dataNtB4_10TensorData15into_components
FNDA:0,_RNvMs_NtNtCs9q2tZtL9dYv_15tensor4all_core8defaults11tensor_dataNtB4_10TensorData15permute_by_perm
FNDA:0,_RNvMs_NtNtCs9q2tZtL9dYv_15tensor4all_core8defaults11tensor_dataNtB4_10TensorData9index_ids
FNDA:11,_RNvNtNtNtCs9q2tZtL9dYv_15tensor4all_core8defaults11tensor_data5tests17make_test_storage
FNDA:14,_RNvNtNtNtCs9q2tZtL9dYv_15tensor4all_core8defaults11tensor_data5tests6new_id
FNDA:1,_RNvNtNtNtCs9q2tZtL9dYv_15tensor4all_core8defaults11tensor_data5testss_12test_permute
FNDA:1,_RNvNtNtNtCs9q2tZtL9dYv_15tensor4all_core8defaults11tensor_data5testss_18test_outer_product
FNDA:1,_RNvNtNtNtCs9q2tZtL9dYv_15tensor4all_core8defaults11tensor_data5testss_23test_materialize_simple
FNDA:1,_RNvNtNtNtCs9q2tZtL9dYv_15tensor4all_core8defaults11tensor_data5testss_23test_tensor_data_simple
FNDA:1,_RNvNtNtNtCs9q2tZtL9dYv_15tensor4all_core8defaults11tensor_data5testss_26test_permute_outer_product
FNDA:1,_RNvNtNtNtCs9q2tZtL9dYv_15tensor4all_core8defaults11tensor_data5testss_29test_materialize_with_permute
FNDA:1,_RNvNtNtNtCs9q2tZtL9dYv_15tensor4all_core8defaults11tensor_data5testss_30test_materialize_outer_product
FNDA:6,_RNCNCNvMs_NtNtCs9q2tZtL9dYv_15tensor4all_core8defaults11tensor_dataNtB8_10TensorData11materialize00Bc_
FNDA:5,_RNCNvMs_NtNtCs9q2tZtL9dYv_15tensor4all_core8defaults11tensor_dataNtB6_10TensorData11materialize0Ba_
FNDA:2,_RNCNvMs_NtNtCs9q2tZtL9dYv_15tensor4all_core8defaults11tensor_dataNtB6_10TensorData11materializes0_0Ba_
FNDA:9,_RNCNvMs_NtNtCs9q2tZtL9dYv_15tensor4all_core8defaults11tensor_dataNtB6_10TensorData7permute0Ba_
FNDA:298,_RNvMNtNtCs9q2tZtL9dYv_15tensor4all_core8defaults11tensor_dataNtB2_15TensorComponent3new
FNDA:3,_RNvMs_NtNtCs9q2tZtL9dYv_15tensor4all_core8defaults11tensor_dataNtB4_10TensorData11materialize
FNDA:4,_RNvMs_NtNtCs9q2tZtL9dYv_15tensor4all_core8defaults11tensor_dataNtB4_10TensorData13outer_product
FNDA:298,_RNvMs_NtNtCs9q2tZtL9dYv_15tensor4all_core8defaults11tensor_dataNtB4_10TensorData3new
FNDA:1,_RNvMs_NtNtCs9q2tZtL9dYv_15tensor4all_core8defaults11tensor_dataNtB4_10TensorData4dims
FNDA:2,_RNvMs_NtNtCs9q2tZtL9dYv_15tensor4all_core8defaults11tensor_dataNtB4_10TensorData4ndim
FNDA:2,_RNvMs_NtNtCs9q2tZtL9dYv_15tensor4all_core8defaults11tensor_dataNtB4_10TensorData5numel
FNDA:3,_RNvMs_NtNtCs9q2tZtL9dYv_15tensor4all_core8defaults11tensor_dataNtB4_10TensorData7permute
FNDA:342,_RNvMs_NtNtCs9q2tZtL9dYv_15tensor4all_core8defaults11tensor_dataNtB4_10TensorData7storage
FNDA:450,_RNvMs_NtNtCs9q2tZtL9dYv_15tensor4all_core8defaults11tensor_dataNtB4_10TensorData9is_simple
FNF:32
FNH:25
DA:34,19838
DA:35,19838
DA:36,19838
DA:37,19838
DA:38,0
DA:40,19838
DA:41,19838
DA:42,19838
DA:43,19838
DA:44,19838
DA:45,19838
DA:48,0
DA:49,0
DA:50,0
DA:53,0
DA:54,0
DA:55,0
DA:80,19838
DA:81,19838
DA:82,19838
DA:83,19838
DA:84,19838
DA:85,19838
DA:86,19838
DA:87,19838
DA:90,0
DA:91,0
DA:92,0
DA:93,0
DA:94,0
DA:95,0
DA:96,0
DA:97,0
DA:98,0
DA:99,0
DA:100,0
DA:103,24239
DA:104,24239
DA:105,24239
DA:108,22871
DA:109,22871
DA:110,22871
DA:112,0
DA:114,22871
DA:117,4
DA:118,4
DA:119,4
DA:122,2
DA:123,2
DA:124,2
DA:127,4
DA:128,4
DA:129,4
DA:132,2
DA:133,2
DA:134,2
DA:140,6
DA:141,6
DA:142,6
DA:144,6
DA:145,6
DA:147,6
DA:148,6
DA:150,6
DA:151,6
DA:152,6
DA:153,6
DA:154,6
DA:155,6
DA:165,4
DA:166,4
DA:167,4
DA:168,4
DA:169,0
DA:173,4
DA:174,12
DA:175,8
DA:176,8
DA:177,8
DA:178,12
DA:179,8
DA:180,8
DA:183,4
DA:184,4
DA:185,4
DA:186,4
DA:187,4
DA:188,4
DA:195,0
DA:196,0
DA:197,0
DA:198,0
DA:199,0
DA:202,0
DA:203,0
DA:204,0
DA:205,0
DA:207,0
DA:208,0
DA:209,0
DA:210,0
DA:212,0
DA:213,0
DA:214,0
DA:215,0
DA:216,0
DA:217,0
DA:226,5
DA:230,5
DA:231,0
DA:232,5
DA:235,5
DA:236,5
DA:237,5
DA:238,9
DA:239,9
DA:240,9
DA:241,9
DA:242,9
DA:243,10
DA:244,9
DA:245,9
DA:246,9
DA:247,5
DA:250,5
DA:253,5
DA:255,5
DA:257,3
DA:260,2
DA:261,2
DA:262,2
DA:263,2
DA:264,4
DA:265,2
DA:267,2
DA:268,2
DA:270,5
DA:273,0
DA:274,0
DA:275,0
DA:278,1
DA:279,1
DA:280,1
DA:288,11
DA:289,11
DA:290,11
DA:292,14
DA:295,14
DA:296,14
DA:299,1
DA:300,1
DA:301,1
DA:302,1
DA:304,1
DA:306,1
DA:307,1
DA:308,1
DA:309,1
DA:310,1
DA:313,1
DA:314,1
DA:315,1
DA:317,1
DA:318,1
DA:320,1
DA:321,1
DA:323,1
DA:325,1
DA:326,1
DA:327,1
DA:328,1
DA:329,1
DA:330,1
DA:331,1
DA:334,1
DA:335,1
DA:336,1
DA:337,1
DA:339,1
DA:342,1
DA:345,1
DA:346,1
DA:347,1
DA:350,1
DA:351,1
DA:352,1
DA:354,1
DA:357,1
DA:358,1
DA:359,1
DA:361,1
DA:362,1
DA:364,1
DA:365,1
DA:367,1
DA:370,1
DA:372,1
DA:373,1
DA:376,1
DA:377,1
DA:378,1
DA:379,1
DA:382,1
DA:383,1
DA:384,1
DA:385,1
DA:387,1
DA:389,1
DA:390,1
DA:393,1
DA:394,1
DA:395,1
DA:397,0
DA:399,1
DA:402,1
DA:407,1
DA:408,1
DA:410,1
DA:411,1
DA:413,1
DA:414,1
DA:416,1
DA:418,1
DA:419,1
DA:421,1
DA:422,1
DA:423,1
DA:424,1
DA:426,1
DA:427,6
DA:428,6
DA:431,0
DA:433,1
DA:436,1
DA:441,1
DA:442,1
DA:444,1
DA:445,1
DA:447,1
DA:448,1
DA:450,1
DA:451,1
DA:453,1
DA:454,1
DA:456,1
DA:457,1
DA:458,1
DA:459,1
DA:461,1
DA:462,6
DA:463,6
DA:466,0
DA:468,1
BRF:0
BRH:0
LF:259
LH:211
end_of_record
SF:/Users/ken/git_for_collab4/tensor4all-rs/crates/tensor4all-core/src/defaults/tensordynlen.rs
FN:671,_RINvMs0_NtNtCs55lPmkOpiMP_15tensor4all_core8defaults12tensordynlenNtB6_12TensorDynLen10random_c64pEBa_
FN:641,_RINvMs0_NtNtCs55lPmkOpiMP_15tensor4all_core8defaults12tensordynlenNtB6_12TensorDynLen10random_f64pEBa_
FN:672,_RNCINvMs0_NtNtCs55lPmkOpiMP_15tensor4all_core8defaults12tensordynlenNtB8_12TensorDynLen10random_c64pE0Bc_
FN:642,_RNCINvMs0_NtNtCs55lPmkOpiMP_15tensor4all_core8defaults12tensordynlenNtB8_12TensorDynLen10random_f64pE0Bc_
FN:1271,_RINvNtNtCs55lPmkOpiMP_15tensor4all_core8defaults12tensordynlen12unfold_splitINtCseyqKeAT1xJ3_11num_complex7ComplexdEEB6_
FN:1271,_RINvNtNtCs55lPmkOpiMP_15tensor4all_core8defaults12tensordynlen12unfold_splitdEB6_
FN:1331,_RNCINvNtNtCs55lPmkOpiMP_15tensor4all_core8defaults12tensordynlen12unfold_splitINtCseyqKeAT1xJ3_11num_complex7ComplexdEE0B8_
FN:1331,_RNCINvNtNtCs55lPmkOpiMP_15tensor4all_core8defaults12tensordynlen12unfold_splitdE0B8_
FN:834,_RNCNvMs5_NtNtCs55lPmkOpiMP_15tensor4all_core8defaults12tensordynlenNtB7_12TensorDynLen3add0Bb_
FN:930,_RNCNvMs7_NtNtCs55lPmkOpiMP_15tensor4all_core8defaults12tensordynlenNtB7_12TensorDynLen10replaceind0Bb_
FN:940,_RNCNvMs7_NtNtCs55lPmkOpiMP_15tensor4all_core8defaults12tensordynlenNtB7_12TensorDynLen10replaceinds_0Bb_
FN:998,_RNCNvMs7_NtNtCs55lPmkOpiMP_15tensor4all_core8defaults12tensordynlenNtB7_12TensorDynLen11replaceinds0Bb_
FN:1008,_RNCNvMs7_NtNtCs55lPmkOpiMP_15tensor4all_core8defaults12tensordynlenNtB7_12TensorDynLen11replaceindss_0Bb_
FN:1050,_RNCNvMs8_NtNtCs55lPmkOpiMP_15tensor4all_core8defaults12tensordynlenNtB7_12TensorDynLen4conj0Bb_
FN:169,_RNCNvMs_NtNtCs55lPmkOpiMP_15tensor4all_core8defaults12tensordynlenNtB6_12TensorDynLen12from_indices0Ba_
FN:584,_RNCNvMs_NtNtCs55lPmkOpiMP_15tensor4all_core8defaults12tensordynlenNtB6_12TensorDynLen13outer_product0Ba_
FN:311,_RNCNvMs_NtNtCs55lPmkOpiMP_15tensor4all_core8defaults12tensordynlenNtB6_12TensorDynLen15permute_indices0Ba_
FN:151,_RNCNvMs_NtNtCs55lPmkOpiMP_15tensor4all_core8defaults12tensordynlenNtB6_12TensorDynLen3new0Ba_
FN:360,_RNCNvMs_NtNtCs55lPmkOpiMP_15tensor4all_core8defaults12tensordynlenNtB6_12TensorDynLen7permute0Ba_
FN:361,_RNCNvMs_NtNtCs55lPmkOpiMP_15tensor4all_core8defaults12tensordynlenNtB6_12TensorDynLen7permutes_0Ba_
FN:491,_RNCNvMs_NtNtCs55lPmkOpiMP_15tensor4all_core8defaults12tensordynlenNtB6_12TensorDynLen9tensordot0Ba_
FN:1196,_RNCNvNtNtCs55lPmkOpiMP_15tensor4all_core8defaults12tensordynlen19diag_tensor_dyn_len0B7_
FN:1222,_RNCNvNtNtCs55lPmkOpiMP_15tensor4all_core8defaults12tensordynlen23diag_tensor_dyn_len_c640B7_
FN:63,_RNCNvNtNtCs55lPmkOpiMP_15tensor4all_core8defaults12tensordynlen32compute_permutation_from_indices0B7_
FN:1481,_RNCNvXsc_NtNtCs55lPmkOpiMP_15tensor4all_core8defaults12tensordynlenNtB7_12TensorDynLenNtNtBb_11tensor_like10TensorLike4ones0Bb_
FN:867,_RNvMs5_NtNtCs55lPmkOpiMP_15tensor4all_core8defaults12tensordynlenNtB5_12TensorDynLen13inner_product
FN:794,_RNvMs5_NtNtCs55lPmkOpiMP_15tensor4all_core8defaults12tensordynlenNtB5_12TensorDynLen3add
FN:844,_RNvMs5_NtNtCs55lPmkOpiMP_15tensor4all_core8defaults12tensordynlenNtB5_12TensorDynLen5axpby
FN:854,_RNvMs5_NtNtCs55lPmkOpiMP_15tensor4all_core8defaults12tensordynlenNtB5_12TensorDynLen5scale
FN:926,_RNvMs7_NtNtCs55lPmkOpiMP_15tensor4all_core8defaults12tensordynlenNtB5_12TensorDynLen10replaceind
FN:984,_RNvMs7_NtNtCs55lPmkOpiMP_15tensor4all_core8defaults12tensordynlenNtB5_12TensorDynLen11replaceinds
FN:1046,_RNvMs8_NtNtCs55lPmkOpiMP_15tensor4all_core8defaults12tensordynlenNtB5_12TensorDynLen4conj
FN:1082,_RNvMs9_NtNtCs55lPmkOpiMP_15tensor4all_core8defaults12tensordynlenNtB5_12TensorDynLen12norm_squared
FN:1115,_RNvMs9_NtNtCs55lPmkOpiMP_15tensor4all_core8defaults12tensordynlenNtB5_12TensorDynLen4norm
FN:1154,_RNvMs9_NtNtCs55lPmkOpiMP_15tensor4all_core8defaults12tensordynlenNtB5_12TensorDynLen8distance
FN:211,_RNvMs_NtNtCs55lPmkOpiMP_15tensor4all_core8defaults12tensordynlenNtB4_12TensorDynLen11tensor_data
FN:193,_RNvMs_NtNtCs55lPmkOpiMP_15tensor4all_core8defaults12tensordynlenNtB4_12TensorDynLen11try_storage
FN:168,_RNvMs_NtNtCs55lPmkOpiMP_15tensor4all_core8defaults12tensordynlenNtB4_12TensorDynLen12from_indices
FN:575,_RNvMs_NtNtCs55lPmkOpiMP_15tensor4all_core8defaults12tensordynlenNtB4_12TensorDynLen13outer_product
FN:306,_RNvMs_NtNtCs55lPmkOpiMP_15tensor4all_core8defaults12tensordynlenNtB4_12TensorDynLen15permute_indices
FN:201,_RNvMs_NtNtCs55lPmkOpiMP_15tensor4all_core8defaults12tensordynlenNtB4_12TensorDynLen19materialize_storage
FN:121,_RNvMs_NtNtCs55lPmkOpiMP_15tensor4all_core8defaults12tensordynlenNtB4_12TensorDynLen3new
FN:227,_RNvMs_NtNtCs55lPmkOpiMP_15tensor4all_core8defaults12tensordynlenNtB4_12TensorDynLen3sum
FN:260,_RNvMs_NtNtCs55lPmkOpiMP_15tensor4all_core8defaults12tensordynlenNtB4_12TensorDynLen4only
FN:352,_RNvMs_NtNtCs55lPmkOpiMP_15tensor4all_core8defaults12tensordynlenNtB4_12TensorDynLen7permute
FN:183,_RNvMs_NtNtCs55lPmkOpiMP_15tensor4all_core8defaults12tensordynlenNtB4_12TensorDynLen7storage
FN:232,_RNvMs_NtNtCs55lPmkOpiMP_15tensor4all_core8defaults12tensordynlenNtB4_12TensorDynLen7sum_f64
FN:413,_RNvMs_NtNtCs55lPmkOpiMP_15tensor4all_core8defaults12tensordynlenNtB4_12TensorDynLen8contract
FN:218,_RNvMs_NtNtCs55lPmkOpiMP_15tensor4all_core8defaults12tensordynlenNtB4_12TensorDynLen9from_data
FN:174,_RNvMs_NtNtCs55lPmkOpiMP_15tensor4all_core8defaults12tensordynlenNtB4_12TensorDynLen9is_simple
FN:481,_RNvMs_NtNtCs55lPmkOpiMP_15tensor4all_core8defaults12tensordynlenNtB4_12TensorDynLen9tensordot
FN:751,_RNvNtNtCs55lPmkOpiMP_15tensor4all_core8defaults12tensordynlen14is_diag_tensor
FN:1195,_RNvNtNtCs55lPmkOpiMP_15tensor4all_core8defaults12tensordynlen19diag_tensor_dyn_len
FN:1221,_RNvNtNtCs55lPmkOpiMP_15tensor4all_core8defaults12tensordynlen23diag_tensor_dyn_len_c64
FN:45,_RNvNtNtCs55lPmkOpiMP_15tensor4all_core8defaults12tensordynlen32compute_permutation_from_indices
FN:108,_RNvXNtNtCs55lPmkOpiMP_15tensor4all_core8defaults12tensordynlenNtB2_12TensorDynLenNtB2_12TensorAccess4data
FN:104,_RNvXNtNtCs55lPmkOpiMP_15tensor4all_core8defaults12tensordynlenNtB2_12TensorDynLenNtB2_12TensorAccess7indices
FN:716,_RNvXs1_NtNtCs55lPmkOpiMP_15tensor4all_core8defaults12tensordynlenRNtB5_12TensorDynLenNtNtNtCskzPJi2J8k3N_4core3ops5arith3Mul3mul
FN:727,_RNvXs2_NtNtCs55lPmkOpiMP_15tensor4all_core8defaults12tensordynlenNtB5_12TensorDynLenNtNtNtCskzPJi2J8k3N_4core3ops5arith3Mul3mul
FN:736,_RNvXs3_NtNtCs55lPmkOpiMP_15tensor4all_core8defaults12tensordynlenRNtB5_12TensorDynLenINtNtNtCskzPJi2J8k3N_4core3ops5arith3MulB12_E3mul
FN:745,_RNvXs4_NtNtCs55lPmkOpiMP_15tensor4all_core8defaults12tensordynlenNtB5_12TensorDynLenINtNtNtCskzPJi2J8k3N_4core3ops5arith3MulRB11_E3mul
FN:878,_RNvXs6_NtNtCs55lPmkOpiMP_15tensor4all_core8defaults12tensordynlenNtB5_12TensorDynLenNtNtCskzPJi2J8k3N_4core5clone5Clone5clone
FN:1178,_RNvXsa_NtNtCs55lPmkOpiMP_15tensor4all_core8defaults12tensordynlenNtB5_12TensorDynLenNtNtCskzPJi2J8k3N_4core3fmt5Debug3fmt
FN:1361,_RNvXsb_NtNtCs55lPmkOpiMP_15tensor4all_core8defaults12tensordynlenNtB5_12TensorDynLenNtNtB9_12tensor_index11TensorIndex10replaceind
FN:1366,_RNvXsb_NtNtCs55lPmkOpiMP_15tensor4all_core8defaults12tensordynlenNtB5_12TensorDynLenNtNtB9_12tensor_index11TensorIndex11replaceinds
FN:1352,_RNvXsb_NtNtCs55lPmkOpiMP_15tensor4all_core8defaults12tensordynlenNtB5_12TensorDynLenNtNtB9_12tensor_index11TensorIndex16external_indices
FN:1357,_RNvXsb_NtNtCs55lPmkOpiMP_15tensor4all_core8defaults12tensordynlenNtB5_12TensorDynLenNtNtB9_12tensor_index11TensorIndex20num_external_indices
FN:1392,_RNvXsc_NtNtCs55lPmkOpiMP_15tensor4all_core8defaults12tensordynlenNtB5_12TensorDynLenNtNtB9_11tensor_like10TensorLike10direct_sum
FN:1470,_RNvXsc_NtNtCs55lPmkOpiMP_15tensor4all_core8defaults12tensordynlenNtB5_12TensorDynLenNtNtB9_11tensor_like10TensorLike10scalar_one
FN:1414,_RNvXsc_NtNtCs55lPmkOpiMP_15tensor4all_core8defaults12tensordynlenNtB5_12TensorDynLenNtNtB9_11tensor_like10TensorLike11permuteinds
FN:1409,_RNvXsc_NtNtCs55lPmkOpiMP_15tensor4all_core8defaults12tensordynlenNtB5_12TensorDynLenNtNtB9_11tensor_like10TensorLike12norm_squared
FN:1439,_RNvXsc_NtNtCs55lPmkOpiMP_15tensor4all_core8defaults12tensordynlenNtB5_12TensorDynLenNtNtB9_11tensor_like10TensorLike13inner_product
FN:1404,_RNvXsc_NtNtCs55lPmkOpiMP_15tensor4all_core8defaults12tensordynlenNtB5_12TensorDynLenNtNtB9_11tensor_like10TensorLike13outer_product
FN:1424,_RNvXsc_NtNtCs55lPmkOpiMP_15tensor4all_core8defaults12tensordynlenNtB5_12TensorDynLenNtNtB9_11tensor_like10TensorLike18contract_connected
FN:1387,_RNvXsc_NtNtCs55lPmkOpiMP_15tensor4all_core8defaults12tensordynlenNtB5_12TensorDynLenNtNtB9_11tensor_like10TensorLike4conj
FN:1476,_RNvXsc_NtNtCs55lPmkOpiMP_15tensor4all_core8defaults12tensordynlenNtB5_12TensorDynLenNtNtB9_11tensor_like10TensorLike4ones
FN:1429,_RNvXsc_NtNtCs55lPmkOpiMP_15tensor4all_core8defaults12tensordynlenNtB5_12TensorDynLenNtNtB9_11tensor_like10TensorLike5axpby
FN:1434,_RNvXsc_NtNtCs55lPmkOpiMP_15tensor4all_core8defaults12tensordynlenNtB5_12TensorDynLenNtNtB9_11tensor_like10TensorLike5scale
FN:1419,_RNvXsc_NtNtCs55lPmkOpiMP_15tensor4all_core8defaults12tensordynlenNtB5_12TensorDynLenNtNtB9_11tensor_like10TensorLike8contract
FN:1444,_RNvXsc_NtNtCs55lPmkOpiMP_15tensor4all_core8defaults12tensordynlenNtB5_12TensorDynLenNtNtB9_11tensor_like10TensorLike8diagonal
FN:1379,_RNvXsc_NtNtCs55lPmkOpiMP_15tensor4all_core8defaults12tensordynlenNtB5_12TensorDynLenNtNtB9_11tensor_like10TensorLike9factorize
FN:671,_RINvMs0_NtNtCs9q2tZtL9dYv_15tensor4all_core8defaults12tensordynlenNtB6_12TensorDynLen10random_c64pEBa_
FN:641,_RINvMs0_NtNtCs9q2tZtL9dYv_15tensor4all_core8defaults12tensordynlenNtB6_12TensorDynLen10random_f64pEBa_
FN:1271,_RINvNtNtCs9q2tZtL9dYv_15tensor4all_core8defaults12tensordynlen12unfold_splitpEB6_
FN:672,_RNCINvMs0_NtNtCs9q2tZtL9dYv_15tensor4all_core8defaults12tensordynlenNtB8_12TensorDynLen10random_c64pE0Bc_
FN:642,_RNCINvMs0_NtNtCs9q2tZtL9dYv_15tensor4all_core8defaults12tensordynlenNtB8_12TensorDynLen10random_f64pE0Bc_
FN:1331,_RNCINvNtNtCs9q2tZtL9dYv_15tensor4all_core8defaults12tensordynlen12unfold_splitpE0B8_
FN:930,_RNCNvMs7_NtNtCs9q2tZtL9dYv_15tensor4all_core8defaults12tensordynlenNtB7_12TensorDynLen10replaceind0Bb_
FN:940,_RNCNvMs7_NtNtCs9q2tZtL9dYv_15tensor4all_core8defaults12tensordynlenNtB7_12TensorDynLen10replaceinds_0Bb_
FN:998,_RNCNvMs7_NtNtCs9q2tZtL9dYv_15tensor4all_core8defaults12tensordynlenNtB7_12TensorDynLen11replaceinds0Bb_
FN:1008,_RNCNvMs7_NtNtCs9q2tZtL9dYv_15tensor4all_core8defaults12tensordynlenNtB7_12TensorDynLen11replaceindss_0Bb_
FN:169,_RNCNvMs_NtNtCs9q2tZtL9dYv_15tensor4all_core8defaults12tensordynlenNtB6_12TensorDynLen12from_indices0Ba_
FN:360,_RNCNvMs_NtNtCs9q2tZtL9dYv_15tensor4all_core8defaults12tensordynlenNtB6_12TensorDynLen7permute0Ba_
FN:361,_RNCNvMs_NtNtCs9q2tZtL9dYv_15tensor4all_core8defaults12tensordynlenNtB6_12TensorDynLen7permutes_0Ba_
FN:1196,_RNCNvNtNtCs9q2tZtL9dYv_15tensor4all_core8defaults12tensordynlen19diag_tensor_dyn_len0B7_
FN:1222,_RNCNvNtNtCs9q2tZtL9dYv_15tensor4all_core8defaults12tensordynlen23diag_tensor_dyn_len_c640B7_
FN:1481,_RNCNvXsc_NtNtCs9q2tZtL9dYv_15tensor4all_core8defaults12tensordynlenNtB7_12TensorDynLenNtNtBb_11tensor_like10TensorLike4ones0Bb_
FN:926,_RNvMs7_NtNtCs9q2tZtL9dYv_15tensor4all_core8defaults12tensordynlenNtB5_12TensorDynLen10replaceind
FN:984,_RNvMs7_NtNtCs9q2tZtL9dYv_15tensor4all_core8defaults12tensordynlenNtB5_12TensorDynLen11replaceinds
FN:1154,_RNvMs9_NtNtCs9q2tZtL9dYv_15tensor4all_core8defaults12tensordynlenNtB5_12TensorDynLen8distance
FN:211,_RNvMs_NtNtCs9q2tZtL9dYv_15tensor4all_core8defaults12tensordynlenNtB4_12TensorDynLen11tensor_data
FN:193,_RNvMs_NtNtCs9q2tZtL9dYv_15tensor4all_core8defaults12tensordynlenNtB4_12TensorDynLen11try_storage
FN:168,_RNvMs_NtNtCs9q2tZtL9dYv_15tensor4all_core8defaults12tensordynlenNtB4_12TensorDynLen12from_indices
FN:260,_RNvMs_NtNtCs9q2tZtL9dYv_15tensor4all_core8defaults12tensordynlenNtB4_12TensorDynLen4only
FN:352,_RNvMs_NtNtCs9q2tZtL9dYv_15tensor4all_core8defaults12tensordynlenNtB4_12TensorDynLen7permute
FN:232,_RNvMs_NtNtCs9q2tZtL9dYv_15tensor4all_core8defaults12tensordynlenNtB4_12TensorDynLen7sum_f64
FN:218,_RNvMs_NtNtCs9q2tZtL9dYv_15tensor4all_core8defaults12tensordynlenNtB4_12TensorDynLen9from_data
FN:174,_RNvMs_NtNtCs9q2tZtL9dYv_15tensor4all_core8defaults12tensordynlenNtB4_12TensorDynLen9is_simple
FN:751,_RNvNtNtCs9q2tZtL9dYv_15tensor4all_core8defaults12tensordynlen14is_diag_tensor
FN:1195,_RNvNtNtCs9q2tZtL9dYv_15tensor4all_core8defaults12tensordynlen19diag_tensor_dyn_len
FN:1221,_RNvNtNtCs9q2tZtL9dYv_15tensor4all_core8defaults12tensordynlen23diag_tensor_dyn_len_c64
FN:108,_RNvXNtNtCs9q2tZtL9dYv_15tensor4all_core8defaults12tensordynlenNtB2_12TensorDynLenNtB2_12TensorAccess4data
FN:104,_RNvXNtNtCs9q2tZtL9dYv_15tensor4all_core8defaults12tensordynlenNtB2_12TensorDynLenNtB2_12TensorAccess7indices
FN:716,_RNvXs1_NtNtCs9q2tZtL9dYv_15tensor4all_core8defaults12tensordynlenRNtB5_12TensorDynLenNtNtNtCskzPJi2J8k3N_4core3ops5arith3Mul3mul
FN:727,_RNvXs2_NtNtCs9q2tZtL9dYv_15tensor4all_core8defaults12tensordynlenNtB5_12TensorDynLenNtNtNtCskzPJi2J8k3N_4core3ops5arith3Mul3mul
FN:736,_RNvXs3_NtNtCs9q2tZtL9dYv_15tensor4all_core8defaults12tensordynlenRNtB5_12TensorDynLenINtNtNtCskzPJi2J8k3N_4core3ops5arith3MulB12_E3mul
FN:745,_RNvXs4_NtNtCs9q2tZtL9dYv_15tensor4all_core8defaults12tensordynlenNtB5_12TensorDynLenINtNtNtCskzPJi2J8k3N_4core3ops5arith3MulRB11_E3mul
FN:1361,_RNvXsb_NtNtCs9q2tZtL9dYv_15tensor4all_core8defaults12tensordynlenNtB5_12TensorDynLenNtNtB9_12tensor_index11TensorIndex10replaceind
FN:1366,_RNvXsb_NtNtCs9q2tZtL9dYv_15tensor4all_core8defaults12tensordynlenNtB5_12TensorDynLenNtNtB9_12tensor_index11TensorIndex11replaceinds
FN:1352,_RNvXsb_NtNtCs9q2tZtL9dYv_15tensor4all_core8defaults12tensordynlenNtB5_12TensorDynLenNtNtB9_12tensor_index11TensorIndex16external_indices
FN:1357,_RNvXsb_NtNtCs9q2tZtL9dYv_15tensor4all_core8defaults12tensordynlenNtB5_12TensorDynLenNtNtB9_12tensor_index11TensorIndex20num_external_indices
FN:1392,_RNvXsc_NtNtCs9q2tZtL9dYv_15tensor4all_core8defaults12tensordynlenNtB5_12TensorDynLenNtNtB9_11tensor_like10TensorLike10direct_sum
FN:1470,_RNvXsc_NtNtCs9q2tZtL9dYv_15tensor4all_core8defaults12tensordynlenNtB5_12TensorDynLenNtNtB9_11tensor_like10TensorLike10scalar_one
FN:1404,_RNvXsc_NtNtCs9q2tZtL9dYv_15tensor4all_core8defaults12tensordynlenNtB5_12TensorDynLenNtNtB9_11tensor_like10TensorLike13outer_product
FN:1424,_RNvXsc_NtNtCs9q2tZtL9dYv_15tensor4all_core8defaults12tensordynlenNtB5_12TensorDynLenNtNtB9_11tensor_like10TensorLike18contract_connected
FN:1387,_RNvXsc_NtNtCs9q2tZtL9dYv_15tensor4all_core8defaults12tensordynlenNtB5_12TensorDynLenNtNtB9_11tensor_like10TensorLike4conj
FN:1476,_RNvXsc_NtNtCs9q2tZtL9dYv_15tensor4all_core8defaults12tensordynlenNtB5_12TensorDynLenNtNtB9_11tensor_like10TensorLike4ones
FN:1419,_RNvXsc_NtNtCs9q2tZtL9dYv_15tensor4all_core8defaults12tensordynlenNtB5_12TensorDynLenNtNtB9_11tensor_like10TensorLike8contract
FN:1444,_RNvXsc_NtNtCs9q2tZtL9dYv_15tensor4all_core8defaults12tensordynlenNtB5_12TensorDynLenNtNtB9_11tensor_like10TensorLike8diagonal
FN:1379,_RNvXsc_NtNtCs9q2tZtL9dYv_15tensor4all_core8defaults12tensordynlenNtB5_12TensorDynLenNtNtB9_11tensor_like10TensorLike9factorize
FN:834,_RNCNvMs5_NtNtCs9q2tZtL9dYv_15tensor4all_core8defaults12tensordynlenNtB7_12TensorDynLen3add0Bb_
FN:1050,_RNCNvMs8_NtNtCs9q2tZtL9dYv_15tensor4all_core8defaults12tensordynlenNtB7_12TensorDynLen4conj0Bb_
FN:584,_RNCNvMs_NtNtCs9q2tZtL9dYv_15tensor4all_core8defaults12tensordynlenNtB6_12TensorDynLen13outer_product0Ba_
FN:311,_RNCNvMs_NtNtCs9q2tZtL9dYv_15tensor4all_core8defaults12tensordynlenNtB6_12TensorDynLen15permute_indices0Ba_
FN:151,_RNCNvMs_NtNtCs9q2tZtL9dYv_15tensor4all_core8defaults12tensordynlenNtB6_12TensorDynLen3new0Ba_
FN:491,_RNCNvMs_NtNtCs9q2tZtL9dYv_15tensor4all_core8defaults12tensordynlenNtB6_12TensorDynLen9tensordot0Ba_
FN:63,_RNCNvNtNtCs9q2tZtL9dYv_15tensor4all_core8defaults12tensordynlen32compute_permutation_from_indices0B7_
FN:867,_RNvMs5_NtNtCs9q2tZtL9dYv_15tensor4all_core8defaults12tensordynlenNtB5_12TensorDynLen13inner_product
FN:794,_RNvMs5_NtNtCs9q2tZtL9dYv_15tensor4all_core8defaults12tensordynlenNtB5_12TensorDynLen3add
FN:844,_RNvMs5_NtNtCs9q2tZtL9dYv_15tensor4all_core8defaults12tensordynlenNtB5_12TensorDynLen5axpby
FN:854,_RNvMs5_NtNtCs9q2tZtL9dYv_15tensor4all_core8defaults12tensordynlenNtB5_12TensorDynLen5scale
FN:1046,_RNvMs8_NtNtCs9q2tZtL9dYv_15tensor4all_core8defaults12tensordynlenNtB5_12TensorDynLen4conj
FN:1082,_RNvMs9_NtNtCs9q2tZtL9dYv_15tensor4all_core8defaults12tensordynlenNtB5_12TensorDynLen12norm_squared
FN:1115,_RNvMs9_NtNtCs9q2tZtL9dYv_15tensor4all_core8defaults12tensordynlenNtB5_12TensorDynLen4norm
FN:575,_RNvMs_NtNtCs9q2tZtL9dYv_15tensor4all_core8defaults12tensordynlenNtB4_12TensorDynLen13outer_product
FN:306,_RNvMs_NtNtCs9q2tZtL9dYv_15tensor4all_core8defaults12tensordynlenNtB4_12TensorDynLen15permute_indices
FN:201,_RNvMs_NtNtCs9q2tZtL9dYv_15tensor4all_core8defaults12tensordynlenNtB4_12TensorDynLen19materialize_storage
FN:121,_RNvMs_NtNtCs9q2tZtL9dYv_15tensor4all_core8defaults12tensordynlenNtB4_12TensorDynLen3new
FN:227,_RNvMs_NtNtCs9q2tZtL9dYv_15tensor4all_core8defaults12tensordynlenNtB4_12TensorDynLen3sum
FN:183,_RNvMs_NtNtCs9q2tZtL9dYv_15tensor4all_core8defaults12tensordynlenNtB4_12TensorDynLen7storage
FN:413,_RNvMs_NtNtCs9q2tZtL9dYv_15tensor4all_core8defaults12tensordynlenNtB4_12TensorDynLen8contract
FN:481,_RNvMs_NtNtCs9q2tZtL9dYv_15tensor4all_core8defaults12tensordynlenNtB4_12TensorDynLen9tensordot
FN:45,_RNvNtNtCs9q2tZtL9dYv_15tensor4all_core8defaults12tensordynlen32compute_permutation_from_indices
FN:878,_RNvXs6_NtNtCs9q2tZtL9dYv_15tensor4all_core8defaults12tensordynlenNtB5_12TensorDynLenNtNtCskzPJi2J8k3N_4core5clone5Clone5clone
FN:1178,_RNvXsa_NtNtCs9q2tZtL9dYv_15tensor4all_core8defaults12tensordynlenNtB5_12TensorDynLenNtNtCskzPJi2J8k3N_4core3fmt5Debug3fmt
FN:1414,_RNvXsc_NtNtCs9q2tZtL9dYv_15tensor4all_core8defaults12tensordynlenNtB5_12TensorDynLenNtNtB9_11tensor_like10TensorLike11permuteinds
FN:1409,_RNvXsc_NtNtCs9q2tZtL9dYv_15tensor4all_core8defaults12tensordynlenNtB5_12TensorDynLenNtNtB9_11tensor_like10TensorLike12norm_squared
FN:1439,_RNvXsc_NtNtCs9q2tZtL9dYv_15tensor4all_core8defaults12tensordynlenNtB5_12TensorDynLenNtNtB9_11tensor_like10TensorLike13inner_product
FN:1429,_RNvXsc_NtNtCs9q2tZtL9dYv_15tensor4all_core8defaults12tensordynlenNtB5_12TensorDynLenNtNtB9_11tensor_like10TensorLike5axpby
FN:1434,_RNvXsc_NtNtCs9q2tZtL9dYv_15tensor4all_core8defaults12tensordynlenNtB5_12TensorDynLenNtNtB9_11tensor_like10TensorLike5scale
FN:671,_RINvMs0_NtNtCs55lPmkOpiMP_15tensor4all_core8defaults12tensordynlenNtB6_12TensorDynLen10random_c64NtNtCsjfquhaf4cXm_11rand_chacha6chacha10ChaCha8RngECsejdtHiUIaxk_17tensor4all_treetn
FN:671,_RINvMs0_NtNtCs55lPmkOpiMP_15tensor4all_core8defaults12tensordynlenNtB6_12TensorDynLen10random_c64NtNtNtCs1dzBk8Zm9GH_4rand4rngs6thread9ThreadRngECsejdtHiUIaxk_17tensor4all_treetn
FN:641,_RINvMs0_NtNtCs55lPmkOpiMP_15tensor4all_core8defaults12tensordynlenNtB6_12TensorDynLen10random_f64NtNtCsjfquhaf4cXm_11rand_chacha6chacha10ChaCha8RngECsejdtHiUIaxk_17tensor4all_treetn
FN:641,_RINvMs0_NtNtCs55lPmkOpiMP_15tensor4all_core8defaults12tensordynlenNtB6_12TensorDynLen10random_f64NtNtNtCs1dzBk8Zm9GH_4rand4rngs6thread9ThreadRngECsejdtHiUIaxk_17tensor4all_treetn
FN:672,_RNCINvMs0_NtNtCs55lPmkOpiMP_15tensor4all_core8defaults12tensordynlenNtB8_12TensorDynLen10random_c64NtNtCsjfquhaf4cXm_11rand_chacha6chacha10ChaCha8RngE0CsejdtHiUIaxk_17tensor4all_treetn
FN:672,_RNCINvMs0_NtNtCs55lPmkOpiMP_15tensor4all_core8defaults12tensordynlenNtB8_12TensorDynLen10random_c64NtNtNtCs1dzBk8Zm9GH_4rand4rngs6thread9ThreadRngE0CsejdtHiUIaxk_17tensor4all_treetn
FN:642,_RNCINvMs0_NtNtCs55lPmkOpiMP_15tensor4all_core8defaults12tensordynlenNtB8_12TensorDynLen10random_f64NtNtCsjfquhaf4cXm_11rand_chacha6chacha10ChaCha8RngE0CsejdtHiUIaxk_17tensor4all_treetn
FN:642,_RNCINvMs0_NtNtCs55lPmkOpiMP_15tensor4all_core8defaults12tensordynlenNtB8_12TensorDynLen10random_f64NtNtNtCs1dzBk8Zm9GH_4rand4rngs6thread9ThreadRngE0CsejdtHiUIaxk_17tensor4all_treetn
FNDA:0,_RINvMs0_NtNtCs55lPmkOpiMP_15tensor4all_core8defaults12tensordynlenNtB6_12TensorDynLen10random_c64pEBa_
FNDA:0,_RINvMs0_NtNtCs55lPmkOpiMP_15tensor4all_core8defaults12tensordynlenNtB6_12TensorDynLen10random_f64pEBa_
FNDA:0,_RNCINvMs0_NtNtCs55lPmkOpiMP_15tensor4all_core8defaults12tensordynlenNtB8_12TensorDynLen10random_c64pE0Bc_
FNDA:0,_RNCINvMs0_NtNtCs55lPmkOpiMP_15tensor4all_core8defaults12tensordynlenNtB8_12TensorDynLen10random_f64pE0Bc_
FNDA:314,_RINvNtNtCs55lPmkOpiMP_15tensor4all_core8defaults12tensordynlen12unfold_splitINtCseyqKeAT1xJ3_11num_complex7ComplexdEEB6_
FNDA:320,_RINvNtNtCs55lPmkOpiMP_15tensor4all_core8defaults12tensordynlen12unfold_splitdEB6_
FNDA:0,_RNCINvNtNtCs55lPmkOpiMP_15tensor4all_core8defaults12tensordynlen12unfold_splitINtCseyqKeAT1xJ3_11num_complex7ComplexdEE0B8_
FNDA:0,_RNCINvNtNtCs55lPmkOpiMP_15tensor4all_core8defaults12tensordynlen12unfold_splitdE0B8_
FNDA:0,_RNCNvMs5_NtNtCs55lPmkOpiMP_15tensor4all_core8defaults12tensordynlenNtB7_12TensorDynLen3add0Bb_
FNDA:11566,_RNCNvMs7_NtNtCs55lPmkOpiMP_15tensor4all_core8defaults12tensordynlenNtB7_12TensorDynLen10replaceind0Bb_
FNDA:11566,_RNCNvMs7_NtNtCs55lPmkOpiMP_15tensor4all_core8defaults12tensordynlenNtB7_12TensorDynLen10replaceinds_0Bb_
FNDA:73,_RNCNvMs7_NtNtCs55lPmkOpiMP_15tensor4all_core8defaults12tensordynlenNtB7_12TensorDynLen11replaceinds0Bb_
FNDA:73,_RNCNvMs7_NtNtCs55lPmkOpiMP_15tensor4all_core8defaults12tensordynlenNtB7_12TensorDynLen11replaceindss_0Bb_
FNDA:1841,_RNCNvMs8_NtNtCs55lPmkOpiMP_15tensor4all_core8defaults12tensordynlenNtB7_12TensorDynLen4conj0Bb_
FNDA:4149,_RNCNvMs_NtNtCs55lPmkOpiMP_15tensor4all_core8defaults12tensordynlenNtB6_12TensorDynLen12from_indices0Ba_
FNDA:2,_RNCNvMs_NtNtCs55lPmkOpiMP_15tensor4all_core8defaults12tensordynlenNtB6_12TensorDynLen13outer_product0Ba_
FNDA:3236,_RNCNvMs_NtNtCs55lPmkOpiMP_15tensor4all_core8defaults12tensordynlenNtB6_12TensorDynLen15permute_indices0Ba_
FNDA:39744,_RNCNvMs_NtNtCs55lPmkOpiMP_15tensor4all_core8defaults12tensordynlenNtB6_12TensorDynLen3new0Ba_
FNDA:12,_RNCNvMs_NtNtCs55lPmkOpiMP_15tensor4all_core8defaults12tensordynlenNtB6_12TensorDynLen7permute0Ba_
FNDA:12,_RNCNvMs_NtNtCs55lPmkOpiMP_15tensor4all_core8defaults12tensordynlenNtB6_12TensorDynLen7permutes_0Ba_
FNDA:5,_RNCNvMs_NtNtCs55lPmkOpiMP_15tensor4all_core8defaults12tensordynlenNtB6_12TensorDynLen9tensordot0Ba_
FNDA:29,_RNCNvNtNtCs55lPmkOpiMP_15tensor4all_core8defaults12tensordynlen19diag_tensor_dyn_len0B7_
FNDA:2,_RNCNvNtNtCs55lPmkOpiMP_15tensor4all_core8defaults12tensordynlen23diag_tensor_dyn_len_c640B7_
FNDA:7435,_RNCNvNtNtCs55lPmkOpiMP_15tensor4all_core8defaults12tensordynlen32compute_permutation_from_indices0B7_
FNDA:14,_RNCNvXsc_NtNtCs55lPmkOpiMP_15tensor4all_core8defaults12tensordynlenNtB7_12TensorDynLenNtNtBb_11tensor_like10TensorLike4ones0Bb_
FNDA:10,_RNvMs5_NtNtCs55lPmkOpiMP_15tensor4all_core8defaults12tensordynlenNtB5_12TensorDynLen13inner_product
FNDA:221,_RNvMs5_NtNtCs55lPmkOpiMP_15tensor4all_core8defaults12tensordynlenNtB5_12TensorDynLen3add
FNDA:221,_RNvMs5_NtNtCs55lPmkOpiMP_15tensor4all_core8defaults12tensordynlenNtB5_12TensorDynLen5axpby
FNDA:671,_RNvMs5_NtNtCs55lPmkOpiMP_15tensor4all_core8defaults12tensordynlenNtB5_12TensorDynLen5scale
FNDA:4499,_RNvMs7_NtNtCs55lPmkOpiMP_15tensor4all_core8defaults12tensordynlenNtB5_12TensorDynLen10replaceind
FNDA:26,_RNvMs7_NtNtCs55lPmkOpiMP_15tensor4all_core8defaults12tensordynlenNtB5_12TensorDynLen11replaceinds
FNDA:870,_RNvMs8_NtNtCs55lPmkOpiMP_15tensor4all_core8defaults12tensordynlenNtB5_12TensorDynLen4conj
FNDA:414,_RNvMs9_NtNtCs55lPmkOpiMP_15tensor4all_core8defaults12tensordynlenNtB5_12TensorDynLen12norm_squared
FNDA:0,_RNvMs9_NtNtCs55lPmkOpiMP_15tensor4all_core8defaults12tensordynlenNtB5_12TensorDynLen4norm
FNDA:0,_RNvMs9_NtNtCs55lPmkOpiMP_15tensor4all_core8defaults12tensordynlenNtB5_12TensorDynLen8distance
FNDA:1,_RNvMs_NtNtCs55lPmkOpiMP_15tensor4all_core8defaults12tensordynlenNtB4_12TensorDynLen11tensor_data
FNDA:0,_RNvMs_NtNtCs55lPmkOpiMP_15tensor4all_core8defaults12tensordynlenNtB4_12TensorDynLen11try_storage
FNDA:1849,_RNvMs_NtNtCs55lPmkOpiMP_15tensor4all_core8defaults12tensordynlenNtB4_12TensorDynLen12from_indices
FNDA:26,_RNvMs_NtNtCs55lPmkOpiMP_15tensor4all_core8defaults12tensordynlenNtB4_12TensorDynLen13outer_product
FNDA:1071,_RNvMs_NtNtCs55lPmkOpiMP_15tensor4all_core8defaults12tensordynlenNtB4_12TensorDynLen15permute_indices
FNDA:1257,_RNvMs_NtNtCs55lPmkOpiMP_15tensor4all_core8defaults12tensordynlenNtB4_12TensorDynLen19materialize_storage
FNDA:15015,_RNvMs_NtNtCs55lPmkOpiMP_15tensor4all_core8defaults12tensordynlenNtB4_12TensorDynLen3new
FNDA:431,_RNvMs_NtNtCs55lPmkOpiMP_15tensor4all_core8defaults12tensordynlenNtB4_12TensorDynLen3sum
FNDA:2,_RNvMs_NtNtCs55lPmkOpiMP_15tensor4all_core8defaults12tensordynlenNtB4_12TensorDynLen4only
FNDA:5,_RNvMs_NtNtCs55lPmkOpiMP_15tensor4all_core8defaults12tensordynlenNtB4_12TensorDynLen7permute
FNDA:21272,_RNvMs_NtNtCs55lPmkOpiMP_15tensor4all_core8defaults12tensordynlenNtB4_12TensorDynLen7storage
FNDA:1,_RNvMs_NtNtCs55lPmkOpiMP_15tensor4all_core8defaults12tensordynlenNtB4_12TensorDynLen7sum_f64
FNDA:991,_RNvMs_NtNtCs55lPmkOpiMP_15tensor4all_core8defaults12tensordynlenNtB4_12TensorDynLen8contract
FNDA:4524,_RNvMs_NtNtCs55lPmkOpiMP_15tensor4all_core8defaults12tensordynlenNtB4_12TensorDynLen9from_data
FNDA:1,_RNvMs_NtNtCs55lPmkOpiMP_15tensor4all_core8defaults12tensordynlenNtB4_12TensorDynLen9is_simple
FNDA:2194,_RNvMs_NtNtCs55lPmkOpiMP_15tensor4all_core8defaults12tensordynlenNtB4_12TensorDynLen9tensordot
FNDA:5,_RNvNtNtCs55lPmkOpiMP_15tensor4all_core8defaults12tensordynlen14is_diag_tensor
FNDA:13,_RNvNtNtCs55lPmkOpiMP_15tensor4all_core8defaults12tensordynlen19diag_tensor_dyn_len
FNDA:1,_RNvNtNtCs55lPmkOpiMP_15tensor4all_core8defaults12tensordynlen23diag_tensor_dyn_len_c64
FNDA:1077,_RNvNtNtCs55lPmkOpiMP_15tensor4all_core8defaults12tensordynlen32compute_permutation_from_indices
FNDA:0,_RNvXNtNtCs55lPmkOpiMP_15tensor4all_core8defaults12tensordynlenNtB2_12TensorDynLenNtB2_12TensorAccess4data
FNDA:66,_RNvXNtNtCs55lPmkOpiMP_15tensor4all_core8defaults12tensordynlenNtB2_12TensorDynLenNtB2_12TensorAccess7indices
FNDA:1,_RNvXs1_NtNtCs55lPmkOpiMP_15tensor4all_core8defaults12tensordynlenRNtB5_12TensorDynLenNtNtNtCskzPJi2J8k3N_4core3ops5arith3Mul3mul
FNDA:1,_RNvXs2_NtNtCs55lPmkOpiMP_15tensor4all_core8defaults12tensordynlenNtB5_12TensorDynLenNtNtNtCskzPJi2J8k3N_4core3ops5arith3Mul3mul
FNDA:0,_RNvXs3_NtNtCs55lPmkOpiMP_15tensor4all_core8defaults12tensordynlenRNtB5_12TensorDynLenINtNtNtCskzPJi2J8k3N_4core3ops5arith3MulB12_E3mul
FNDA:0,_RNvXs4_NtNtCs55lPmkOpiMP_15tensor4all_core8defaults12tensordynlenNtB5_12TensorDynLenINtNtNtCskzPJi2J8k3N_4core3ops5arith3MulRB11_E3mul
FNDA:20821,_RNvXs6_NtNtCs55lPmkOpiMP_15tensor4all_core8defaults12tensordynlenNtB5_12TensorDynLenNtNtCskzPJi2J8k3N_4core5clone5Clone5clone
FNDA:0,_RNvXsa_NtNtCs55lPmkOpiMP_15tensor4all_core8defaults12tensordynlenNtB5_12TensorDynLenNtNtCskzPJi2J8k3N_4core3fmt5Debug3fmt
FNDA:3943,_RNvXsb_NtNtCs55lPmkOpiMP_15tensor4all_core8defaults12tensordynlenNtB5_12TensorDynLenNtNtB9_12tensor_index11TensorIndex10replaceind
FNDA:23,_RNvXsb_NtNtCs55lPmkOpiMP_15tensor4all_core8defaults12tensordynlenNtB5_12TensorDynLenNtNtB9_12tensor_index11TensorIndex11replaceinds
FNDA:25503,_RNvXsb_NtNtCs55lPmkOpiMP_15tensor4all_core8defaults12tensordynlenNtB5_12TensorDynLenNtNtB9_12tensor_index11TensorIndex16external_indices
FNDA:3376,_RNvXsb_NtNtCs55lPmkOpiMP_15tensor4all_core8defaults12tensordynlenNtB5_12TensorDynLenNtNtB9_12tensor_index11TensorIndex20num_external_indices
FNDA:0,_RNvXsc_NtNtCs55lPmkOpiMP_15tensor4all_core8defaults12tensordynlenNtB5_12TensorDynLenNtNtB9_11tensor_like10TensorLike10direct_sum
FNDA:1,_RNvXsc_NtNtCs55lPmkOpiMP_15tensor4all_core8defaults12tensordynlenNtB5_12TensorDynLenNtNtB9_11tensor_like10TensorLike10scalar_one
FNDA:220,_RNvXsc_NtNtCs55lPmkOpiMP_15tensor4all_core8defaults12tensordynlenNtB5_12TensorDynLenNtNtB9_11tensor_like10TensorLike11permuteinds
FNDA:414,_RNvXsc_NtNtCs55lPmkOpiMP_15tensor4all_core8defaults12tensordynlenNtB5_12TensorDynLenNtNtB9_11tensor_like10TensorLike12norm_squared
FNDA:10,_RNvXsc_NtNtCs55lPmkOpiMP_15tensor4all_core8defaults12tensordynlenNtB5_12TensorDynLenNtNtB9_11tensor_like10TensorLike13inner_product
FNDA:15,_RNvXsc_NtNtCs55lPmkOpiMP_15tensor4all_core8defaults12tensordynlenNtB5_12TensorDynLenNtNtB9_11tensor_like10TensorLike13outer_product
FNDA:0,_RNvXsc_NtNtCs55lPmkOpiMP_15tensor4all_core8defaults12tensordynlenNtB5_12TensorDynLenNtNtB9_11tensor_like10TensorLike18contract_connected
FNDA:440,_RNvXsc_NtNtCs55lPmkOpiMP_15tensor4all_core8defaults12tensordynlenNtB5_12TensorDynLenNtNtB9_11tensor_like10TensorLike4conj
FNDA:14,_RNvXsc_NtNtCs55lPmkOpiMP_15tensor4all_core8defaults12tensordynlenNtB5_12TensorDynLenNtNtB9_11tensor_like10TensorLike4ones
FNDA:221,_RNvXsc_NtNtCs55lPmkOpiMP_15tensor4all_core8defaults12tensordynlenNtB5_12TensorDynLenNtNtB9_11tensor_like10TensorLike5axpby
FNDA:229,_RNvXsc_NtNtCs55lPmkOpiMP_15tensor4all_core8defaults12tensordynlenNtB5_12TensorDynLenNtNtB9_11tensor_like10TensorLike5scale
FNDA:1899,_RNvXsc_NtNtCs55lPmkOpiMP_15tensor4all_core8defaults12tensordynlenNtB5_12TensorDynLenNtNtB9_11tensor_like10TensorLike8contract
FNDA:7,_RNvXsc_NtNtCs55lPmkOpiMP_15tensor4all_core8defaults12tensordynlenNtB5_12TensorDynLenNtNtB9_11tensor_like10TensorLike8diagonal
FNDA:592,_RNvXsc_NtNtCs55lPmkOpiMP_15tensor4all_core8defaults12tensordynlenNtB5_12TensorDynLenNtNtB9_11tensor_like10TensorLike9factorize
FNDA:0,_RINvMs0_NtNtCs9q2tZtL9dYv_15tensor4all_core8defaults12tensordynlenNtB6_12TensorDynLen10random_c64pEBa_
FNDA:0,_RINvMs0_NtNtCs9q2tZtL9dYv_15tensor4all_core8defaults12tensordynlenNtB6_12TensorDynLen10random_f64pEBa_
FNDA:0,_RINvNtNtCs9q2tZtL9dYv_15tensor4all_core8defaults12tensordynlen12unfold_splitpEB6_
FNDA:0,_RNCINvMs0_NtNtCs9q2tZtL9dYv_15tensor4all_core8defaults12tensordynlenNtB8_12TensorDynLen10random_c64pE0Bc_
FNDA:0,_RNCINvMs0_NtNtCs9q2tZtL9dYv_15tensor4all_core8defaults12tensordynlenNtB8_12TensorDynLen10random_f64pE0Bc_
FNDA:0,_RNCINvNtNtCs9q2tZtL9dYv_15tensor4all_core8defaults12tensordynlen12unfold_splitpE0B8_
FNDA:0,_RNCNvMs7_NtNtCs9q2tZtL9dYv_15tensor4all_core8defaults12tensordynlenNtB7_12TensorDynLen10replaceind0Bb_
FNDA:0,_RNCNvMs7_NtNtCs9q2tZtL9dYv_15tensor4all_core8defaults12tensordynlenNtB7_12TensorDynLen10replaceinds_0Bb_
FNDA:0,_RNCNvMs7_NtNtCs9q2tZtL9dYv_15tensor4all_core8defaults12tensordynlenNtB7_12TensorDynLen11replaceinds0Bb_
FNDA:0,_RNCNvMs7_NtNtCs9q2tZtL9dYv_15tensor4all_core8defaults12tensordynlenNtB7_12TensorDynLen11replaceindss_0Bb_
FNDA:0,_RNCNvMs_NtNtCs9q2tZtL9dYv_15tensor4all_core8defaults12tensordynlenNtB6_12TensorDynLen12from_indices0Ba_
FNDA:0,_RNCNvMs_NtNtCs9q2tZtL9dYv_15tensor4all_core8defaults12tensordynlenNtB6_12TensorDynLen7permute0Ba_
FNDA:0,_RNCNvMs_NtNtCs9q2tZtL9dYv_15tensor4all_core8defaults12tensordynlenNtB6_12TensorDynLen7permutes_0Ba_
FNDA:0,_RNCNvNtNtCs9q2tZtL9dYv_15tensor4all_core8defaults12tensordynlen19diag_tensor_dyn_len0B7_
FNDA:0,_RNCNvNtNtCs9q2tZtL9dYv_15tensor4all_core8defaults12tensordynlen23diag_tensor_dyn_len_c640B7_
FNDA:0,_RNCNvXsc_NtNtCs9q2tZtL9dYv_15tensor4all_core8defaults12tensordynlenNtB7_12TensorDynLenNtNtBb_11tensor_like10TensorLike4ones0Bb_
FNDA:0,_RNvMs7_NtNtCs9q2tZtL9dYv_15tensor4all_core8defaults12tensordynlenNtB5_12TensorDynLen10replaceind
FNDA:0,_RNvMs7_NtNtCs9q2tZtL9dYv_15tensor4all_core8defaults12tensordynlenNtB5_12TensorDynLen11replaceinds
FNDA:0,_RNvMs9_NtNtCs9q2tZtL9dYv_15tensor4all_core8defaults12tensordynlenNtB5_12TensorDynLen8distance
FNDA:0,_RNvMs_NtNtCs9q2tZtL9dYv_15tensor4all_core8defaults12tensordynlenNtB4_12TensorDynLen11tensor_data
FNDA:0,_RNvMs_NtNtCs9q2tZtL9dYv_15tensor4all_core8defaults12tensordynlenNtB4_12TensorDynLen11try_storage
FNDA:0,_RNvMs_NtNtCs9q2tZtL9dYv_15tensor4all_core8defaults12tensordynlenNtB4_12TensorDynLen12from_indices
FNDA:0,_RNvMs_NtNtCs9q2tZtL9dYv_15tensor4all_core8defaults12tensordynlenNtB4_12TensorDynLen4only
FNDA:0,_RNvMs_NtNtCs9q2tZtL9dYv_15tensor4all_core8defaults12tensordynlenNtB4_12TensorDynLen7permute
FNDA:0,_RNvMs_NtNtCs9q2tZtL9dYv_15tensor4all_core8defaults12tensordynlenNtB4_12TensorDynLen7sum_f64
FNDA:0,_RNvMs_NtNtCs9q2tZtL9dYv_15tensor4all_core8defaults12tensordynlenNtB4_12TensorDynLen9from_data
FNDA:0,_RNvMs_NtNtCs9q2tZtL9dYv_15tensor4all_core8defaults12tensordynlenNtB4_12TensorDynLen9is_simple
FNDA:0,_RNvNtNtCs9q2tZtL9dYv_15tensor4all_core8defaults12tensordynlen14is_diag_tensor
FNDA:0,_RNvNtNtCs9q2tZtL9dYv_15tensor4all_core8defaults12tensordynlen19diag_tensor_dyn_len
FNDA:0,_RNvNtNtCs9q2tZtL9dYv_15tensor4all_core8defaults12tensordynlen23diag_tensor_dyn_len_c64
FNDA:0,_RNvXNtNtCs9q2tZtL9dYv_15tensor4all_core8defaults12tensordynlenNtB2_12TensorDynLenNtB2_12TensorAccess4data
FNDA:0,_RNvXNtNtCs9q2tZtL9dYv_15tensor4all_core8defaults12tensordynlenNtB2_12TensorDynLenNtB2_12TensorAccess7indices
FNDA:0,_RNvXs1_NtNtCs9q2tZtL9dYv_15tensor4all_core8defaults12tensordynlenRNtB5_12TensorDynLenNtNtNtCskzPJi2J8k3N_4core3ops5arith3Mul3mul
FNDA:0,_RNvXs2_NtNtCs9q2tZtL9dYv_15tensor4all_core8defaults12tensordynlenNtB5_12TensorDynLenNtNtNtCskzPJi2J8k3N_4core3ops5arith3Mul3mul
FNDA:0,_RNvXs3_NtNtCs9q2tZtL9dYv_15tensor4all_core8defaults12tensordynlenRNtB5_12TensorDynLenINtNtNtCskzPJi2J8k3N_4core3ops5arith3MulB12_E3mul
FNDA:0,_RNvXs4_NtNtCs9q2tZtL9dYv_15tensor4all_core8defaults12tensordynlenNtB5_12TensorDynLenINtNtNtCskzPJi2J8k3N_4core3ops5arith3MulRB11_E3mul
FNDA:0,_RNvXsb_NtNtCs9q2tZtL9dYv_15tensor4all_core8defaults12tensordynlenNtB5_12TensorDynLenNtNtB9_12tensor_index11TensorIndex10replaceind
FNDA:0,_RNvXsb_NtNtCs9q2tZtL9dYv_15tensor4all_core8defaults12tensordynlenNtB5_12TensorDynLenNtNtB9_12tensor_index11TensorIndex11replaceinds
FNDA:0,_RNvXsb_NtNtCs9q2tZtL9dYv_15tensor4all_core8defaults12tensordynlenNtB5_12TensorDynLenNtNtB9_12tensor_index11TensorIndex16external_indices
FNDA:0,_RNvXsb_NtNtCs9q2tZtL9dYv_15tensor4all_core8defaults12tensordynlenNtB5_12TensorDynLenNtNtB9_12tensor_index11TensorIndex20num_external_indices
FNDA:0,_RNvXsc_NtNtCs9q2tZtL9dYv_15tensor4all_core8defaults12tensordynlenNtB5_12TensorDynLenNtNtB9_11tensor_like10TensorLike10direct_sum
FNDA:0,_RNvXsc_NtNtCs9q2tZtL9dYv_15tensor4all_core8defaults12tensordynlenNtB5_12TensorDynLenNtNtB9_11tensor_like10TensorLike10scalar_one
FNDA:0,_RNvXsc_NtNtCs9q2tZtL9dYv_15tensor4all_core8defaults12tensordynlenNtB5_12TensorDynLenNtNtB9_11tensor_like10TensorLike13outer_product
FNDA:0,_RNvXsc_NtNtCs9q2tZtL9dYv_15tensor4all_core8defaults12tensordynlenNtB5_12TensorDynLenNtNtB9_11tensor_like10TensorLike18contract_connected
FNDA:0,_RNvXsc_NtNtCs9q2tZtL9dYv_15tensor4all_core8defaults12tensordynlenNtB5_12TensorDynLenNtNtB9_11tensor_like10TensorLike4conj
FNDA:0,_RNvXsc_NtNtCs9q2tZtL9dYv_15tensor4all_core8defaults12tensordynlenNtB5_12TensorDynLenNtNtB9_11tensor_like10TensorLike4ones
FNDA:0,_RNvXsc_NtNtCs9q2tZtL9dYv_15tensor4all_core8defaults12tensordynlenNtB5_12TensorDynLenNtNtB9_11tensor_like10TensorLike8contract
FNDA:0,_RNvXsc_NtNtCs9q2tZtL9dYv_15tensor4all_core8defaults12tensordynlenNtB5_12TensorDynLenNtNtB9_11tensor_like10TensorLike8diagonal
FNDA:0,_RNvXsc_NtNtCs9q2tZtL9dYv_15tensor4all_core8defaults12tensordynlenNtB5_12TensorDynLenNtNtB9_11tensor_like10TensorLike9factorize
FNDA:0,_RNCNvMs5_NtNtCs9q2tZtL9dYv_15tensor4all_core8defaults12tensordynlenNtB7_12TensorDynLen3add0Bb_
FNDA:28,_RNCNvMs8_NtNtCs9q2tZtL9dYv_15tensor4all_core8defaults12tensordynlenNtB7_12TensorDynLen4conj0Bb_
FNDA:0,_RNCNvMs_NtNtCs9q2tZtL9dYv_15tensor4all_core8defaults12tensordynlenNtB6_12TensorDynLen13outer_product0Ba_
FNDA:25,_RNCNvMs_NtNtCs9q2tZtL9dYv_15tensor4all_core8defaults12tensordynlenNtB6_12TensorDynLen15permute_indices0Ba_
FNDA:324,_RNCNvMs_NtNtCs9q2tZtL9dYv_15tensor4all_core8defaults12tensordynlenNtB6_12TensorDynLen3new0Ba_
FNDA:0,_RNCNvMs_NtNtCs9q2tZtL9dYv_15tensor4all_core8defaults12tensordynlenNtB6_12TensorDynLen9tensordot0Ba_
FNDA:26,_RNCNvNtNtCs9q2tZtL9dYv_15tensor4all_core8defaults12tensordynlen32compute_permutation_from_indices0B7_
FNDA:10,_RNvMs5_NtNtCs9q2tZtL9dYv_15tensor4all_core8defaults12tensordynlenNtB5_12TensorDynLen13inner_product
FNDA:23,_RNvMs5_NtNtCs9q2tZtL9dYv_15tensor4all_core8defaults12tensordynlenNtB5_12TensorDynLen3add
FNDA:23,_RNvMs5_NtNtCs9q2tZtL9dYv_15tensor4all_core8defaults12tensordynlenNtB5_12TensorDynLen5axpby
FNDA:59,_RNvMs5_NtNtCs9q2tZtL9dYv_15tensor4all_core8defaults12tensordynlenNtB5_12TensorDynLen5scale
FNDA:28,_RNvMs8_NtNtCs9q2tZtL9dYv_15tensor4all_core8defaults12tensordynlenNtB5_12TensorDynLen4conj
FNDA:18,_RNvMs9_NtNtCs9q2tZtL9dYv_15tensor4all_core8defaults12tensordynlenNtB5_12TensorDynLen12norm_squared
FNDA:3,_RNvMs9_NtNtCs9q2tZtL9dYv_15tensor4all_core8defaults12tensordynlenNtB5_12TensorDynLen4norm
FNDA:5,_RNvMs_NtNtCs9q2tZtL9dYv_15tensor4all_core8defaults12tensordynlenNtB4_12TensorDynLen13outer_product
FNDA:24,_RNvMs_NtNtCs9q2tZtL9dYv_15tensor4all_core8defaults12tensordynlenNtB4_12TensorDynLen15permute_indices
FNDA:105,_RNvMs_NtNtCs9q2tZtL9dYv_15tensor4all_core8defaults12tensordynlenNtB4_12TensorDynLen19materialize_storage
FNDA:287,_RNvMs_NtNtCs9q2tZtL9dYv_15tensor4all_core8defaults12tensordynlenNtB4_12TensorDynLen3new
FNDA:28,_RNvMs_NtNtCs9q2tZtL9dYv_15tensor4all_core8defaults12tensordynlenNtB4_12TensorDynLen3sum
FNDA:237,_RNvMs_NtNtCs9q2tZtL9dYv_15tensor4all_core8defaults12tensordynlenNtB4_12TensorDynLen7storage
FNDA:18,_RNvMs_NtNtCs9q2tZtL9dYv_15tensor4all_core8defaults12tensordynlenNtB4_12TensorDynLen8contract
FNDA:20,_RNvMs_NtNtCs9q2tZtL9dYv_15tensor4all_core8defaults12tensordynlenNtB4_12TensorDynLen9tensordot
FNDA:24,_RNvNtNtCs9q2tZtL9dYv_15tensor4all_core8defaults12tensordynlen32compute_permutation_from_indices
FNDA:99,_RNvXs6_NtNtCs9q2tZtL9dYv_15tensor4all_core8defaults12tensordynlenNtB5_12TensorDynLenNtNtCskzPJi2J8k3N_4core5clone5Clone5clone
FNDA:0,_RNvXsa_NtNtCs9q2tZtL9dYv_15tensor4all_core8defaults12tensordynlenNtB5_12TensorDynLenNtNtCskzPJi2J8k3N_4core3fmt5Debug3fmt
FNDA:1,_RNvXsc_NtNtCs9q2tZtL9dYv_15tensor4all_core8defaults12tensordynlenNtB5_12TensorDynLenNtNtB9_11tensor_like10TensorLike11permuteinds
FNDA:15,_RNvXsc_NtNtCs9q2tZtL9dYv_15tensor4all_core8defaults12tensordynlenNtB5_12TensorDynLenNtNtB9_11tensor_like10TensorLike12norm_squared
FNDA:10,_RNvXsc_NtNtCs9q2tZtL9dYv_15tensor4all_core8defaults12tensordynlenNtB5_12TensorDynLenNtNtB9_11tensor_like10TensorLike13inner_product
FNDA:20,_RNvXsc_NtNtCs9q2tZtL9dYv_15tensor4all_core8defaults12tensordynlenNtB5_12TensorDynLenNtNtB9_11tensor_like10TensorLike5axpby
FNDA:12,_RNvXsc_NtNtCs9q2tZtL9dYv_15tensor4all_core8defaults12tensordynlenNtB5_12TensorDynLenNtNtB9_11tensor_like10TensorLike5scale
FNDA:3,_RINvMs0_NtNtCs55lPmkOpiMP_15tensor4all_core8defaults12tensordynlenNtB6_12TensorDynLen10random_c64NtNtCsjfquhaf4cXm_11rand_chacha6chacha10ChaCha8RngECsejdtHiUIaxk_17tensor4all_treetn
FNDA:0,_RINvMs0_NtNtCs55lPmkOpiMP_15tensor4all_core8defaults12tensordynlenNtB6_12TensorDynLen10random_c64NtNtNtCs1dzBk8Zm9GH_4rand4rngs6thread9ThreadRngECsejdtHiUIaxk_17tensor4all_treetn
FNDA:5,_RINvMs0_NtNtCs55lPmkOpiMP_15tensor4all_core8defaults12tensordynlenNtB6_12TensorDynLen10random_f64NtNtCsjfquhaf4cXm_11rand_chacha6chacha10ChaCha8RngECsejdtHiUIaxk_17tensor4all_treetn
FNDA:26,_RINvMs0_NtNtCs55lPmkOpiMP_15tensor4all_core8defaults12tensordynlenNtB6_12TensorDynLen10random_f64NtNtNtCs1dzBk8Zm9GH_4rand4rngs6thread9ThreadRngECsejdtHiUIaxk_17tensor4all_treetn
FNDA:7,_RNCINvMs0_NtNtCs55lPmkOpiMP_15tensor4all_core8defaults12tensordynlenNtB8_12TensorDynLen10random_c64NtNtCsjfquhaf4cXm_11rand_chacha6chacha10ChaCha8RngE0CsejdtHiUIaxk_17tensor4all_treetn
FNDA:0,_RNCINvMs0_NtNtCs55lPmkOpiMP_15tensor4all_core8defaults12tensordynlenNtB8_12TensorDynLen10random_c64NtNtNtCs1dzBk8Zm9GH_4rand4rngs6thread9ThreadRngE0CsejdtHiUIaxk_17tensor4all_treetn
FNDA:8,_RNCINvMs0_NtNtCs55lPmkOpiMP_15tensor4all_core8defaults12tensordynlenNtB8_12TensorDynLen10random_f64NtNtCsjfquhaf4cXm_11rand_chacha6chacha10ChaCha8RngE0CsejdtHiUIaxk_17tensor4all_treetn
FNDA:43,_RNCINvMs0_NtNtCs55lPmkOpiMP_15tensor4all_core8defaults12tensordynlenNtB8_12TensorDynLen10random_f64NtNtNtCs1dzBk8Zm9GH_4rand4rngs6thread9ThreadRngE0CsejdtHiUIaxk_17tensor4all_treetn
FNF:79
FNH:69
DA:45,1101
DA:46,1101
DA:47,1101
DA:48,1101
DA:49,1101
DA:50,1101
DA:51,1101
DA:52,0
DA:55,1101
DA:56,1101
DA:58,4376
DA:61,3277
DA:62,3277
DA:63,7461
DA:64,3277
DA:66,3277
DA:67,2
DA:68,3275
DA:69,3275
DA:70,3275
DA:73,1099
DA:74,1099
DA:104,66
DA:105,66
DA:106,66
DA:108,0
DA:111,0
DA:112,0
DA:121,15302
DA:122,15302
DA:123,15302
DA:124,15302
DA:125,1
DA:130,15301
DA:131,55373
DA:132,40074
DA:133,2
DA:134,40072
DA:139,15299
DA:140,576
DA:141,1157
DA:142,1157
DA:144,0
DA:148,14723
DA:151,40068
DA:152,15299
DA:154,15299
DA:155,15299
DA:156,15299
DA:157,15299
DA:158,15299
DA:159,15299
DA:168,1849
DA:169,4149
DA:170,1849
DA:171,1849
DA:174,1
DA:175,1
DA:176,1
DA:183,21509
DA:184,21509
DA:185,21509
DA:186,21509
DA:187,21509
DA:193,0
DA:194,0
DA:195,0
DA:201,1362
DA:202,1362
DA:203,1362
DA:205,0
DA:206,0
DA:208,1362
DA:211,1
DA:212,1
DA:213,1
DA:218,4524
DA:219,4524
DA:220,4524
DA:221,4524
DA:222,4524
DA:223,4524
DA:224,4524
DA:227,459
DA:228,459
DA:229,459
DA:232,1
DA:233,1
DA:234,1
DA:260,2
DA:261,2
DA:262,2
DA:263,2
DA:264,0
DA:265,0
DA:268,2
DA:269,2
DA:306,1095
DA:308,1095
DA:311,3261
DA:314,1095
DA:316,1095
DA:317,1095
DA:352,5
DA:353,5
DA:354,5
DA:355,5
DA:356,0
DA:360,12
DA:361,12
DA:364,5
DA:366,5
DA:367,5
DA:413,1009
DA:414,1009
DA:415,1009
DA:417,1009
DA:418,1009
DA:419,1009
DA:420,1009
DA:421,1009
DA:422,1009
DA:423,1009
DA:424,1009
DA:427,1009
DA:428,1009
DA:481,2214
DA:484,2214
DA:485,2214
DA:486,2214
DA:487,2214
DA:488,2214
DA:489,2214
DA:491,2214
DA:493,1
DA:495,1
DA:496,1
DA:497,1
DA:499,1
DA:500,1
DA:503,2
DA:504,2
DA:505,2
DA:506,2
DA:507,2
DA:508,2
DA:514,0
DA:515,0
DA:517,5
DA:519,2209
DA:520,2209
DA:521,2209
DA:522,2209
DA:523,2209
DA:524,2209
DA:525,2209
DA:526,2209
DA:529,2209
DA:530,2209
DA:531,2209
DA:532,2209
DA:533,2209
DA:534,2214
DA:575,31
DA:580,31
DA:581,31
DA:582,1
DA:583,1
DA:584,2
DA:585,1
DA:586,1
DA:587,1
DA:588,1
DA:589,1
DA:590,1
DA:591,1
DA:592,1
DA:593,30
DA:596,30
DA:597,30
DA:599,30
DA:600,30
DA:603,30
DA:604,30
DA:605,30
DA:606,30
DA:607,30
DA:608,30
DA:609,30
DA:610,30
DA:613,30
DA:614,31
DA:641,31
DA:642,51
DA:643,31
DA:644,31
DA:645,31
DA:646,31
DA:647,31
DA:648,31
DA:671,3
DA:672,7
DA:673,3
DA:674,3
DA:675,3
DA:676,3
DA:677,3
DA:678,3
DA:716,1
DA:717,1
DA:718,1
DA:727,1
DA:728,1
DA:729,1
DA:736,0
DA:737,0
DA:738,0
DA:745,0
DA:746,0
DA:747,0
DA:751,5
DA:752,5
DA:753,5
DA:794,244
DA:796,244
DA:797,0
DA:798,0
DA:799,0
DA:800,0
DA:801,0
DA:802,244
DA:805,244
DA:806,244
DA:808,244
DA:809,0
DA:810,0
DA:811,0
DA:812,244
DA:815,244
DA:818,244
DA:819,0
DA:820,0
DA:821,0
DA:822,0
DA:823,0
DA:824,244
DA:827,244
DA:828,244
DA:831,244
DA:832,244
DA:833,244
DA:834,244
DA:836,244
DA:837,244
DA:838,244
DA:839,244
DA:840,244
DA:841,244
DA:844,244
DA:846,244
DA:848,244
DA:850,244
DA:851,244
DA:854,730
DA:855,730
DA:856,730
DA:857,730
DA:858,730
DA:859,730
DA:860,730
DA:861,730
DA:862,730
DA:867,20
DA:869,20
DA:870,20
DA:871,20
DA:873,20
DA:874,20
DA:878,20920
DA:879,20920
DA:880,20920
DA:881,20920
DA:882,20920
DA:883,20920
DA:884,20920
DA:926,4499
DA:927,4499
DA:928,4499
DA:929,4499
DA:930,11566
DA:931,11566
DA:932,4498
DA:934,7068
DA:936,11566
DA:937,4499
DA:940,11566
DA:941,4499
DA:943,4499
DA:944,4499
DA:984,26
DA:985,26
DA:986,26
DA:987,26
DA:988,1
DA:992,25
DA:993,25
DA:995,25
DA:996,25
DA:997,25
DA:998,73
DA:999,73
DA:1000,71
DA:1002,2
DA:1004,73
DA:1005,25
DA:1008,73
DA:1009,25
DA:1011,25
DA:1012,25
DA:1046,898
DA:1050,1869
DA:1051,898
DA:1052,898
DA:1053,898
DA:1082,432
DA:1084,432
DA:1086,0
DA:1087,0
DA:1088,0
DA:1089,432
DA:1093,432
DA:1094,432
DA:1095,432
DA:1096,432
DA:1115,3
DA:1116,3
DA:1117,3
DA:1154,0
DA:1155,0
DA:1158,0
DA:1159,0
DA:1160,0
DA:1161,0
DA:1162,0
DA:1164,0
DA:1165,0
DA:1166,0
DA:1167,0
DA:1169,0
DA:1170,0
DA:1172,0
DA:1174,0
DA:1178,0
DA:1179,0
DA:1180,0
DA:1181,0
DA:1182,0
DA:1183,0
DA:1184,0
DA:1195,13
DA:1196,29
DA:1197,13
DA:1200,29
DA:1201,29
DA:1203,1
DA:1208,12
DA:1209,12
DA:1211,0
DA:1212,0
DA:1216,12
DA:1217,12
DA:1218,12
DA:1221,1
DA:1222,2
DA:1223,1
DA:1226,2
DA:1227,2
DA:1229,0
DA:1234,1
DA:1235,1
DA:1237,0
DA:1238,0
DA:1242,1
DA:1243,1
DA:1244,1
DA:1271,634
DA:1272,634
DA:1273,634
DA:1274,634
DA:1275,634
DA:1276,634
DA:1277,634
DA:1278,634
DA:1279,634
DA:1280,634
DA:1281,634
DA:1282,634
DA:1285,634
DA:1287,632
DA:1290,632
DA:1291,632
DA:1292,4
DA:1298,628
DA:1299,628
DA:1301,1289
DA:1302,661
DA:1303,661
DA:1304,0
DA:1306,661
DA:1310,628
DA:1311,2332
DA:1312,1704
DA:1313,1043
DA:1314,1043
DA:1318,628
DA:1319,628
DA:1320,628
DA:1323,628
DA:1326,628
DA:1327,628
DA:1330,628
DA:1331,628
DA:1333,628
DA:1334,628
DA:1335,628
DA:1336,628
DA:1337,628
DA:1338,628
DA:1339,628
DA:1340,628
DA:1341,634
DA:1352,25503
DA:1354,25503
DA:1355,25503
DA:1357,3376
DA:1358,3376
DA:1359,3376
DA:1361,3943
DA:1363,3943
DA:1364,3943
DA:1366,23
DA:1368,23
DA:1369,23
DA:1379,592
DA:1380,592
DA:1381,592
DA:1382,592
DA:1383,592
DA:1384,592
DA:1385,592
DA:1387,440
DA:1389,440
DA:1390,440
DA:1392,0
DA:1393,0
DA:1394,0
DA:1395,0
DA:1396,0
DA:1397,0
DA:1398,0
DA:1399,0
DA:1400,0
DA:1401,0
DA:1402,0
DA:1404,15
DA:1406,15
DA:1407,15
DA:1409,429
DA:1411,429
DA:1412,429
DA:1414,221
DA:1416,221
DA:1417,221
DA:1419,1899
DA:1421,1899
DA:1422,1899
DA:1424,0
DA:1426,0
DA:1427,0
DA:1429,241
DA:1431,241
DA:1432,241
DA:1434,241
DA:1436,241
DA:1437,241
DA:1439,20
DA:1441,20
DA:1442,20
DA:1444,7
DA:1447,7
DA:1448,7
DA:1449,1
DA:1450,1
DA:1451,1
DA:1452,1
DA:1453,1
DA:1454,6
DA:1457,6
DA:1458,14
DA:1459,14
DA:1460,14
DA:1462,6
DA:1463,6
DA:1464,6
DA:1465,6
DA:1466,6
DA:1467,6
DA:1468,7
DA:1470,1
DA:1472,1
DA:1473,1
DA:1474,1
DA:1476,14
DA:1478,14
DA:1479,0
DA:1480,14
DA:1481,14
DA:1482,14
DA:1483,14
DA:1484,14
DA:1485,14
DA:1486,14
DA:1487,14
DA:1488,14
BRF:0
BRH:0
LF:545
LH:463
end_of_record
SF:/Users/ken/git_for_collab4/tensor4all-rs/crates/tensor4all-core/src/global_default.rs
FN:71,_RNvMNtCs55lPmkOpiMP_15tensor4all_core14global_defaultNtB2_13GlobalDefault13set_unchecked
FN:49,_RNvMNtCs55lPmkOpiMP_15tensor4all_core14global_defaultNtB2_13GlobalDefault3get
FN:41,_RNvMNtCs55lPmkOpiMP_15tensor4all_core14global_defaultNtB2_13GlobalDefault3new
FN:58,_RNvMNtCs55lPmkOpiMP_15tensor4all_core14global_defaultNtB2_13GlobalDefault3set
FN:41,_RNvMNtCs9q2tZtL9dYv_15tensor4all_core14global_defaultNtB2_13GlobalDefault3new
FN:111,_RNvNtNtCs9q2tZtL9dYv_15tensor4all_core14global_default5testss_18test_error_display
FN:103,_RNvNtNtCs9q2tZtL9dYv_15tensor4all_core14global_default5testss_18test_set_unchecked
FN:84,_RNvNtNtCs9q2tZtL9dYv_15tensor4all_core14global_default5testss_19test_global_default
FN:94,_RNvNtNtCs9q2tZtL9dYv_15tensor4all_core14global_default5testss_19test_invalid_values
FN:71,_RNvMNtCs9q2tZtL9dYv_15tensor4all_core14global_defaultNtB2_13GlobalDefault13set_unchecked
FN:49,_RNvMNtCs9q2tZtL9dYv_15tensor4all_core14global_defaultNtB2_13GlobalDefault3get
FN:58,_RNvMNtCs9q2tZtL9dYv_15tensor4all_core14global_defaultNtB2_13GlobalDefault3set
FNDA:0,_RNvMNtCs55lPmkOpiMP_15tensor4all_core14global_defaultNtB2_13GlobalDefault13set_unchecked
FNDA:627,_RNvMNtCs55lPmkOpiMP_15tensor4all_core14global_defaultNtB2_13GlobalDefault3get
FNDA:0,_RNvMNtCs55lPmkOpiMP_15tensor4all_core14global_defaultNtB2_13GlobalDefault3new
FNDA:9,_RNvMNtCs55lPmkOpiMP_15tensor4all_core14global_defaultNtB2_13GlobalDefault3set
FNDA:0,_RNvMNtCs9q2tZtL9dYv_15tensor4all_core14global_defaultNtB2_13GlobalDefault3new
FNDA:1,_RNvNtNtCs9q2tZtL9dYv_15tensor4all_core14global_default5testss_18test_error_display
FNDA:1,_RNvNtNtCs9q2tZtL9dYv_15tensor4all_core14global_default5testss_18test_set_unchecked
FNDA:1,_RNvNtNtCs9q2tZtL9dYv_15tensor4all_core14global_default5testss_19test_global_default
FNDA:1,_RNvNtNtCs9q2tZtL9dYv_15tensor4all_core14global_default5testss_19test_invalid_values
FNDA:1,_RNvMNtCs9q2tZtL9dYv_15tensor4all_core14global_defaultNtB2_13GlobalDefault13set_unchecked
FNDA:3,_RNvMNtCs9q2tZtL9dYv_15tensor4all_core14global_defaultNtB2_13GlobalDefault3get
FNDA:4,_RNvMNtCs9q2tZtL9dYv_15tensor4all_core14global_defaultNtB2_13GlobalDefault3set
FNF:8
FNH:7
DA:41,0
DA:42,0
DA:43,0
DA:44,0
DA:45,0
DA:49,630
DA:50,630
DA:51,630
DA:58,13
DA:59,13
DA:60,6
DA:61,7
DA:62,7
DA:63,7
DA:64,13
DA:71,1
DA:72,1
DA:73,1
DA:84,1
DA:87,1
DA:89,1
DA:90,1
DA:91,1
DA:94,1
DA:97,1
DA:98,1
DA:99,1
DA:100,1
DA:103,1
DA:106,1
DA:107,1
DA:108,1
DA:111,1
DA:112,1
DA:113,1
DA:114,1
DA:115,1
DA:116,1
BRF:0
BRH:0
LF:38
LH:33
end_of_record
SF:/Users/ken/git_for_collab4/tensor4all-rs/crates/tensor4all-core/src/index_like.rs
FN:161,_RNvYINtNtNtCs55lPmkOpiMP_15tensor4all_core8defaults5index5IndexNtB5_5DynIdENtNtB9_10index_like9IndexLike7same_idCs6FYQWDJhh3O_5basic
FN:168,_RNvYpNtNtCs55lPmkOpiMP_15tensor4all_core10index_like9IndexLike6has_idB7_
FN:161,_RNvYpNtNtCs55lPmkOpiMP_15tensor4all_core10index_like9IndexLike7same_idB7_
FN:146,_RNvYINtNtNtCs55lPmkOpiMP_15tensor4all_core8defaults5index5IndexNtB5_5DynIdENtNtB9_10index_like9IndexLike15is_contractableB9_
FN:161,_RNvYINtNtNtCs55lPmkOpiMP_15tensor4all_core8defaults5index5IndexNtB5_5DynIdENtNtB9_10index_like9IndexLike7same_idCs39tLGjPagSU_28tensor4all_quanticstransform
FN:161,_RNvYINtNtNtCs55lPmkOpiMP_15tensor4all_core8defaults5index5IndexNtB5_5DynIdENtNtB9_10index_like9IndexLike7same_idCs3GGJ3tXgfXm_8linsolve
FN:161,_RNvYINtNtNtCs55lPmkOpiMP_15tensor4all_core8defaults5index5IndexNtB5_5DynIdENtNtB9_10index_like9IndexLike7same_idCsjwG9vXUec8I_22tensor4all_itensorlike
FN:146,_RNvYINtNtNtCs9q2tZtL9dYv_15tensor4all_core8defaults5index5IndexNtB5_5DynIdENtNtB9_10index_like9IndexLike15is_contractableB9_
FN:168,_RNvYINtNtNtCs9q2tZtL9dYv_15tensor4all_core8defaults5index5IndexNtB5_5DynIdENtNtB9_10index_like9IndexLike6has_idB9_
FN:161,_RNvYINtNtNtCs9q2tZtL9dYv_15tensor4all_core8defaults5index5IndexNtB5_5DynIdENtNtB9_10index_like9IndexLike7same_idB9_
FN:161,_RNvYINtNtNtCs55lPmkOpiMP_15tensor4all_core8defaults5index5IndexNtB5_5DynIdENtNtB9_10index_like9IndexLike7same_idCshTphA2Fw2hY_22tensor4all_itensorlike
FN:161,_RNvYINtNtNtCs55lPmkOpiMP_15tensor4all_core8defaults5index5IndexNtB5_5DynIdENtNtB9_10index_like9IndexLike7same_idCs32VN3SuUPFQ_28tensor4all_quanticstransform
FN:161,_RNvYINtNtNtCs55lPmkOpiMP_15tensor4all_core8defaults5index5IndexNtB5_5DynIdENtNtB9_10index_like9IndexLike7same_idCsejdtHiUIaxk_17tensor4all_treetn
FN:161,_RNvYINtNtNtCs55lPmkOpiMP_15tensor4all_core8defaults5index5IndexNtB5_5DynIdENtNtB9_10index_like9IndexLike7same_idCsipTgCgijCiH_11tensor_like
FNDA:196,_RNvYINtNtNtCs55lPmkOpiMP_15tensor4all_core8defaults5index5IndexNtB5_5DynIdENtNtB9_10index_like9IndexLike7same_idCs6FYQWDJhh3O_5basic
FNDA:0,_RNvYpNtNtCs55lPmkOpiMP_15tensor4all_core10index_like9IndexLike6has_idB7_
FNDA:0,_RNvYpNtNtCs55lPmkOpiMP_15tensor4all_core10index_like9IndexLike7same_idB7_
FNDA:63038,_RNvYINtNtNtCs55lPmkOpiMP_15tensor4all_core8defaults5index5IndexNtB5_5DynIdENtNtB9_10index_like9IndexLike15is_contractableB9_
FNDA:3232,_RNvYINtNtNtCs55lPmkOpiMP_15tensor4all_core8defaults5index5IndexNtB5_5DynIdENtNtB9_10index_like9IndexLike7same_idCs39tLGjPagSU_28tensor4all_quanticstransform
FNDA:1193,_RNvYINtNtNtCs55lPmkOpiMP_15tensor4all_core8defaults5index5IndexNtB5_5DynIdENtNtB9_10index_like9IndexLike7same_idCs3GGJ3tXgfXm_8linsolve
FNDA:4,_RNvYINtNtNtCs55lPmkOpiMP_15tensor4all_core8defaults5index5IndexNtB5_5DynIdENtNtB9_10index_like9IndexLike7same_idCsjwG9vXUec8I_22tensor4all_itensorlike
FNDA:279,_RNvYINtNtNtCs9q2tZtL9dYv_15tensor4all_core8defaults5index5IndexNtB5_5DynIdENtNtB9_10index_like9IndexLike15is_contractableB9_
FNDA:3,_RNvYINtNtNtCs9q2tZtL9dYv_15tensor4all_core8defaults5index5IndexNtB5_5DynIdENtNtB9_10index_like9IndexLike6has_idB9_
FNDA:3,_RNvYINtNtNtCs9q2tZtL9dYv_15tensor4all_core8defaults5index5IndexNtB5_5DynIdENtNtB9_10index_like9IndexLike7same_idB9_
FNDA:84,_RNvYINtNtNtCs55lPmkOpiMP_15tensor4all_core8defaults5index5IndexNtB5_5DynIdENtNtB9_10index_like9IndexLike7same_idCshTphA2Fw2hY_22tensor4all_itensorlike
FNDA:578,_RNvYINtNtNtCs55lPmkOpiMP_15tensor4all_core8defaults5index5IndexNtB5_5DynIdENtNtB9_10index_like9IndexLike7same_idCs32VN3SuUPFQ_28tensor4all_quanticstransform
FNDA:239,_RNvYINtNtNtCs55lPmkOpiMP_15tensor4all_core8defaults5index5IndexNtB5_5DynIdENtNtB9_10index_like9IndexLike7same_idCsejdtHiUIaxk_17tensor4all_treetn
FNDA:30,_RNvYINtNtNtCs55lPmkOpiMP_15tensor4all_core8defaults5index5IndexNtB5_5DynIdENtNtB9_10index_like9IndexLike7same_idCsipTgCgijCiH_11tensor_like
FNF:3
FNH:3
DA:146,63317
DA:147,63317
DA:148,51083
DA:149,12234
DA:150,12234
DA:151,0
DA:152,12234
DA:153,0
DA:155,63317
DA:161,5559
DA:162,5559
DA:163,5559
DA:168,3
DA:169,3
DA:170,3
BRF:0
BRH:0
LF:15
LH:13
end_of_record
SF:/Users/ken/git_for_collab4/tensor4all-rs/crates/tensor4all-core/src/index_ops.rs
FN:470,_RINvNtCs55lPmkOpiMP_15tensor4all_core9index_ops11common_indsINtNtNtB4_8defaults5index5IndexNtBZ_5DynIdEECs6FYQWDJhh3O_5basic
FN:471,_RNCINvNtCs55lPmkOpiMP_15tensor4all_core9index_ops11common_indsINtNtNtB6_8defaults5index5IndexNtB11_5DynIdEE0Cs6FYQWDJhh3O_5basic
FN:474,_RNCINvNtCs55lPmkOpiMP_15tensor4all_core9index_ops11common_indsINtNtNtB6_8defaults5index5IndexNtB11_5DynIdEEs_0Cs6FYQWDJhh3O_5basic
FN:335,_RINvNtCs55lPmkOpiMP_15tensor4all_core9index_ops10union_indspEB4_
FN:470,_RINvNtCs55lPmkOpiMP_15tensor4all_core9index_ops11common_indspEB4_
FN:117,_RINvNtCs55lPmkOpiMP_15tensor4all_core9index_ops11replaceindspEB4_
FN:243,_RINvNtCs55lPmkOpiMP_15tensor4all_core9index_ops11unique_indspEB4_
FN:435,_RINvNtCs55lPmkOpiMP_15tensor4all_core9index_ops13hascommonindspEB4_
FN:282,_RINvNtCs55lPmkOpiMP_15tensor4all_core9index_ops14noncommon_indspEB4_
FN:69,_RINvNtCs55lPmkOpiMP_15tensor4all_core9index_ops20check_unique_indicespEB4_
FN:183,_RINvNtCs55lPmkOpiMP_15tensor4all_core9index_ops20replaceinds_in_placepEB4_
FN:376,_RINvNtCs55lPmkOpiMP_15tensor4all_core9index_ops6hasindpEB4_
FN:404,_RINvNtCs55lPmkOpiMP_15tensor4all_core9index_ops7hasindspEB4_
FN:471,_RNCINvNtCs55lPmkOpiMP_15tensor4all_core9index_ops11common_indspE0B6_
FN:474,_RNCINvNtCs55lPmkOpiMP_15tensor4all_core9index_ops11common_indspEs_0B6_
FN:244,_RNCINvNtCs55lPmkOpiMP_15tensor4all_core9index_ops11unique_indspE0B6_
FN:247,_RNCINvNtCs55lPmkOpiMP_15tensor4all_core9index_ops11unique_indspEs_0B6_
FN:436,_RNCINvNtCs55lPmkOpiMP_15tensor4all_core9index_ops13hascommonindspE0B6_
FN:437,_RNCINvNtCs55lPmkOpiMP_15tensor4all_core9index_ops13hascommonindspEs_0B6_
FN:283,_RNCINvNtCs55lPmkOpiMP_15tensor4all_core9index_ops14noncommon_indspE0B6_
FN:293,_RNCINvNtCs55lPmkOpiMP_15tensor4all_core9index_ops14noncommon_indspEs0_0B6_
FN:300,_RNCINvNtCs55lPmkOpiMP_15tensor4all_core9index_ops14noncommon_indspEs1_0B6_
FN:284,_RNCINvNtCs55lPmkOpiMP_15tensor4all_core9index_ops14noncommon_indspEs_0B6_
FN:377,_RNCINvNtCs55lPmkOpiMP_15tensor4all_core9index_ops6hasindpE0B6_
FN:405,_RNCINvNtCs55lPmkOpiMP_15tensor4all_core9index_ops7hasindspE0B6_
FN:406,_RNCINvNtCs55lPmkOpiMP_15tensor4all_core9index_ops7hasindspEs_0B6_
FN:23,_RNvXNtCs55lPmkOpiMP_15tensor4all_core9index_opsNtB2_16ReplaceIndsErrorNtNtCskzPJi2J8k3N_4core3fmt7Display3fmt
FN:551,_RNvXs0_NtCs55lPmkOpiMP_15tensor4all_core9index_opsNtB5_16ContractionErrorNtNtCskzPJi2J8k3N_4core3fmt7Display3fmt
FN:607,_RINvNtCs55lPmkOpiMP_15tensor4all_core9index_ops19prepare_contractionINtNtNtB4_8defaults5index5IndexNtB17_5DynIdEEB4_
FN:500,_RINvNtCs55lPmkOpiMP_15tensor4all_core9index_ops20common_ind_positionsINtNtNtB4_8defaults5index5IndexNtB18_5DynIdEEB4_
FN:689,_RINvNtCs55lPmkOpiMP_15tensor4all_core9index_ops25prepare_contraction_pairsINtNtNtB4_8defaults5index5IndexNtB1d_5DynIdEEB4_
FN:703,_RNCINvNtCs55lPmkOpiMP_15tensor4all_core9index_ops25prepare_contraction_pairsINtNtNtB6_8defaults5index5IndexNtB1f_5DynIdEE0B6_
FN:722,_RNCINvNtCs55lPmkOpiMP_15tensor4all_core9index_ops25prepare_contraction_pairsINtNtNtB6_8defaults5index5IndexNtB1f_5DynIdEEs0_0B6_
FN:727,_RNCINvNtCs55lPmkOpiMP_15tensor4all_core9index_ops25prepare_contraction_pairsINtNtNtB6_8defaults5index5IndexNtB1f_5DynIdEEs1_0B6_
FN:704,_RNCINvNtCs55lPmkOpiMP_15tensor4all_core9index_ops25prepare_contraction_pairsINtNtNtB6_8defaults5index5IndexNtB1f_5DynIdEEs_0B6_
FN:117,_RINvNtCs55lPmkOpiMP_15tensor4all_core9index_ops11replaceindsINtNtNtB4_8defaults5index5IndexNtBZ_5DynIdEECshYkvt4Pgxdq_24common_duplicate_indices
FN:69,_RINvNtCs55lPmkOpiMP_15tensor4all_core9index_ops20check_unique_indicesINtNtNtB4_8defaults5index5IndexNtB18_5DynIdEECshYkvt4Pgxdq_24common_duplicate_indices
FN:335,_RINvNtCs55lPmkOpiMP_15tensor4all_core9index_ops10union_indsINtNtNtB4_8defaults5index5IndexNtBY_5DynIdEECs4WtaOiHqeOe_16common_index_ops
FN:470,_RINvNtCs55lPmkOpiMP_15tensor4all_core9index_ops11common_indsINtNtNtB4_8defaults5index5IndexNtBZ_5DynIdEECs4WtaOiHqeOe_16common_index_ops
FN:117,_RINvNtCs55lPmkOpiMP_15tensor4all_core9index_ops11replaceindsINtNtNtB4_8defaults5index5IndexNtBZ_5DynIdEECs4WtaOiHqeOe_16common_index_ops
FN:243,_RINvNtCs55lPmkOpiMP_15tensor4all_core9index_ops11unique_indsINtNtNtB4_8defaults5index5IndexNtBZ_5DynIdEECs4WtaOiHqeOe_16common_index_ops
FN:435,_RINvNtCs55lPmkOpiMP_15tensor4all_core9index_ops13hascommonindsINtNtNtB4_8defaults5index5IndexNtB11_5DynIdEECs4WtaOiHqeOe_16common_index_ops
FN:282,_RINvNtCs55lPmkOpiMP_15tensor4all_core9index_ops14noncommon_indsINtNtNtB4_8defaults5index5IndexNtB12_5DynIdEECs4WtaOiHqeOe_16common_index_ops
FN:69,_RINvNtCs55lPmkOpiMP_15tensor4all_core9index_ops20check_unique_indicesINtNtNtB4_8defaults5index5IndexNtB18_5DynIdEECs4WtaOiHqeOe_16common_index_ops
FN:183,_RINvNtCs55lPmkOpiMP_15tensor4all_core9index_ops20replaceinds_in_placeINtNtNtB4_8defaults5index5IndexNtB18_5DynIdEECs4WtaOiHqeOe_16common_index_ops
FN:376,_RINvNtCs55lPmkOpiMP_15tensor4all_core9index_ops6hasindINtNtNtB4_8defaults5index5IndexNtBT_5DynIdEECs4WtaOiHqeOe_16common_index_ops
FN:404,_RINvNtCs55lPmkOpiMP_15tensor4all_core9index_ops7hasindsINtNtNtB4_8defaults5index5IndexNtBU_5DynIdEECs4WtaOiHqeOe_16common_index_ops
FN:471,_RNCINvNtCs55lPmkOpiMP_15tensor4all_core9index_ops11common_indsINtNtNtB6_8defaults5index5IndexNtB11_5DynIdEE0Cs4WtaOiHqeOe_16common_index_ops
FN:474,_RNCINvNtCs55lPmkOpiMP_15tensor4all_core9index_ops11common_indsINtNtNtB6_8defaults5index5IndexNtB11_5DynIdEEs_0Cs4WtaOiHqeOe_16common_index_ops
FN:244,_RNCINvNtCs55lPmkOpiMP_15tensor4all_core9index_ops11unique_indsINtNtNtB6_8defaults5index5IndexNtB11_5DynIdEE0Cs4WtaOiHqeOe_16common_index_ops
FN:247,_RNCINvNtCs55lPmkOpiMP_15tensor4all_core9index_ops11unique_indsINtNtNtB6_8defaults5index5IndexNtB11_5DynIdEEs_0Cs4WtaOiHqeOe_16common_index_ops
FN:436,_RNCINvNtCs55lPmkOpiMP_15tensor4all_core9index_ops13hascommonindsINtNtNtB6_8defaults5index5IndexNtB13_5DynIdEE0Cs4WtaOiHqeOe_16common_index_ops
FN:437,_RNCINvNtCs55lPmkOpiMP_15tensor4all_core9index_ops13hascommonindsINtNtNtB6_8defaults5index5IndexNtB13_5DynIdEEs_0Cs4WtaOiHqeOe_16common_index_ops
FN:283,_RNCINvNtCs55lPmkOpiMP_15tensor4all_core9index_ops14noncommon_indsINtNtNtB6_8defaults5index5IndexNtB14_5DynIdEE0Cs4WtaOiHqeOe_16common_index_ops
FN:293,_RNCINvNtCs55lPmkOpiMP_15tensor4all_core9index_ops14noncommon_indsINtNtNtB6_8defaults5index5IndexNtB14_5DynIdEEs0_0Cs4WtaOiHqeOe_16common_index_ops
FN:300,_RNCINvNtCs55lPmkOpiMP_15tensor4all_core9index_ops14noncommon_indsINtNtNtB6_8defaults5index5IndexNtB14_5DynIdEEs1_0Cs4WtaOiHqeOe_16common_index_ops
FN:284,_RNCINvNtCs55lPmkOpiMP_15tensor4all_core9index_ops14noncommon_indsINtNtNtB6_8defaults5index5IndexNtB14_5DynIdEEs_0Cs4WtaOiHqeOe_16common_index_ops
FN:377,_RNCINvNtCs55lPmkOpiMP_15tensor4all_core9index_ops6hasindINtNtNtB6_8defaults5index5IndexNtBV_5DynIdEE0Cs4WtaOiHqeOe_16common_index_ops
FN:405,_RNCINvNtCs55lPmkOpiMP_15tensor4all_core9index_ops7hasindsINtNtNtB6_8defaults5index5IndexNtBW_5DynIdEE0Cs4WtaOiHqeOe_16common_index_ops
FN:406,_RNCINvNtCs55lPmkOpiMP_15tensor4all_core9index_ops7hasindsINtNtNtB6_8defaults5index5IndexNtBW_5DynIdEEs_0Cs4WtaOiHqeOe_16common_index_ops
FN:470,_RINvNtCs55lPmkOpiMP_15tensor4all_core9index_ops11common_indsINtNtNtB4_8defaults5index5IndexNtBZ_5DynIdEECsjwG9vXUec8I_22tensor4all_itensorlike
FN:435,_RINvNtCs55lPmkOpiMP_15tensor4all_core9index_ops13hascommonindsINtNtNtB4_8defaults5index5IndexNtB11_5DynIdEECsjwG9vXUec8I_22tensor4all_itensorlike
FN:471,_RNCINvNtCs55lPmkOpiMP_15tensor4all_core9index_ops11common_indsINtNtNtB6_8defaults5index5IndexNtB11_5DynIdEE0CsjwG9vXUec8I_22tensor4all_itensorlike
FN:474,_RNCINvNtCs55lPmkOpiMP_15tensor4all_core9index_ops11common_indsINtNtNtB6_8defaults5index5IndexNtB11_5DynIdEEs_0CsjwG9vXUec8I_22tensor4all_itensorlike
FN:436,_RNCINvNtCs55lPmkOpiMP_15tensor4all_core9index_ops13hascommonindsINtNtNtB6_8defaults5index5IndexNtB13_5DynIdEE0CsjwG9vXUec8I_22tensor4all_itensorlike
FN:437,_RNCINvNtCs55lPmkOpiMP_15tensor4all_core9index_ops13hascommonindsINtNtNtB6_8defaults5index5IndexNtB13_5DynIdEEs_0CsjwG9vXUec8I_22tensor4all_itensorlike
FN:335,_RINvNtCs9q2tZtL9dYv_15tensor4all_core9index_ops10union_indspEB4_
FN:470,_RINvNtCs9q2tZtL9dYv_15tensor4all_core9index_ops11common_indspEB4_
FN:117,_RINvNtCs9q2tZtL9dYv_15tensor4all_core9index_ops11replaceindspEB4_
FN:243,_RINvNtCs9q2tZtL9dYv_15tensor4all_core9index_ops11unique_indspEB4_
FN:435,_RINvNtCs9q2tZtL9dYv_15tensor4all_core9index_ops13hascommonindspEB4_
FN:282,_RINvNtCs9q2tZtL9dYv_15tensor4all_core9index_ops14noncommon_indspEB4_
FN:69,_RINvNtCs9q2tZtL9dYv_15tensor4all_core9index_ops20check_unique_indicespEB4_
FN:183,_RINvNtCs9q2tZtL9dYv_15tensor4all_core9index_ops20replaceinds_in_placepEB4_
FN:376,_RINvNtCs9q2tZtL9dYv_15tensor4all_core9index_ops6hasindpEB4_
FN:404,_RINvNtCs9q2tZtL9dYv_15tensor4all_core9index_ops7hasindspEB4_
FN:471,_RNCINvNtCs9q2tZtL9dYv_15tensor4all_core9index_ops11common_indspE0B6_
FN:474,_RNCINvNtCs9q2tZtL9dYv_15tensor4all_core9index_ops11common_indspEs_0B6_
FN:244,_RNCINvNtCs9q2tZtL9dYv_15tensor4all_core9index_ops11unique_indspE0B6_
FN:247,_RNCINvNtCs9q2tZtL9dYv_15tensor4all_core9index_ops11unique_indspEs_0B6_
FN:436,_RNCINvNtCs9q2tZtL9dYv_15tensor4all_core9index_ops13hascommonindspE0B6_
FN:437,_RNCINvNtCs9q2tZtL9dYv_15tensor4all_core9index_ops13hascommonindspEs_0B6_
FN:283,_RNCINvNtCs9q2tZtL9dYv_15tensor4all_core9index_ops14noncommon_indspE0B6_
FN:293,_RNCINvNtCs9q2tZtL9dYv_15tensor4all_core9index_ops14noncommon_indspEs0_0B6_
FN:300,_RNCINvNtCs9q2tZtL9dYv_15tensor4all_core9index_ops14noncommon_indspEs1_0B6_
FN:284,_RNCINvNtCs9q2tZtL9dYv_15tensor4all_core9index_ops14noncommon_indspEs_0B6_
FN:377,_RNCINvNtCs9q2tZtL9dYv_15tensor4all_core9index_ops6hasindpE0B6_
FN:405,_RNCINvNtCs9q2tZtL9dYv_15tensor4all_core9index_ops7hasindspE0B6_
FN:406,_RNCINvNtCs9q2tZtL9dYv_15tensor4all_core9index_ops7hasindspEs_0B6_
FN:23,_RNvXNtCs9q2tZtL9dYv_15tensor4all_core9index_opsNtB2_16ReplaceIndsErrorNtNtCskzPJi2J8k3N_4core3fmt7Display3fmt
FN:551,_RNvXs0_NtCs9q2tZtL9dYv_15tensor4all_core9index_opsNtB5_16ContractionErrorNtNtCskzPJi2J8k3N_4core3fmt7Display3fmt
FN:607,_RINvNtCs9q2tZtL9dYv_15tensor4all_core9index_ops19prepare_contractionINtNtNtB4_8defaults5index5IndexNtB17_5DynIdEEB4_
FN:500,_RINvNtCs9q2tZtL9dYv_15tensor4all_core9index_ops20common_ind_positionsINtNtNtB4_8defaults5index5IndexNtB18_5DynIdEEB4_
FN:689,_RINvNtCs9q2tZtL9dYv_15tensor4all_core9index_ops25prepare_contraction_pairsINtNtNtB4_8defaults5index5IndexNtB1d_5DynIdEEB4_
FN:703,_RNCINvNtCs9q2tZtL9dYv_15tensor4all_core9index_ops25prepare_contraction_pairsINtNtNtB6_8defaults5index5IndexNtB1f_5DynIdEE0B6_
FN:722,_RNCINvNtCs9q2tZtL9dYv_15tensor4all_core9index_ops25prepare_contraction_pairsINtNtNtB6_8defaults5index5IndexNtB1f_5DynIdEEs0_0B6_
FN:727,_RNCINvNtCs9q2tZtL9dYv_15tensor4all_core9index_ops25prepare_contraction_pairsINtNtNtB6_8defaults5index5IndexNtB1f_5DynIdEEs1_0B6_
FN:704,_RNCINvNtCs9q2tZtL9dYv_15tensor4all_core9index_ops25prepare_contraction_pairsINtNtNtB6_8defaults5index5IndexNtB1f_5DynIdEEs_0B6_
FN:470,_RINvNtCs55lPmkOpiMP_15tensor4all_core9index_ops11common_indsINtNtNtB4_8defaults5index5IndexNtBZ_5DynIdEECshTphA2Fw2hY_22tensor4all_itensorlike
FN:471,_RNCINvNtCs55lPmkOpiMP_15tensor4all_core9index_ops11common_indsINtNtNtB6_8defaults5index5IndexNtB11_5DynIdEE0CshTphA2Fw2hY_22tensor4all_itensorlike
FN:474,_RNCINvNtCs55lPmkOpiMP_15tensor4all_core9index_ops11common_indsINtNtNtB6_8defaults5index5IndexNtB11_5DynIdEEs_0CshTphA2Fw2hY_22tensor4all_itensorlike
FN:470,_RINvNtCs55lPmkOpiMP_15tensor4all_core9index_ops11common_indsINtNtNtB4_8defaults5index5IndexNtBZ_5DynIdEECshdHF2bmlAcf_18tensor_contraction
FN:471,_RNCINvNtCs55lPmkOpiMP_15tensor4all_core9index_ops11common_indsINtNtNtB6_8defaults5index5IndexNtB11_5DynIdEE0CshdHF2bmlAcf_18tensor_contraction
FN:474,_RNCINvNtCs55lPmkOpiMP_15tensor4all_core9index_ops11common_indsINtNtNtB6_8defaults5index5IndexNtB11_5DynIdEEs_0CshdHF2bmlAcf_18tensor_contraction
FNDA:6,_RINvNtCs55lPmkOpiMP_15tensor4all_core9index_ops11common_indsINtNtNtB4_8defaults5index5IndexNtBZ_5DynIdEECs6FYQWDJhh3O_5basic
FNDA:23,_RNCINvNtCs55lPmkOpiMP_15tensor4all_core9index_ops11common_indsINtNtNtB6_8defaults5index5IndexNtB11_5DynIdEE0Cs6FYQWDJhh3O_5basic
FNDA:17,_RNCINvNtCs55lPmkOpiMP_15tensor4all_core9index_ops11common_indsINtNtNtB6_8defaults5index5IndexNtB11_5DynIdEEs_0Cs6FYQWDJhh3O_5basic
FNDA:0,_RINvNtCs55lPmkOpiMP_15tensor4all_core9index_ops10union_indspEB4_
FNDA:0,_RINvNtCs55lPmkOpiMP_15tensor4all_core9index_ops11common_indspEB4_
FNDA:0,_RINvNtCs55lPmkOpiMP_15tensor4all_core9index_ops11replaceindspEB4_
FNDA:0,_RINvNtCs55lPmkOpiMP_15tensor4all_core9index_ops11unique_indspEB4_
FNDA:0,_RINvNtCs55lPmkOpiMP_15tensor4all_core9index_ops13hascommonindspEB4_
FNDA:0,_RINvNtCs55lPmkOpiMP_15tensor4all_core9index_ops14noncommon_indspEB4_
FNDA:0,_RINvNtCs55lPmkOpiMP_15tensor4all_core9index_ops20check_unique_indicespEB4_
FNDA:0,_RINvNtCs55lPmkOpiMP_15tensor4all_core9index_ops20replaceinds_in_placepEB4_
FNDA:0,_RINvNtCs55lPmkOpiMP_15tensor4all_core9index_ops6hasindpEB4_
FNDA:0,_RINvNtCs55lPmkOpiMP_15tensor4all_core9index_ops7hasindspEB4_
FNDA:0,_RNCINvNtCs55lPmkOpiMP_15tensor4all_core9index_ops11common_indspE0B6_
FNDA:0,_RNCINvNtCs55lPmkOpiMP_15tensor4all_core9index_ops11common_indspEs_0B6_
FNDA:0,_RNCINvNtCs55lPmkOpiMP_15tensor4all_core9index_ops11unique_indspE0B6_
FNDA:0,_RNCINvNtCs55lPmkOpiMP_15tensor4all_core9index_ops11unique_indspEs_0B6_
FNDA:0,_RNCINvNtCs55lPmkOpiMP_15tensor4all_core9index_ops13hascommonindspE0B6_
FNDA:0,_RNCINvNtCs55lPmkOpiMP_15tensor4all_core9index_ops13hascommonindspEs_0B6_
FNDA:0,_RNCINvNtCs55lPmkOpiMP_15tensor4all_core9index_ops14noncommon_indspE0B6_
FNDA:0,_RNCINvNtCs55lPmkOpiMP_15tensor4all_core9index_ops14noncommon_indspEs0_0B6_
FNDA:0,_RNCINvNtCs55lPmkOpiMP_15tensor4all_core9index_ops14noncommon_indspEs1_0B6_
FNDA:0,_RNCINvNtCs55lPmkOpiMP_15tensor4all_core9index_ops14noncommon_indspEs_0B6_
FNDA:0,_RNCINvNtCs55lPmkOpiMP_15tensor4all_core9index_ops6hasindpE0B6_
FNDA:0,_RNCINvNtCs55lPmkOpiMP_15tensor4all_core9index_ops7hasindspE0B6_
FNDA:0,_RNCINvNtCs55lPmkOpiMP_15tensor4all_core9index_ops7hasindspEs_0B6_
FNDA:0,_RNvXNtCs55lPmkOpiMP_15tensor4all_core9index_opsNtB2_16ReplaceIndsErrorNtNtCskzPJi2J8k3N_4core3fmt7Display3fmt
FNDA:0,_RNvXs0_NtCs55lPmkOpiMP_15tensor4all_core9index_opsNtB5_16ContractionErrorNtNtCskzPJi2J8k3N_4core3fmt7Display3fmt
FNDA:991,_RINvNtCs55lPmkOpiMP_15tensor4all_core9index_ops19prepare_contractionINtNtNtB4_8defaults5index5IndexNtB17_5DynIdEEB4_
FNDA:3210,_RINvNtCs55lPmkOpiMP_15tensor4all_core9index_ops20common_ind_positionsINtNtNtB4_8defaults5index5IndexNtB18_5DynIdEEB4_
FNDA:2194,_RINvNtCs55lPmkOpiMP_15tensor4all_core9index_ops25prepare_contraction_pairsINtNtNtB4_8defaults5index5IndexNtB1d_5DynIdEEB4_
FNDA:2753,_RNCINvNtCs55lPmkOpiMP_15tensor4all_core9index_ops25prepare_contraction_pairsINtNtNtB6_8defaults5index5IndexNtB1f_5DynIdEE0B6_
FNDA:5714,_RNCINvNtCs55lPmkOpiMP_15tensor4all_core9index_ops25prepare_contraction_pairsINtNtNtB6_8defaults5index5IndexNtB1f_5DynIdEEs0_0B6_
FNDA:5299,_RNCINvNtCs55lPmkOpiMP_15tensor4all_core9index_ops25prepare_contraction_pairsINtNtNtB6_8defaults5index5IndexNtB1f_5DynIdEEs1_0B6_
FNDA:2753,_RNCINvNtCs55lPmkOpiMP_15tensor4all_core9index_ops25prepare_contraction_pairsINtNtNtB6_8defaults5index5IndexNtB1f_5DynIdEEs_0B6_
FNDA:2,_RINvNtCs55lPmkOpiMP_15tensor4all_core9index_ops11replaceindsINtNtNtB4_8defaults5index5IndexNtBZ_5DynIdEECshYkvt4Pgxdq_24common_duplicate_indices
FNDA:5,_RINvNtCs55lPmkOpiMP_15tensor4all_core9index_ops20check_unique_indicesINtNtNtB4_8defaults5index5IndexNtB18_5DynIdEECshYkvt4Pgxdq_24common_duplicate_indices
FNDA:1,_RINvNtCs55lPmkOpiMP_15tensor4all_core9index_ops10union_indsINtNtNtB4_8defaults5index5IndexNtBY_5DynIdEECs4WtaOiHqeOe_16common_index_ops
FNDA:1,_RINvNtCs55lPmkOpiMP_15tensor4all_core9index_ops11common_indsINtNtNtB4_8defaults5index5IndexNtBZ_5DynIdEECs4WtaOiHqeOe_16common_index_ops
FNDA:4,_RINvNtCs55lPmkOpiMP_15tensor4all_core9index_ops11replaceindsINtNtNtB4_8defaults5index5IndexNtBZ_5DynIdEECs4WtaOiHqeOe_16common_index_ops
FNDA:1,_RINvNtCs55lPmkOpiMP_15tensor4all_core9index_ops11unique_indsINtNtNtB4_8defaults5index5IndexNtBZ_5DynIdEECs4WtaOiHqeOe_16common_index_ops
FNDA:3,_RINvNtCs55lPmkOpiMP_15tensor4all_core9index_ops13hascommonindsINtNtNtB4_8defaults5index5IndexNtB11_5DynIdEECs4WtaOiHqeOe_16common_index_ops
FNDA:1,_RINvNtCs55lPmkOpiMP_15tensor4all_core9index_ops14noncommon_indsINtNtNtB4_8defaults5index5IndexNtB12_5DynIdEECs4WtaOiHqeOe_16common_index_ops
FNDA:10,_RINvNtCs55lPmkOpiMP_15tensor4all_core9index_ops20check_unique_indicesINtNtNtB4_8defaults5index5IndexNtB18_5DynIdEECs4WtaOiHqeOe_16common_index_ops
FNDA:2,_RINvNtCs55lPmkOpiMP_15tensor4all_core9index_ops20replaceinds_in_placeINtNtNtB4_8defaults5index5IndexNtB18_5DynIdEECs4WtaOiHqeOe_16common_index_ops
FNDA:3,_RINvNtCs55lPmkOpiMP_15tensor4all_core9index_ops6hasindINtNtNtB4_8defaults5index5IndexNtBT_5DynIdEECs4WtaOiHqeOe_16common_index_ops
FNDA:4,_RINvNtCs55lPmkOpiMP_15tensor4all_core9index_ops7hasindsINtNtNtB4_8defaults5index5IndexNtBU_5DynIdEECs4WtaOiHqeOe_16common_index_ops
FNDA:2,_RNCINvNtCs55lPmkOpiMP_15tensor4all_core9index_ops11common_indsINtNtNtB6_8defaults5index5IndexNtB11_5DynIdEE0Cs4WtaOiHqeOe_16common_index_ops
FNDA:2,_RNCINvNtCs55lPmkOpiMP_15tensor4all_core9index_ops11common_indsINtNtNtB6_8defaults5index5IndexNtB11_5DynIdEEs_0Cs4WtaOiHqeOe_16common_index_ops
FNDA:2,_RNCINvNtCs55lPmkOpiMP_15tensor4all_core9index_ops11unique_indsINtNtNtB6_8defaults5index5IndexNtB11_5DynIdEE0Cs4WtaOiHqeOe_16common_index_ops
FNDA:2,_RNCINvNtCs55lPmkOpiMP_15tensor4all_core9index_ops11unique_indsINtNtNtB6_8defaults5index5IndexNtB11_5DynIdEEs_0Cs4WtaOiHqeOe_16common_index_ops
FNDA:6,_RNCINvNtCs55lPmkOpiMP_15tensor4all_core9index_ops13hascommonindsINtNtNtB6_8defaults5index5IndexNtB13_5DynIdEE0Cs4WtaOiHqeOe_16common_index_ops
FNDA:6,_RNCINvNtCs55lPmkOpiMP_15tensor4all_core9index_ops13hascommonindsINtNtNtB6_8defaults5index5IndexNtB13_5DynIdEEs_0Cs4WtaOiHqeOe_16common_index_ops
FNDA:2,_RNCINvNtCs55lPmkOpiMP_15tensor4all_core9index_ops14noncommon_indsINtNtNtB6_8defaults5index5IndexNtB14_5DynIdEE0Cs4WtaOiHqeOe_16common_index_ops
FNDA:2,_RNCINvNtCs55lPmkOpiMP_15tensor4all_core9index_ops14noncommon_indsINtNtNtB6_8defaults5index5IndexNtB14_5DynIdEEs0_0Cs4WtaOiHqeOe_16common_index_ops
FNDA:2,_RNCINvNtCs55lPmkOpiMP_15tensor4all_core9index_ops14noncommon_indsINtNtNtB6_8defaults5index5IndexNtB14_5DynIdEEs1_0Cs4WtaOiHqeOe_16common_index_ops
FNDA:2,_RNCINvNtCs55lPmkOpiMP_15tensor4all_core9index_ops14noncommon_indsINtNtNtB6_8defaults5index5IndexNtB14_5DynIdEEs_0Cs4WtaOiHqeOe_16common_index_ops
FNDA:5,_RNCINvNtCs55lPmkOpiMP_15tensor4all_core9index_ops6hasindINtNtNtB6_8defaults5index5IndexNtBV_5DynIdEE0Cs4WtaOiHqeOe_16common_index_ops
FNDA:12,_RNCINvNtCs55lPmkOpiMP_15tensor4all_core9index_ops7hasindsINtNtNtB6_8defaults5index5IndexNtBW_5DynIdEE0Cs4WtaOiHqeOe_16common_index_ops
FNDA:8,_RNCINvNtCs55lPmkOpiMP_15tensor4all_core9index_ops7hasindsINtNtNtB6_8defaults5index5IndexNtBW_5DynIdEEs_0Cs4WtaOiHqeOe_16common_index_ops
FNDA:2,_RINvNtCs55lPmkOpiMP_15tensor4all_core9index_ops11common_indsINtNtNtB4_8defaults5index5IndexNtBZ_5DynIdEECsjwG9vXUec8I_22tensor4all_itensorlike
FNDA:0,_RINvNtCs55lPmkOpiMP_15tensor4all_core9index_ops13hascommonindsINtNtNtB4_8defaults5index5IndexNtB11_5DynIdEECsjwG9vXUec8I_22tensor4all_itensorlike
FNDA:4,_RNCINvNtCs55lPmkOpiMP_15tensor4all_core9index_ops11common_indsINtNtNtB6_8defaults5index5IndexNtB11_5DynIdEE0CsjwG9vXUec8I_22tensor4all_itensorlike
FNDA:4,_RNCINvNtCs55lPmkOpiMP_15tensor4all_core9index_ops11common_indsINtNtNtB6_8defaults5index5IndexNtB11_5DynIdEEs_0CsjwG9vXUec8I_22tensor4all_itensorlike
FNDA:0,_RNCINvNtCs55lPmkOpiMP_15tensor4all_core9index_ops13hascommonindsINtNtNtB6_8defaults5index5IndexNtB13_5DynIdEE0CsjwG9vXUec8I_22tensor4all_itensorlike
FNDA:0,_RNCINvNtCs55lPmkOpiMP_15tensor4all_core9index_ops13hascommonindsINtNtNtB6_8defaults5index5IndexNtB13_5DynIdEEs_0CsjwG9vXUec8I_22tensor4all_itensorlike
FNDA:0,_RINvNtCs9q2tZtL9dYv_15tensor4all_core9index_ops10union_indspEB4_
FNDA:0,_RINvNtCs9q2tZtL9dYv_15tensor4all_core9index_ops11common_indspEB4_
FNDA:0,_RINvNtCs9q2tZtL9dYv_15tensor4all_core9index_ops11replaceindspEB4_
FNDA:0,_RINvNtCs9q2tZtL9dYv_15tensor4all_core9index_ops11unique_indspEB4_
FNDA:0,_RINvNtCs9q2tZtL9dYv_15tensor4all_core9index_ops13hascommonindspEB4_
FNDA:0,_RINvNtCs9q2tZtL9dYv_15tensor4all_core9index_ops14noncommon_indspEB4_
FNDA:0,_RINvNtCs9q2tZtL9dYv_15tensor4all_core9index_ops20check_unique_indicespEB4_
FNDA:0,_RINvNtCs9q2tZtL9dYv_15tensor4all_core9index_ops20replaceinds_in_placepEB4_
FNDA:0,_RINvNtCs9q2tZtL9dYv_15tensor4all_core9index_ops6hasindpEB4_
FNDA:0,_RINvNtCs9q2tZtL9dYv_15tensor4all_core9index_ops7hasindspEB4_
FNDA:0,_RNCINvNtCs9q2tZtL9dYv_15tensor4all_core9index_ops11common_indspE0B6_
FNDA:0,_RNCINvNtCs9q2tZtL9dYv_15tensor4all_core9index_ops11common_indspEs_0B6_
FNDA:0,_RNCINvNtCs9q2tZtL9dYv_15tensor4all_core9index_ops11unique_indspE0B6_
FNDA:0,_RNCINvNtCs9q2tZtL9dYv_15tensor4all_core9index_ops11unique_indspEs_0B6_
FNDA:0,_RNCINvNtCs9q2tZtL9dYv_15tensor4all_core9index_ops13hascommonindspE0B6_
FNDA:0,_RNCINvNtCs9q2tZtL9dYv_15tensor4all_core9index_ops13hascommonindspEs_0B6_
FNDA:0,_RNCINvNtCs9q2tZtL9dYv_15tensor4all_core9index_ops14noncommon_indspE0B6_
FNDA:0,_RNCINvNtCs9q2tZtL9dYv_15tensor4all_core9index_ops14noncommon_indspEs0_0B6_
FNDA:0,_RNCINvNtCs9q2tZtL9dYv_15tensor4all_core9index_ops14noncommon_indspEs1_0B6_
FNDA:0,_RNCINvNtCs9q2tZtL9dYv_15tensor4all_core9index_ops14noncommon_indspEs_0B6_
FNDA:0,_RNCINvNtCs9q2tZtL9dYv_15tensor4all_core9index_ops6hasindpE0B6_
FNDA:0,_RNCINvNtCs9q2tZtL9dYv_15tensor4all_core9index_ops7hasindspE0B6_
FNDA:0,_RNCINvNtCs9q2tZtL9dYv_15tensor4all_core9index_ops7hasindspEs_0B6_
FNDA:0,_RNvXNtCs9q2tZtL9dYv_15tensor4all_core9index_opsNtB2_16ReplaceIndsErrorNtNtCskzPJi2J8k3N_4core3fmt7Display3fmt
FNDA:0,_RNvXs0_NtCs9q2tZtL9dYv_15tensor4all_core9index_opsNtB5_16ContractionErrorNtNtCskzPJi2J8k3N_4core3fmt7Display3fmt
FNDA:18,_RINvNtCs9q2tZtL9dYv_15tensor4all_core9index_ops19prepare_contractionINtNtNtB4_8defaults5index5IndexNtB17_5DynIdEEB4_
FNDA:43,_RINvNtCs9q2tZtL9dYv_15tensor4all_core9index_ops20common_ind_positionsINtNtNtB4_8defaults5index5IndexNtB18_5DynIdEEB4_
FNDA:20,_RINvNtCs9q2tZtL9dYv_15tensor4all_core9index_ops25prepare_contraction_pairsINtNtNtB4_8defaults5index5IndexNtB1d_5DynIdEEB4_
FNDA:20,_RNCINvNtCs9q2tZtL9dYv_15tensor4all_core9index_ops25prepare_contraction_pairsINtNtNtB6_8defaults5index5IndexNtB1f_5DynIdEE0B6_
FNDA:26,_RNCINvNtCs9q2tZtL9dYv_15tensor4all_core9index_ops25prepare_contraction_pairsINtNtNtB6_8defaults5index5IndexNtB1f_5DynIdEEs0_0B6_
FNDA:22,_RNCINvNtCs9q2tZtL9dYv_15tensor4all_core9index_ops25prepare_contraction_pairsINtNtNtB6_8defaults5index5IndexNtB1f_5DynIdEEs1_0B6_
FNDA:20,_RNCINvNtCs9q2tZtL9dYv_15tensor4all_core9index_ops25prepare_contraction_pairsINtNtNtB6_8defaults5index5IndexNtB1f_5DynIdEEs_0B6_
FNDA:29,_RINvNtCs55lPmkOpiMP_15tensor4all_core9index_ops11common_indsINtNtNtB4_8defaults5index5IndexNtBZ_5DynIdEECshTphA2Fw2hY_22tensor4all_itensorlike
FNDA:62,_RNCINvNtCs55lPmkOpiMP_15tensor4all_core9index_ops11common_indsINtNtNtB6_8defaults5index5IndexNtB11_5DynIdEE0CshTphA2Fw2hY_22tensor4all_itensorlike
FNDA:65,_RNCINvNtCs55lPmkOpiMP_15tensor4all_core9index_ops11common_indsINtNtNtB6_8defaults5index5IndexNtB11_5DynIdEEs_0CshTphA2Fw2hY_22tensor4all_itensorlike
FNDA:1,_RINvNtCs55lPmkOpiMP_15tensor4all_core9index_ops11common_indsINtNtNtB4_8defaults5index5IndexNtBZ_5DynIdEECshdHF2bmlAcf_18tensor_contraction
FNDA:2,_RNCINvNtCs55lPmkOpiMP_15tensor4all_core9index_ops11common_indsINtNtNtB6_8defaults5index5IndexNtB11_5DynIdEE0CshdHF2bmlAcf_18tensor_contraction
FNDA:2,_RNCINvNtCs55lPmkOpiMP_15tensor4all_core9index_ops11common_indsINtNtNtB6_8defaults5index5IndexNtB11_5DynIdEEs_0CshdHF2bmlAcf_18tensor_contraction
FNF:32
FNH:30
DA:23,0
DA:24,0
DA:25,0
DA:26,0
DA:27,0
DA:28,0
DA:33,0
DA:34,0
DA:36,0
DA:37,0
DA:38,0
DA:43,0
DA:69,15
DA:71,15
DA:72,41
DA:73,41
DA:74,3
DA:75,3
DA:76,3
DA:77,3
DA:78,38
DA:79,38
DA:81,12
DA:82,15
DA:117,6
DA:118,6
DA:119,6
DA:120,6
DA:122,6
DA:125,5
DA:126,11
DA:128,7
DA:129,1
DA:130,1
DA:131,1
DA:132,1
DA:133,6
DA:134,6
DA:138,4
DA:139,15
DA:140,11
DA:141,5
DA:142,6
DA:143,6
DA:144,6
DA:148,4
DA:149,3
DA:150,6
DA:183,2
DA:184,2
DA:185,2
DA:186,2
DA:188,2
DA:191,2
DA:192,3
DA:194,2
DA:195,1
DA:196,1
DA:197,1
DA:198,1
DA:199,1
DA:200,1
DA:204,3
DA:205,3
DA:206,1
DA:207,2
DA:211,1
DA:212,1
DA:213,2
DA:243,1
DA:244,2
DA:245,1
DA:246,1
DA:247,2
DA:248,1
DA:249,1
DA:250,1
DA:282,1
DA:283,2
DA:284,2
DA:287,1
DA:290,1
DA:291,1
DA:292,1
DA:293,2
DA:294,1
DA:297,1
DA:298,1
DA:299,1
DA:300,2
DA:301,1
DA:303,1
DA:304,1
DA:335,1
DA:336,1
DA:337,1
DA:338,1
DA:340,3
DA:341,2
DA:342,2
DA:343,2
DA:345,3
DA:346,2
DA:347,1
DA:348,1
DA:350,1
DA:351,1
DA:376,3
DA:377,5
DA:378,3
DA:404,4
DA:405,12
DA:406,8
DA:407,4
DA:435,3
DA:436,6
DA:437,6
DA:438,3
DA:470,39
DA:471,93
DA:472,39
DA:473,39
DA:474,90
DA:475,39
DA:476,39
DA:477,39
DA:500,3253
DA:501,3253
DA:502,7893
DA:503,18447
DA:504,18447
DA:505,4263
DA:506,4263
DA:507,14184
DA:510,3253
DA:511,3253
DA:551,0
DA:552,0
DA:554,0
DA:557,0
DA:558,0
DA:559,0
DA:560,0
DA:562,0
DA:563,0
DA:564,0
DA:568,0
DA:569,0
DA:571,0
DA:572,0
DA:575,0
DA:578,0
DA:607,1009
DA:608,1009
DA:609,1009
DA:610,1009
DA:611,1009
DA:612,1009
DA:614,1009
DA:615,1009
DA:616,1
DA:617,1008
DA:619,1008
DA:622,2501
DA:623,1493
DA:624,0
DA:625,0
DA:626,0
DA:627,0
DA:628,0
DA:629,0
DA:630,1493
DA:634,1008
DA:635,1008
DA:637,2068
DA:638,2068
DA:639,575
DA:640,575
DA:641,1493
DA:644,2479
DA:645,2479
DA:646,986
DA:647,986
DA:648,1493
DA:651,1008
DA:652,1008
DA:653,1008
DA:654,1008
DA:655,1008
DA:656,1008
DA:657,1009
DA:689,2214
DA:690,2214
DA:691,2214
DA:692,2214
DA:693,2214
DA:694,2214
DA:695,2214
DA:698,2214
DA:699,1
DA:700,2213
DA:703,2773
DA:704,2773
DA:706,2213
DA:707,4980
DA:708,2768
DA:709,2768
DA:710,2768
DA:711,1
DA:712,2767
DA:716,2212
DA:717,2212
DA:719,4981
DA:720,2772
DA:721,2772
DA:722,5740
DA:723,2772
DA:725,2771
DA:726,2771
DA:727,5321
DA:728,2771
DA:731,2771
DA:732,2
DA:733,2
DA:734,2
DA:735,2
DA:736,2
DA:737,2
DA:738,2769
DA:741,2769
DA:742,0
DA:743,0
DA:744,0
DA:745,0
DA:746,2769
DA:747,2769
DA:748,0
DA:749,0
DA:750,0
DA:751,0
DA:752,2769
DA:754,2769
DA:755,2769
DA:759,2209
DA:760,2209
DA:762,5755
DA:763,5755
DA:764,2987
DA:765,2987
DA:766,2987
DA:769,6613
DA:770,6613
DA:771,3845
DA:772,3845
DA:773,3845
DA:776,2209
DA:777,2209
DA:778,2209
DA:779,2209
DA:780,2209
DA:781,2209
DA:782,2214
BRF:0
BRH:0
LF:279
LH:237
end_of_record
SF:/Users/ken/git_for_collab4/tensor4all-rs/crates/tensor4all-core/src/krylov.rs
FN:410,_RINvNtCs55lPmkOpiMP_15tensor4all_core6krylov15update_solutionpEB4_
FN:114,_RINvNtCs55lPmkOpiMP_15tensor4all_core6krylov5gmresppEB4_
FN:410,_RINvNtCs55lPmkOpiMP_15tensor4all_core6krylov15update_solutionNtNtNtB4_8defaults12tensordynlen12TensorDynLenECs3GGJ3tXgfXm_8linsolve
FN:114,_RINvNtCs55lPmkOpiMP_15tensor4all_core6krylov5gmresNtNtNtB4_8defaults12tensordynlen12TensorDynLenNCNvMs0_NtNtNtCslQORuovpJia_17tensor4all_treetn6treetn8linsolve7updaterINtB1E_15LinsolveUpdaterBM_ReE11solve_locals_0ECs3GGJ3tXgfXm_8linsolve
FN:333,_RNvNtCs55lPmkOpiMP_15tensor4all_core6krylov21apply_givens_rotation
FN:379,_RNvNtCs55lPmkOpiMP_15tensor4all_core6krylov22solve_upper_triangular
FN:280,_RNvNtCs55lPmkOpiMP_15tensor4all_core6krylov23compute_givens_rotation
FN:56,_RNvXNtCs55lPmkOpiMP_15tensor4all_core6krylovNtB2_12GmresOptionsNtNtCskzPJi2J8k3N_4core7default7Default7default
FN:531,_RNCNCNvNtNtCs9q2tZtL9dYv_15tensor4all_core6krylov5testss_26test_gmres_diagonal_matrix00B9_
FN:654,_RNCNvNtNtCs9q2tZtL9dYv_15tensor4all_core6krylov5testss_19test_gmres_zero_rhs0B7_
FN:522,_RNCNvNtNtCs9q2tZtL9dYv_15tensor4all_core6krylov5testss_26test_gmres_diagonal_matrix0B7_
FN:485,_RNCNvNtNtCs9q2tZtL9dYv_15tensor4all_core6krylov5testss_28test_gmres_identity_operator0B7_
FN:582,_RNCNvNtNtCs9q2tZtL9dYv_15tensor4all_core6krylov5testss_30test_gmres_nonsymmetric_matrix0B7_
FN:629,_RNCNvNtNtCs9q2tZtL9dYv_15tensor4all_core6krylov5testss_34test_gmres_with_good_initial_guess0B7_
FN:431,_RNvNtNtCs9q2tZtL9dYv_15tensor4all_core6krylov5tests22make_vector_with_index
FN:648,_RNvNtNtCs9q2tZtL9dYv_15tensor4all_core6krylov5testss_19test_gmres_zero_rhs
FN:441,_RNvNtNtCs9q2tZtL9dYv_15tensor4all_core6krylov5testss_25test_givens_rotation_real
FN:512,_RNvNtNtCs9q2tZtL9dYv_15tensor4all_core6krylov5testss_26test_gmres_diagonal_matrix
FN:477,_RNvNtNtCs9q2tZtL9dYv_15tensor4all_core6krylov5testss_28test_gmres_identity_operator
FN:569,_RNvNtNtCs9q2tZtL9dYv_15tensor4all_core6krylov5testss_30test_gmres_nonsymmetric_matrix
FN:457,_RNvNtNtCs9q2tZtL9dYv_15tensor4all_core6krylov5testss_31test_apply_givens_rotation_real
FN:623,_RNvNtNtCs9q2tZtL9dYv_15tensor4all_core6krylov5testss_34test_gmres_with_good_initial_guess
FN:410,_RINvNtCs9q2tZtL9dYv_15tensor4all_core6krylov15update_solutionNtNtNtB4_8defaults12tensordynlen12TensorDynLenEB4_
FN:114,_RINvNtCs9q2tZtL9dYv_15tensor4all_core6krylov5gmresNtNtNtB4_8defaults12tensordynlen12TensorDynLenNCNvNtB2_5testss_19test_gmres_zero_rhs0EB4_
FN:114,_RINvNtCs9q2tZtL9dYv_15tensor4all_core6krylov5gmresNtNtNtB4_8defaults12tensordynlen12TensorDynLenNCNvNtB2_5testss_26test_gmres_diagonal_matrix0EB4_
FN:114,_RINvNtCs9q2tZtL9dYv_15tensor4all_core6krylov5gmresNtNtNtB4_8defaults12tensordynlen12TensorDynLenNCNvNtB2_5testss_28test_gmres_identity_operator0EB4_
FN:114,_RINvNtCs9q2tZtL9dYv_15tensor4all_core6krylov5gmresNtNtNtB4_8defaults12tensordynlen12TensorDynLenNCNvNtB2_5testss_30test_gmres_nonsymmetric_matrix0EB4_
FN:114,_RINvNtCs9q2tZtL9dYv_15tensor4all_core6krylov5gmresNtNtNtB4_8defaults12tensordynlen12TensorDynLenNCNvNtB2_5testss_34test_gmres_with_good_initial_guess0EB4_
FN:333,_RNvNtCs9q2tZtL9dYv_15tensor4all_core6krylov21apply_givens_rotation
FN:379,_RNvNtCs9q2tZtL9dYv_15tensor4all_core6krylov22solve_upper_triangular
FN:280,_RNvNtCs9q2tZtL9dYv_15tensor4all_core6krylov23compute_givens_rotation
FN:56,_RNvXNtCs9q2tZtL9dYv_15tensor4all_core6krylovNtB2_12GmresOptionsNtNtCskzPJi2J8k3N_4core7default7Default7default
FNDA:0,_RINvNtCs55lPmkOpiMP_15tensor4all_core6krylov15update_solutionpEB4_
FNDA:0,_RINvNtCs55lPmkOpiMP_15tensor4all_core6krylov5gmresppEB4_
FNDA:8,_RINvNtCs55lPmkOpiMP_15tensor4all_core6krylov15update_solutionNtNtNtB4_8defaults12tensordynlen12TensorDynLenECs3GGJ3tXgfXm_8linsolve
FNDA:202,_RINvNtCs55lPmkOpiMP_15tensor4all_core6krylov5gmresNtNtNtB4_8defaults12tensordynlen12TensorDynLenNCNvMs0_NtNtNtCslQORuovpJia_17tensor4all_treetn6treetn8linsolve7updaterINtB1E_15LinsolveUpdaterBM_ReE11solve_locals_0ECs3GGJ3tXgfXm_8linsolve
FNDA:19,_RNvNtCs55lPmkOpiMP_15tensor4all_core6krylov21apply_givens_rotation
FNDA:8,_RNvNtCs55lPmkOpiMP_15tensor4all_core6krylov22solve_upper_triangular
FNDA:9,_RNvNtCs55lPmkOpiMP_15tensor4all_core6krylov23compute_givens_rotation
FNDA:0,_RNvXNtCs55lPmkOpiMP_15tensor4all_core6krylovNtB2_12GmresOptionsNtNtCskzPJi2J8k3N_4core7default7Default7default
FNDA:12,_RNCNCNvNtNtCs9q2tZtL9dYv_15tensor4all_core6krylov5testss_26test_gmres_diagonal_matrix00B9_
FNDA:0,_RNCNvNtNtCs9q2tZtL9dYv_15tensor4all_core6krylov5testss_19test_gmres_zero_rhs0B7_
FNDA:4,_RNCNvNtNtCs9q2tZtL9dYv_15tensor4all_core6krylov5testss_26test_gmres_diagonal_matrix0B7_
FNDA:2,_RNCNvNtNtCs9q2tZtL9dYv_15tensor4all_core6krylov5testss_28test_gmres_identity_operator0B7_
FNDA:3,_RNCNvNtNtCs9q2tZtL9dYv_15tensor4all_core6krylov5testss_30test_gmres_nonsymmetric_matrix0B7_
FNDA:1,_RNCNvNtNtCs9q2tZtL9dYv_15tensor4all_core6krylov5testss_34test_gmres_with_good_initial_guess0B7_
FNDA:12,_RNvNtNtCs9q2tZtL9dYv_15tensor4all_core6krylov5tests22make_vector_with_index
FNDA:1,_RNvNtNtCs9q2tZtL9dYv_15tensor4all_core6krylov5testss_19test_gmres_zero_rhs
FNDA:1,_RNvNtNtCs9q2tZtL9dYv_15tensor4all_core6krylov5testss_25test_givens_rotation_real
FNDA:1,_RNvNtNtCs9q2tZtL9dYv_15tensor4all_core6krylov5testss_26test_gmres_diagonal_matrix
FNDA:1,_RNvNtNtCs9q2tZtL9dYv_15tensor4all_core6krylov5testss_28test_gmres_identity_operator
FNDA:1,_RNvNtNtCs9q2tZtL9dYv_15tensor4all_core6krylov5testss_30test_gmres_nonsymmetric_matrix
FNDA:1,_RNvNtNtCs9q2tZtL9dYv_15tensor4all_core6krylov5testss_31test_apply_givens_rotation_real
FNDA:1,_RNvNtNtCs9q2tZtL9dYv_15tensor4all_core6krylov5testss_34test_gmres_with_good_initial_guess
FNDA:3,_RINvNtCs9q2tZtL9dYv_15tensor4all_core6krylov15update_solutionNtNtNtB4_8defaults12tensordynlen12TensorDynLenEB4_
FNDA:1,_RINvNtCs9q2tZtL9dYv_15tensor4all_core6krylov5gmresNtNtNtB4_8defaults12tensordynlen12TensorDynLenNCNvNtB2_5testss_19test_gmres_zero_rhs0EB4_
FNDA:1,_RINvNtCs9q2tZtL9dYv_15tensor4all_core6krylov5gmresNtNtNtB4_8defaults12tensordynlen12TensorDynLenNCNvNtB2_5testss_26test_gmres_diagonal_matrix0EB4_
FNDA:1,_RINvNtCs9q2tZtL9dYv_15tensor4all_core6krylov5gmresNtNtNtB4_8defaults12tensordynlen12TensorDynLenNCNvNtB2_5testss_28test_gmres_identity_operator0EB4_
FNDA:1,_RINvNtCs9q2tZtL9dYv_15tensor4all_core6krylov5gmresNtNtNtB4_8defaults12tensordynlen12TensorDynLenNCNvNtB2_5testss_30test_gmres_nonsymmetric_matrix0EB4_
FNDA:1,_RINvNtCs9q2tZtL9dYv_15tensor4all_core6krylov5gmresNtNtNtB4_8defaults12tensordynlen12TensorDynLenNCNvNtB2_5testss_34test_gmres_with_good_initial_guess0EB4_
FNDA:17,_RNvNtCs9q2tZtL9dYv_15tensor4all_core6krylov21apply_givens_rotation
FNDA:3,_RNvNtCs9q2tZtL9dYv_15tensor4all_core6krylov22solve_upper_triangular
FNDA:7,_RNvNtCs9q2tZtL9dYv_15tensor4all_core6krylov23compute_givens_rotation
FNDA:1,_RNvXNtCs9q2tZtL9dYv_15tensor4all_core6krylovNtB2_12GmresOptionsNtNtCskzPJi2J8k3N_4core7default7Default7default
FNF:20
FNH:19
DA:56,1
DA:57,1
DA:58,1
DA:59,1
DA:60,1
DA:61,1
DA:62,1
DA:63,1
DA:114,207
DA:115,207
DA:116,207
DA:117,207
DA:119,207
DA:120,207
DA:122,1
DA:123,1
DA:124,1
DA:125,1
DA:126,1
DA:127,1
DA:128,206
DA:130,206
DA:131,206
DA:133,206
DA:135,206
DA:137,206
DA:138,206
DA:139,206
DA:141,206
DA:142,0
DA:143,0
DA:144,0
DA:145,0
DA:146,206
DA:148,206
DA:149,195
DA:150,195
DA:151,195
DA:152,195
DA:153,195
DA:154,195
DA:155,11
DA:158,11
DA:159,11
DA:162,11
DA:163,11
DA:166,11
DA:167,11
DA:168,11
DA:170,15
DA:171,15
DA:174,15
DA:177,15
DA:178,15
DA:180,20
DA:181,20
DA:182,20
DA:184,20
DA:185,20
DA:188,15
DA:189,15
DA:190,15
DA:194,15
DA:195,5
DA:196,5
DA:197,5
DA:198,5
DA:199,5
DA:200,5
DA:203,15
DA:204,15
DA:205,15
DA:208,15
DA:209,15
DA:210,15
DA:213,15
DA:214,15
DA:215,15
DA:216,15
DA:217,15
DA:219,15
DA:222,15
DA:223,15
DA:225,15
DA:226,0
DA:227,15
DA:229,15
DA:231,11
DA:232,11
DA:233,11
DA:234,11
DA:235,11
DA:236,11
DA:237,11
DA:238,11
DA:239,4
DA:242,4
DA:243,4
DA:244,4
DA:247,0
DA:248,0
DA:249,0
DA:250,0
DA:251,0
DA:252,0
DA:253,0
DA:254,0
DA:255,0
DA:256,0
DA:257,0
DA:262,0
DA:263,0
DA:267,0
DA:268,0
DA:269,0
DA:271,0
DA:272,0
DA:273,0
DA:274,0
DA:275,0
DA:276,0
DA:277,207
DA:280,16
DA:283,16
DA:284,16
DA:285,16
DA:286,16
DA:287,0
DA:289,16
DA:292,0
DA:293,0
DA:294,0
DA:295,0
DA:296,0
DA:297,0
DA:298,0
DA:300,0
DA:304,0
DA:305,0
DA:306,0
DA:307,0
DA:308,0
DA:309,0
DA:310,0
DA:311,0
DA:313,0
DA:316,0
DA:317,0
DA:318,0
DA:319,0
DA:320,0
DA:321,0
DA:322,0
DA:323,0
DA:325,0
DA:329,16
DA:333,36
DA:334,36
DA:335,36
DA:336,36
DA:337,36
DA:338,36
DA:341,36
DA:343,36
DA:344,36
DA:345,36
DA:346,36
DA:348,36
DA:349,36
DA:350,36
DA:354,0
DA:355,0
DA:356,0
DA:358,0
DA:359,0
DA:360,0
DA:362,0
DA:363,0
DA:364,0
DA:366,0
DA:367,0
DA:368,0
DA:371,0
DA:372,0
DA:373,0
DA:376,36
DA:379,11
DA:380,11
DA:381,11
DA:382,0
DA:383,11
DA:385,11
DA:387,15
DA:388,15
DA:390,15
DA:391,5
DA:392,5
DA:393,5
DA:394,5
DA:396,15
DA:397,15
DA:398,0
DA:399,0
DA:400,0
DA:401,15
DA:403,15
DA:406,11
DA:407,11
DA:410,11
DA:411,11
DA:413,15
DA:414,15
DA:416,15
DA:419,11
DA:420,11
DA:431,12
DA:432,12
DA:433,12
DA:434,12
DA:435,12
DA:436,12
DA:438,12
DA:441,1
DA:442,1
DA:443,1
DA:444,1
DA:447,1
DA:448,1
DA:449,1
DA:450,1
DA:452,0
DA:454,1
DA:457,1
DA:458,1
DA:459,1
DA:460,1
DA:461,1
DA:463,1
DA:467,1
DA:468,1
DA:469,1
DA:470,1
DA:472,0
DA:474,1
DA:477,1
DA:480,1
DA:481,1
DA:482,1
DA:485,2
DA:487,1
DA:488,1
DA:489,1
DA:490,1
DA:491,1
DA:492,1
DA:494,1
DA:496,1
DA:497,1
DA:498,1
DA:499,0
DA:504,1
DA:505,1
DA:506,1
DA:507,1
DA:508,1
DA:509,1
DA:512,1
DA:515,1
DA:516,1
DA:517,1
DA:518,1
DA:521,1
DA:522,4
DA:524,4
DA:525,4
DA:526,0
DA:528,4
DA:529,4
DA:530,4
DA:531,12
DA:532,4
DA:533,4
DA:534,4
DA:535,4
DA:536,4
DA:537,4
DA:538,4
DA:540,1
DA:541,1
DA:542,1
DA:543,1
DA:544,1
DA:545,1
DA:547,1
DA:549,1
DA:550,1
DA:551,1
DA:552,0
DA:557,1
DA:558,1
DA:559,1
DA:560,1
DA:561,1
DA:562,1
DA:563,0
DA:564,0
DA:566,1
DA:569,1
DA:574,1
DA:575,1
DA:576,1
DA:577,1
DA:580,1
DA:582,3
DA:583,3
DA:584,3
DA:585,0
DA:588,3
DA:589,3
DA:590,3
DA:592,3
DA:593,3
DA:594,3
DA:595,3
DA:596,3
DA:597,3
DA:599,1
DA:600,1
DA:601,1
DA:602,1
DA:603,1
DA:604,1
DA:606,1
DA:608,1
DA:611,1
DA:612,1
DA:613,1
DA:614,1
DA:615,1
DA:616,1
DA:617,0
DA:618,0
DA:620,1
DA:623,1
DA:625,1
DA:626,1
DA:627,1
DA:629,1
DA:631,1
DA:632,1
DA:634,1
DA:635,1
DA:636,1
DA:637,1
DA:638,1
DA:639,1
DA:641,1
DA:643,1
DA:644,1
DA:645,1
DA:648,1
DA:650,1
DA:651,1
DA:652,1
DA:654,1
DA:656,1
DA:658,1
DA:661,1
DA:662,1
BRF:0
BRH:0
LF:375
LH:285
end_of_record
SF:/Users/ken/git_for_collab4/tensor4all-rs/crates/tensor4all-core/src/smallstring.rs
FN:147,_RNvMs0_NtCs55lPmkOpiMP_15tensor4all_core11smallstringINtB5_11SmallStringKppE3getB7_
FN:137,_RNvMs0_NtCs55lPmkOpiMP_15tensor4all_core11smallstringINtB5_11SmallStringKppE3lenB7_
FN:156,_RNvMs0_NtCs55lPmkOpiMP_15tensor4all_core11smallstringINtB5_11SmallStringKppE8as_sliceB7_
FN:142,_RNvMs0_NtCs55lPmkOpiMP_15tensor4all_core11smallstringINtB5_11SmallStringKppE8capacityB7_
FN:132,_RNvMs0_NtCs55lPmkOpiMP_15tensor4all_core11smallstringINtB5_11SmallStringKppE8is_emptyB7_
FN:162,_RNvXININtCs55lPmkOpiMP_15tensor4all_core11smallstrings1_0KppEINtB5_11SmallStringKppENtNtCskzPJi2J8k3N_4core7default7Default7defaultB7_
FN:176,_RNvXININtCs55lPmkOpiMP_15tensor4all_core11smallstrings4_0KppEINtB5_11SmallStringKppENtNtCskzPJi2J8k3N_4core3cmp10PartialOrd11partial_cmpB7_
FN:188,_RNvXININtCs55lPmkOpiMP_15tensor4all_core11smallstrings6_0KppEINtB5_11SmallStringKppENtNtCskzPJi2J8k3N_4core3fmt7Display3fmtB7_
FN:33,_RNvXNtCs55lPmkOpiMP_15tensor4all_core11smallstringtNtB2_9SmallChar7to_char
FN:23,_RNvXNtCs55lPmkOpiMP_15tensor4all_core11smallstringtNtB2_9SmallChar9from_char
FN:46,_RNvXs_NtCs55lPmkOpiMP_15tensor4all_core11smallstringcNtB4_9SmallChar7to_char
FN:42,_RNvXs_NtCs55lPmkOpiMP_15tensor4all_core11smallstringcNtB4_9SmallChar9from_char
FN:128,_RNCNvMs0_NtCs55lPmkOpiMP_15tensor4all_core11smallstringINtB7_11SmallStringKj10_E6as_str0B9_
FN:91,_RNvMs0_NtCs55lPmkOpiMP_15tensor4all_core11smallstringINtB5_11SmallStringKj10_E3newB7_
FN:127,_RNvMs0_NtCs55lPmkOpiMP_15tensor4all_core11smallstringINtB5_11SmallStringKj10_E6as_strB7_
FN:106,_RNvMs0_NtCs55lPmkOpiMP_15tensor4all_core11smallstringINtB5_11SmallStringKj10_E8from_strB7_
FN:168,_RNvXs2_NtCs55lPmkOpiMP_15tensor4all_core11smallstringINtB5_11SmallStringKj10_ENtNtCskzPJi2J8k3N_4core3cmp9PartialEq2eqB7_
FN:182,_RNvXs5_NtCs55lPmkOpiMP_15tensor4all_core11smallstringINtB5_11SmallStringKj10_ENtNtCskzPJi2J8k3N_4core3cmp3Ord3cmpB7_
FN:137,_RNvMs0_NtCs55lPmkOpiMP_15tensor4all_core11smallstringINtB5_11SmallStringKj10_E3lenCslQuSOWOLVUT_13common_tagset
FN:132,_RNvMs0_NtCs55lPmkOpiMP_15tensor4all_core11smallstringINtB5_11SmallStringKj10_E8is_emptyCslQuSOWOLVUT_13common_tagset
FN:106,_RNvMs0_NtCs55lPmkOpiMP_15tensor4all_core11smallstringINtB5_11SmallStringKj5_E8from_strCslQuSOWOLVUT_13common_tagset
FN:176,_RNvXs4_NtCs55lPmkOpiMP_15tensor4all_core11smallstringINtB5_11SmallStringKj10_ENtNtCskzPJi2J8k3N_4core3cmp10PartialOrd11partial_cmpCslQuSOWOLVUT_13common_tagset
FN:188,_RNvXs6_NtCs55lPmkOpiMP_15tensor4all_core11smallstringINtB5_11SmallStringKj10_ENtNtCskzPJi2J8k3N_4core3fmt7Display3fmtCsdnTG4X9gKe5_15tensor4all_capi
FN:147,_RNvMs0_NtCs9q2tZtL9dYv_15tensor4all_core11smallstringINtB5_11SmallStringKppE3getB7_
FN:156,_RNvMs0_NtCs9q2tZtL9dYv_15tensor4all_core11smallstringINtB5_11SmallStringKppE8as_sliceB7_
FN:142,_RNvMs0_NtCs9q2tZtL9dYv_15tensor4all_core11smallstringINtB5_11SmallStringKppE8capacityB7_
FN:132,_RNvMs0_NtCs9q2tZtL9dYv_15tensor4all_core11smallstringINtB5_11SmallStringKppE8is_emptyB7_
FN:162,_RNvXININtCs9q2tZtL9dYv_15tensor4all_core11smallstrings1_0KppEINtB5_11SmallStringKppENtNtCskzPJi2J8k3N_4core7default7Default7defaultB7_
FN:188,_RNvXININtCs9q2tZtL9dYv_15tensor4all_core11smallstrings6_0KppEINtB5_11SmallStringKppENtNtCskzPJi2J8k3N_4core3fmt7Display3fmtB7_
FN:33,_RNvXNtCs9q2tZtL9dYv_15tensor4all_core11smallstringtNtB2_9SmallChar7to_char
FN:23,_RNvXNtCs9q2tZtL9dYv_15tensor4all_core11smallstringtNtB2_9SmallChar9from_char
FN:46,_RNvXs_NtCs9q2tZtL9dYv_15tensor4all_core11smallstringcNtB4_9SmallChar7to_char
FN:42,_RNvXs_NtCs9q2tZtL9dYv_15tensor4all_core11smallstringcNtB4_9SmallChar9from_char
FN:128,_RNCNvMs0_NtCs9q2tZtL9dYv_15tensor4all_core11smallstringINtB7_11SmallStringKj10_E6as_str0B9_
FN:128,_RNCNvMs0_NtCs9q2tZtL9dYv_15tensor4all_core11smallstringINtB7_11SmallStringKj10_cE6as_str0B9_
FN:137,_RNvMs0_NtCs9q2tZtL9dYv_15tensor4all_core11smallstringINtB5_11SmallStringKj10_E3lenB7_
FN:91,_RNvMs0_NtCs9q2tZtL9dYv_15tensor4all_core11smallstringINtB5_11SmallStringKj10_E3newB7_
FN:127,_RNvMs0_NtCs9q2tZtL9dYv_15tensor4all_core11smallstringINtB5_11SmallStringKj10_E6as_strB7_
FN:106,_RNvMs0_NtCs9q2tZtL9dYv_15tensor4all_core11smallstringINtB5_11SmallStringKj10_E8from_strB7_
FN:127,_RNvMs0_NtCs9q2tZtL9dYv_15tensor4all_core11smallstringINtB5_11SmallStringKj10_cE6as_strB7_
FN:106,_RNvMs0_NtCs9q2tZtL9dYv_15tensor4all_core11smallstringINtB5_11SmallStringKj10_cE8from_strB7_
FN:106,_RNvMs0_NtCs9q2tZtL9dYv_15tensor4all_core11smallstringINtB5_11SmallStringKj4_E8from_strB7_
FN:168,_RNvXs2_NtCs9q2tZtL9dYv_15tensor4all_core11smallstringINtB5_11SmallStringKj10_ENtNtCskzPJi2J8k3N_4core3cmp9PartialEq2eqB7_
FN:176,_RNvXs4_NtCs9q2tZtL9dYv_15tensor4all_core11smallstringINtB5_11SmallStringKj10_ENtNtCskzPJi2J8k3N_4core3cmp10PartialOrd11partial_cmpB7_
FN:182,_RNvXs5_NtCs9q2tZtL9dYv_15tensor4all_core11smallstringINtB5_11SmallStringKj10_ENtNtCskzPJi2J8k3N_4core3cmp3Ord3cmpB7_
FN:246,_RNvNtNtCs9q2tZtL9dYv_15tensor4all_core11smallstring5testss_21test_smallstring_size
FN:236,_RNvNtNtCs9q2tZtL9dYv_15tensor4all_core11smallstring5testss_25test_smallstring_ordering
FN:227,_RNvNtNtCs9q2tZtL9dYv_15tensor4all_core11smallstring5testss_25test_smallstring_too_long
FN:198,_RNvNtNtCs9q2tZtL9dYv_15tensor4all_core11smallstring5testss_26test_smallstring_u16_basic
FN:220,_RNvNtNtCs9q2tZtL9dYv_15tensor4all_core11smallstring5testss_27test_smallstring_char_emoji
FN:205,_RNvNtNtCs9q2tZtL9dYv_15tensor4all_core11smallstring5testss_29test_smallstring_u16_japanese
FN:213,_RNvNtNtCs9q2tZtL9dYv_15tensor4all_core11smallstring5testss_32test_smallstring_u16_emoji_fails
FNDA:0,_RNvMs0_NtCs55lPmkOpiMP_15tensor4all_core11smallstringINtB5_11SmallStringKppE3getB7_
FNDA:0,_RNvMs0_NtCs55lPmkOpiMP_15tensor4all_core11smallstringINtB5_11SmallStringKppE3lenB7_
FNDA:0,_RNvMs0_NtCs55lPmkOpiMP_15tensor4all_core11smallstringINtB5_11SmallStringKppE8as_sliceB7_
FNDA:0,_RNvMs0_NtCs55lPmkOpiMP_15tensor4all_core11smallstringINtB5_11SmallStringKppE8capacityB7_
FNDA:0,_RNvMs0_NtCs55lPmkOpiMP_15tensor4all_core11smallstringINtB5_11SmallStringKppE8is_emptyB7_
FNDA:0,_RNvXININtCs55lPmkOpiMP_15tensor4all_core11smallstrings1_0KppEINtB5_11SmallStringKppENtNtCskzPJi2J8k3N_4core7default7Default7defaultB7_
FNDA:0,_RNvXININtCs55lPmkOpiMP_15tensor4all_core11smallstrings4_0KppEINtB5_11SmallStringKppENtNtCskzPJi2J8k3N_4core3cmp10PartialOrd11partial_cmpB7_
FNDA:0,_RNvXININtCs55lPmkOpiMP_15tensor4all_core11smallstrings6_0KppEINtB5_11SmallStringKppENtNtCskzPJi2J8k3N_4core3fmt7Display3fmtB7_
FNDA:74,_RNvXNtCs55lPmkOpiMP_15tensor4all_core11smallstringtNtB2_9SmallChar7to_char
FNDA:2946,_RNvXNtCs55lPmkOpiMP_15tensor4all_core11smallstringtNtB2_9SmallChar9from_char
FNDA:0,_RNvXs_NtCs55lPmkOpiMP_15tensor4all_core11smallstringcNtB4_9SmallChar7to_char
FNDA:0,_RNvXs_NtCs55lPmkOpiMP_15tensor4all_core11smallstringcNtB4_9SmallChar9from_char
FNDA:74,_RNCNvMs0_NtCs55lPmkOpiMP_15tensor4all_core11smallstringINtB7_11SmallStringKj10_E6as_str0B9_
FNDA:15298,_RNvMs0_NtCs55lPmkOpiMP_15tensor4all_core11smallstringINtB5_11SmallStringKj10_E3newB7_
FNDA:31,_RNvMs0_NtCs55lPmkOpiMP_15tensor4all_core11smallstringINtB5_11SmallStringKj10_E6as_strB7_
FNDA:773,_RNvMs0_NtCs55lPmkOpiMP_15tensor4all_core11smallstringINtB5_11SmallStringKj10_E8from_strB7_
FNDA:6,_RNvXs2_NtCs55lPmkOpiMP_15tensor4all_core11smallstringINtB5_11SmallStringKj10_ENtNtCskzPJi2J8k3N_4core3cmp9PartialEq2eqB7_
FNDA:236,_RNvXs5_NtCs55lPmkOpiMP_15tensor4all_core11smallstringINtB5_11SmallStringKj10_ENtNtCskzPJi2J8k3N_4core3cmp3Ord3cmpB7_
FNDA:3,_RNvMs0_NtCs55lPmkOpiMP_15tensor4all_core11smallstringINtB5_11SmallStringKj10_E3lenCslQuSOWOLVUT_13common_tagset
FNDA:2,_RNvMs0_NtCs55lPmkOpiMP_15tensor4all_core11smallstringINtB5_11SmallStringKj10_E8is_emptyCslQuSOWOLVUT_13common_tagset
FNDA:1,_RNvMs0_NtCs55lPmkOpiMP_15tensor4all_core11smallstringINtB5_11SmallStringKj5_E8from_strCslQuSOWOLVUT_13common_tagset
FNDA:2,_RNvXs4_NtCs55lPmkOpiMP_15tensor4all_core11smallstringINtB5_11SmallStringKj10_ENtNtCskzPJi2J8k3N_4core3cmp10PartialOrd11partial_cmpCslQuSOWOLVUT_13common_tagset
FNDA:4,_RNvXs6_NtCs55lPmkOpiMP_15tensor4all_core11smallstringINtB5_11SmallStringKj10_ENtNtCskzPJi2J8k3N_4core3fmt7Display3fmtCsdnTG4X9gKe5_15tensor4all_capi
FNDA:0,_RNvMs0_NtCs9q2tZtL9dYv_15tensor4all_core11smallstringINtB5_11SmallStringKppE3getB7_
FNDA:0,_RNvMs0_NtCs9q2tZtL9dYv_15tensor4all_core11smallstringINtB5_11SmallStringKppE8as_sliceB7_
FNDA:0,_RNvMs0_NtCs9q2tZtL9dYv_15tensor4all_core11smallstringINtB5_11SmallStringKppE8capacityB7_
FNDA:0,_RNvMs0_NtCs9q2tZtL9dYv_15tensor4all_core11smallstringINtB5_11SmallStringKppE8is_emptyB7_
FNDA:0,_RNvXININtCs9q2tZtL9dYv_15tensor4all_core11smallstrings1_0KppEINtB5_11SmallStringKppENtNtCskzPJi2J8k3N_4core7default7Default7defaultB7_
FNDA:0,_RNvXININtCs9q2tZtL9dYv_15tensor4all_core11smallstrings6_0KppEINtB5_11SmallStringKppENtNtCskzPJi2J8k3N_4core3fmt7Display3fmtB7_
FNDA:8,_RNvXNtCs9q2tZtL9dYv_15tensor4all_core11smallstringtNtB2_9SmallChar7to_char
FNDA:62,_RNvXNtCs9q2tZtL9dYv_15tensor4all_core11smallstringtNtB2_9SmallChar9from_char
FNDA:7,_RNvXs_NtCs9q2tZtL9dYv_15tensor4all_core11smallstringcNtB4_9SmallChar7to_char
FNDA:7,_RNvXs_NtCs9q2tZtL9dYv_15tensor4all_core11smallstringcNtB4_9SmallChar9from_char
FNDA:8,_RNCNvMs0_NtCs9q2tZtL9dYv_15tensor4all_core11smallstringINtB7_11SmallStringKj10_E6as_str0B9_
FNDA:7,_RNCNvMs0_NtCs9q2tZtL9dYv_15tensor4all_core11smallstringINtB7_11SmallStringKj10_cE6as_str0B9_
FNDA:2,_RNvMs0_NtCs9q2tZtL9dYv_15tensor4all_core11smallstringINtB5_11SmallStringKj10_E3lenB7_
FNDA:162,_RNvMs0_NtCs9q2tZtL9dYv_15tensor4all_core11smallstringINtB5_11SmallStringKj10_E3newB7_
FNDA:2,_RNvMs0_NtCs9q2tZtL9dYv_15tensor4all_core11smallstringINtB5_11SmallStringKj10_E6as_strB7_
FNDA:15,_RNvMs0_NtCs9q2tZtL9dYv_15tensor4all_core11smallstringINtB5_11SmallStringKj10_E8from_strB7_
FNDA:1,_RNvMs0_NtCs9q2tZtL9dYv_15tensor4all_core11smallstringINtB5_11SmallStringKj10_cE6as_strB7_
FNDA:1,_RNvMs0_NtCs9q2tZtL9dYv_15tensor4all_core11smallstringINtB5_11SmallStringKj10_cE8from_strB7_
FNDA:1,_RNvMs0_NtCs9q2tZtL9dYv_15tensor4all_core11smallstringINtB5_11SmallStringKj4_E8from_strB7_
FNDA:1,_RNvXs2_NtCs9q2tZtL9dYv_15tensor4all_core11smallstringINtB5_11SmallStringKj10_ENtNtCskzPJi2J8k3N_4core3cmp9PartialEq2eqB7_
FNDA:1,_RNvXs4_NtCs9q2tZtL9dYv_15tensor4all_core11smallstringINtB5_11SmallStringKj10_ENtNtCskzPJi2J8k3N_4core3cmp10PartialOrd11partial_cmpB7_
FNDA:7,_RNvXs5_NtCs9q2tZtL9dYv_15tensor4all_core11smallstringINtB5_11SmallStringKj10_ENtNtCskzPJi2J8k3N_4core3cmp3Ord3cmpB7_
FNDA:1,_RNvNtNtCs9q2tZtL9dYv_15tensor4all_core11smallstring5testss_21test_smallstring_size
FNDA:1,_RNvNtNtCs9q2tZtL9dYv_15tensor4all_core11smallstring5testss_25test_smallstring_ordering
FNDA:1,_RNvNtNtCs9q2tZtL9dYv_15tensor4all_core11smallstring5testss_25test_smallstring_too_long
FNDA:1,_RNvNtNtCs9q2tZtL9dYv_15tensor4all_core11smallstring5testss_26test_smallstring_u16_basic
FNDA:1,_RNvNtNtCs9q2tZtL9dYv_15tensor4all_core11smallstring5testss_27test_smallstring_char_emoji
FNDA:1,_RNvNtNtCs9q2tZtL9dYv_15tensor4all_core11smallstring5testss_29test_smallstring_u16_japanese
FNDA:1,_RNvNtNtCs9q2tZtL9dYv_15tensor4all_core11smallstring5testss_32test_smallstring_u16_emoji_fails
FNF:25
FNH:21
DA:23,3008
DA:25,3008
DA:26,3008
DA:27,3007
DA:29,1
DA:31,3008
DA:33,82
DA:35,82
DA:36,82
DA:42,7
DA:43,7
DA:44,7
DA:46,7
DA:47,7
DA:48,7
DA:91,15460
DA:92,15460
DA:93,15460
DA:94,15460
DA:95,15460
DA:96,15460
DA:106,791
DA:107,791
DA:108,791
DA:110,3017
DA:111,3017
DA:113,2
DA:114,2
DA:115,2
DA:116,2
DA:117,2
DA:118,3015
DA:119,3015
DA:120,3014
DA:123,788
DA:124,791
DA:127,34
DA:128,89
DA:129,34
DA:132,2
DA:133,2
DA:134,2
DA:137,5
DA:138,5
DA:139,5
DA:142,0
DA:143,0
DA:144,0
DA:147,0
DA:148,0
DA:149,0
DA:151,0
DA:153,0
DA:156,0
DA:157,0
DA:158,0
DA:162,0
DA:163,0
DA:164,0
DA:168,7
DA:169,7
DA:170,7
DA:176,3
DA:177,3
DA:178,3
DA:182,243
DA:183,243
DA:184,243
DA:188,4
DA:189,4
DA:190,4
DA:198,1
DA:199,1
DA:200,1
DA:201,1
DA:202,1
DA:205,1
DA:207,1
DA:208,1
DA:209,1
DA:210,1
DA:213,1
DA:215,1
DA:216,1
DA:217,1
DA:220,1
DA:222,1
DA:223,1
DA:224,1
DA:227,1
DA:228,1
DA:229,1
DA:230,1
DA:233,1
DA:236,1
DA:237,1
DA:238,1
DA:239,1
DA:241,1
DA:242,1
DA:243,1
DA:246,1
DA:248,1
DA:250,1
DA:251,1
BRF:0
BRH:0
LF:106
LH:91
end_of_record
SF:/Users/ken/git_for_collab4/tensor4all-rs/crates/tensor4all-core/src/tagset.rs
FN:66,_RINvYpNtNtCs55lPmkOpiMP_15tensor4all_core6tagset10TagSetLike11common_tagspEB8_
FN:42,_RINvYpNtNtCs55lPmkOpiMP_15tensor4all_core6tagset10TagSetLike8has_tagspEB8_
FN:219,_RNvMNtCs55lPmkOpiMP_15tensor4all_core6tagsetINtB2_6TagSetKpKppE11common_tagsB4_
FN:185,_RNvMNtCs55lPmkOpiMP_15tensor4all_core6tagsetINtB2_6TagSetKpKppE3getB4_
FN:194,_RNvMNtCs55lPmkOpiMP_15tensor4all_core6tagsetINtB2_6TagSetKpKppE4iterB4_
FN:204,_RNvMNtCs55lPmkOpiMP_15tensor4all_core6tagsetINtB2_6TagSetKpKppE8has_tagsB4_
FN:332,_RNvXININtCs55lPmkOpiMP_15tensor4all_core6tagsets2_0KpKppEINtB5_6TagSetKpKppENtNtCskzPJi2J8k3N_4core3cmp9PartialEq2eqB7_
FN:227,_RNvXININtCs55lPmkOpiMP_15tensor4all_core6tagsets_0KpKppEINtB5_6TagSetKpKppENtB5_10TagSetLike3lenB7_
FN:231,_RNvXININtCs55lPmkOpiMP_15tensor4all_core6tagsets_0KpKppEINtB5_6TagSetKpKppENtB5_10TagSetLike8capacityB7_
FN:19,_RNvYpNtNtCs55lPmkOpiMP_15tensor4all_core6tagset10TagSetLike8is_emptyB7_
FN:267,_RNCNvXs_NtCs55lPmkOpiMP_15tensor4all_core6tagsetINtB6_6TagSetKj4_Kj10_ENtB6_10TagSetLike10remove_tag0B8_
FN:244,_RNCNvXs_NtCs55lPmkOpiMP_15tensor4all_core6tagsetINtB6_6TagSetKj4_Kj10_ENtB6_10TagSetLike4iter0B8_
FN:87,_RNCNvYINtNtCs55lPmkOpiMP_15tensor4all_core6tagset6TagSetKj4_Kj10_ENtB7_10TagSetLike8from_str0B9_
FN:214,_RNvMNtCs55lPmkOpiMP_15tensor4all_core6tagsetINtB2_6TagSetKj4_Kj10_E10remove_tagB4_
FN:170,_RNvMNtCs55lPmkOpiMP_15tensor4all_core6tagsetINtB2_6TagSetKj4_Kj10_E3lenB4_
FN:153,_RNvMNtCs55lPmkOpiMP_15tensor4all_core6tagsetINtB2_6TagSetKj4_Kj10_E3newB4_
FN:209,_RNvMNtCs55lPmkOpiMP_15tensor4all_core6tagsetINtB2_6TagSetKj4_Kj10_E7add_tagB4_
FN:199,_RNvMNtCs55lPmkOpiMP_15tensor4all_core6tagsetINtB2_6TagSetKj4_Kj10_E7has_tagB4_
FN:180,_RNvMNtCs55lPmkOpiMP_15tensor4all_core6tagsetINtB2_6TagSetKj4_Kj10_E8capacityB4_
FN:165,_RNvMNtCs55lPmkOpiMP_15tensor4all_core6tagsetINtB2_6TagSetKj4_Kj10_E8from_strB4_
FN:175,_RNvMNtCs55lPmkOpiMP_15tensor4all_core6tagsetINtB2_6TagSetKj4_Kj10_E8is_emptyB4_
FN:284,_RNvMs0_NtCs55lPmkOpiMP_15tensor4all_core6tagsetINtB5_6TagSetKj4_Kj10_E16__add_tag_orderedB7_
FN:316,_RNvMs0_NtCs55lPmkOpiMP_15tensor4all_core6tagsetINtB5_6TagSetKj4_Kj10_E8__has_tagB7_
FN:324,_RNvXs1_NtCs55lPmkOpiMP_15tensor4all_core6tagsetINtB5_6TagSetKj4_Kj10_ENtNtCskzPJi2J8k3N_4core7default7Default7defaultB7_
FN:261,_RNvXs_NtCs55lPmkOpiMP_15tensor4all_core6tagsetINtB4_6TagSetKj4_Kj10_ENtB4_10TagSetLike10remove_tagB6_
FN:235,_RNvXs_NtCs55lPmkOpiMP_15tensor4all_core6tagsetINtB4_6TagSetKj4_Kj10_ENtB4_10TagSetLike3getB6_
FN:243,_RNvXs_NtCs55lPmkOpiMP_15tensor4all_core6tagsetINtB4_6TagSetKj4_Kj10_ENtB4_10TagSetLike4iterB6_
FN:255,_RNvXs_NtCs55lPmkOpiMP_15tensor4all_core6tagsetINtB4_6TagSetKj4_Kj10_ENtB4_10TagSetLike7add_tagB6_
FN:247,_RNvXs_NtCs55lPmkOpiMP_15tensor4all_core6tagsetINtB4_6TagSetKj4_Kj10_ENtB4_10TagSetLike7has_tagB6_
FN:82,_RNvYINtNtCs55lPmkOpiMP_15tensor4all_core6tagset6TagSetKj4_Kj10_ENtB5_10TagSetLike8from_strB7_
FN:66,_RINvYINtNtCs55lPmkOpiMP_15tensor4all_core6tagset6TagSetKj4_Kj10_ENtB6_10TagSetLike11common_tagsB3_ECslQuSOWOLVUT_13common_tagset
FN:42,_RINvYINtNtCs55lPmkOpiMP_15tensor4all_core6tagset6TagSetKj4_Kj10_ENtB6_10TagSetLike8has_tagsB3_ECslQuSOWOLVUT_13common_tagset
FN:153,_RNvMNtCs55lPmkOpiMP_15tensor4all_core6tagsetINtB2_6TagSetKj2_Kj10_E3newCslQuSOWOLVUT_13common_tagset
FN:209,_RNvMNtCs55lPmkOpiMP_15tensor4all_core6tagsetINtB2_6TagSetKj2_Kj10_E7add_tagCslQuSOWOLVUT_13common_tagset
FN:219,_RNvMNtCs55lPmkOpiMP_15tensor4all_core6tagsetINtB2_6TagSetKj4_Kj10_E11common_tagsCslQuSOWOLVUT_13common_tagset
FN:185,_RNvMNtCs55lPmkOpiMP_15tensor4all_core6tagsetINtB2_6TagSetKj4_Kj10_E3getCslQuSOWOLVUT_13common_tagset
FN:284,_RNvMs0_NtCs55lPmkOpiMP_15tensor4all_core6tagsetINtB5_6TagSetKj2_Kj10_E16__add_tag_orderedCslQuSOWOLVUT_13common_tagset
FN:316,_RNvMs0_NtCs55lPmkOpiMP_15tensor4all_core6tagsetINtB5_6TagSetKj2_Kj10_E8__has_tagCslQuSOWOLVUT_13common_tagset
FN:255,_RNvXs_NtCs55lPmkOpiMP_15tensor4all_core6tagsetINtB4_6TagSetKj2_Kj10_ENtB4_10TagSetLike7add_tagCslQuSOWOLVUT_13common_tagset
FN:227,_RNvXs_NtCs55lPmkOpiMP_15tensor4all_core6tagsetINtB4_6TagSetKj4_Kj10_ENtB4_10TagSetLike3lenCslQuSOWOLVUT_13common_tagset
FN:231,_RNvXs_NtCs55lPmkOpiMP_15tensor4all_core6tagsetINtB4_6TagSetKj4_Kj10_ENtB4_10TagSetLike8capacityCslQuSOWOLVUT_13common_tagset
FN:19,_RNvYINtNtCs55lPmkOpiMP_15tensor4all_core6tagset6TagSetKj4_Kj10_ENtB5_10TagSetLike8is_emptyCslQuSOWOLVUT_13common_tagset
FN:332,_RNvXs2_NtCs55lPmkOpiMP_15tensor4all_core6tagsetINtB5_6TagSetKj4_Kj10_ENtNtCskzPJi2J8k3N_4core3cmp9PartialEq2eqCsip3AcFacaFV_10linalg_svd
FN:194,_RNvMNtCs55lPmkOpiMP_15tensor4all_core6tagsetINtB2_6TagSetKj4_Kj10_E4iterCsdnTG4X9gKe5_15tensor4all_capi
FN:66,_RINvYpNtNtCs9q2tZtL9dYv_15tensor4all_core6tagset10TagSetLike11common_tagspEB8_
FN:42,_RINvYpNtNtCs9q2tZtL9dYv_15tensor4all_core6tagset10TagSetLike8has_tagspEB8_
FN:267,_RNCNvXININtCs9q2tZtL9dYv_15tensor4all_core6tagsets_0KpKppEINtB7_6TagSetKpKppENtB7_10TagSetLike10remove_tag0B9_
FN:244,_RNCNvXININtCs9q2tZtL9dYv_15tensor4all_core6tagsets_0KpKppEINtB7_6TagSetKpKppENtB7_10TagSetLike4iter0B9_
FN:214,_RNvMNtCs9q2tZtL9dYv_15tensor4all_core6tagsetINtB2_6TagSetKpKppE10remove_tagB4_
FN:219,_RNvMNtCs9q2tZtL9dYv_15tensor4all_core6tagsetINtB2_6TagSetKpKppE11common_tagsB4_
FN:185,_RNvMNtCs9q2tZtL9dYv_15tensor4all_core6tagsetINtB2_6TagSetKpKppE3getB4_
FN:170,_RNvMNtCs9q2tZtL9dYv_15tensor4all_core6tagsetINtB2_6TagSetKpKppE3lenB4_
FN:194,_RNvMNtCs9q2tZtL9dYv_15tensor4all_core6tagsetINtB2_6TagSetKpKppE4iterB4_
FN:209,_RNvMNtCs9q2tZtL9dYv_15tensor4all_core6tagsetINtB2_6TagSetKpKppE7add_tagB4_
FN:180,_RNvMNtCs9q2tZtL9dYv_15tensor4all_core6tagsetINtB2_6TagSetKpKppE8capacityB4_
FN:204,_RNvMNtCs9q2tZtL9dYv_15tensor4all_core6tagsetINtB2_6TagSetKpKppE8has_tagsB4_
FN:175,_RNvMNtCs9q2tZtL9dYv_15tensor4all_core6tagsetINtB2_6TagSetKpKppE8is_emptyB4_
FN:261,_RNvXININtCs9q2tZtL9dYv_15tensor4all_core6tagsets_0KpKppEINtB5_6TagSetKpKppENtB5_10TagSetLike10remove_tagB7_
FN:235,_RNvXININtCs9q2tZtL9dYv_15tensor4all_core6tagsets_0KpKppEINtB5_6TagSetKpKppENtB5_10TagSetLike3getB7_
FN:227,_RNvXININtCs9q2tZtL9dYv_15tensor4all_core6tagsets_0KpKppEINtB5_6TagSetKpKppENtB5_10TagSetLike3lenB7_
FN:243,_RNvXININtCs9q2tZtL9dYv_15tensor4all_core6tagsets_0KpKppEINtB5_6TagSetKpKppENtB5_10TagSetLike4iterB7_
FN:231,_RNvXININtCs9q2tZtL9dYv_15tensor4all_core6tagsets_0KpKppEINtB5_6TagSetKpKppENtB5_10TagSetLike8capacityB7_
FN:19,_RNvYpNtNtCs9q2tZtL9dYv_15tensor4all_core6tagset10TagSetLike8is_emptyB7_
FN:87,_RNCNvYINtNtCs9q2tZtL9dYv_15tensor4all_core6tagset6TagSetKj4_Kj10_ENtB7_10TagSetLike8from_str0B9_
FN:153,_RNvMNtCs9q2tZtL9dYv_15tensor4all_core6tagsetINtB2_6TagSetKj4_Kj10_E3newB4_
FN:199,_RNvMNtCs9q2tZtL9dYv_15tensor4all_core6tagsetINtB2_6TagSetKj4_Kj10_E7has_tagB4_
FN:165,_RNvMNtCs9q2tZtL9dYv_15tensor4all_core6tagsetINtB2_6TagSetKj4_Kj10_E8from_strB4_
FN:284,_RNvMs0_NtCs9q2tZtL9dYv_15tensor4all_core6tagsetINtB5_6TagSetKj4_Kj10_E16__add_tag_orderedB7_
FN:316,_RNvMs0_NtCs9q2tZtL9dYv_15tensor4all_core6tagsetINtB5_6TagSetKj4_Kj10_E8__has_tagB7_
FN:324,_RNvXs1_NtCs9q2tZtL9dYv_15tensor4all_core6tagsetINtB5_6TagSetKj4_Kj10_ENtNtCskzPJi2J8k3N_4core7default7Default7defaultB7_
FN:332,_RNvXs2_NtCs9q2tZtL9dYv_15tensor4all_core6tagsetINtB5_6TagSetKj4_Kj10_ENtNtCskzPJi2J8k3N_4core3cmp9PartialEq2eqB7_
FN:255,_RNvXs_NtCs9q2tZtL9dYv_15tensor4all_core6tagsetINtB4_6TagSetKj4_Kj10_ENtB4_10TagSetLike7add_tagB6_
FN:247,_RNvXs_NtCs9q2tZtL9dYv_15tensor4all_core6tagsetINtB4_6TagSetKj4_Kj10_ENtB4_10TagSetLike7has_tagB6_
FN:82,_RNvYINtNtCs9q2tZtL9dYv_15tensor4all_core6tagset6TagSetKj4_Kj10_ENtB5_10TagSetLike8from_strB7_
FNDA:0,_RINvYpNtNtCs55lPmkOpiMP_15tensor4all_core6tagset10TagSetLike11common_tagspEB8_
FNDA:0,_RINvYpNtNtCs55lPmkOpiMP_15tensor4all_core6tagset10TagSetLike8has_tagspEB8_
FNDA:0,_RNvMNtCs55lPmkOpiMP_15tensor4all_core6tagsetINtB2_6TagSetKpKppE11common_tagsB4_
FNDA:0,_RNvMNtCs55lPmkOpiMP_15tensor4all_core6tagsetINtB2_6TagSetKpKppE3getB4_
FNDA:0,_RNvMNtCs55lPmkOpiMP_15tensor4all_core6tagsetINtB2_6TagSetKpKppE4iterB4_
FNDA:0,_RNvMNtCs55lPmkOpiMP_15tensor4all_core6tagsetINtB2_6TagSetKpKppE8has_tagsB4_
FNDA:0,_RNvXININtCs55lPmkOpiMP_15tensor4all_core6tagsets2_0KpKppEINtB5_6TagSetKpKppENtNtCskzPJi2J8k3N_4core3cmp9PartialEq2eqB7_
FNDA:0,_RNvXININtCs55lPmkOpiMP_15tensor4all_core6tagsets_0KpKppEINtB5_6TagSetKpKppENtB5_10TagSetLike3lenB7_
FNDA:0,_RNvXININtCs55lPmkOpiMP_15tensor4all_core6tagsets_0KpKppEINtB5_6TagSetKpKppENtB5_10TagSetLike8capacityB7_
FNDA:0,_RNvYpNtNtCs55lPmkOpiMP_15tensor4all_core6tagset10TagSetLike8is_emptyB7_
FNDA:4,_RNCNvXs_NtCs55lPmkOpiMP_15tensor4all_core6tagsetINtB6_6TagSetKj4_Kj10_ENtB6_10TagSetLike10remove_tag0B8_
FNDA:3,_RNCNvXs_NtCs55lPmkOpiMP_15tensor4all_core6tagsetINtB6_6TagSetKj4_Kj10_ENtB6_10TagSetLike4iter0B8_
FNDA:2682,_RNCNvYINtNtCs55lPmkOpiMP_15tensor4all_core6tagset6TagSetKj4_Kj10_ENtB7_10TagSetLike8from_str0B9_
FNDA:1,_RNvMNtCs55lPmkOpiMP_15tensor4all_core6tagsetINtB2_6TagSetKj4_Kj10_E10remove_tagB4_
FNDA:15,_RNvMNtCs55lPmkOpiMP_15tensor4all_core6tagsetINtB2_6TagSetKj4_Kj10_E3lenB4_
FNDA:15296,_RNvMNtCs55lPmkOpiMP_15tensor4all_core6tagsetINtB2_6TagSetKj4_Kj10_E3newB4_
FNDA:5,_RNvMNtCs55lPmkOpiMP_15tensor4all_core6tagsetINtB2_6TagSetKj4_Kj10_E7add_tagB4_
FNDA:48,_RNvMNtCs55lPmkOpiMP_15tensor4all_core6tagsetINtB2_6TagSetKj4_Kj10_E7has_tagB4_
FNDA:1,_RNvMNtCs55lPmkOpiMP_15tensor4all_core6tagsetINtB2_6TagSetKj4_Kj10_E8capacityB4_
FNDA:654,_RNvMNtCs55lPmkOpiMP_15tensor4all_core6tagsetINtB2_6TagSetKj4_Kj10_E8from_strB4_
FNDA:0,_RNvMNtCs55lPmkOpiMP_15tensor4all_core6tagsetINtB2_6TagSetKj4_Kj10_E8is_emptyB4_
FNDA:695,_RNvMs0_NtCs55lPmkOpiMP_15tensor4all_core6tagsetINtB5_6TagSetKj4_Kj10_E16__add_tag_orderedB7_
FNDA:760,_RNvMs0_NtCs55lPmkOpiMP_15tensor4all_core6tagsetINtB5_6TagSetKj4_Kj10_E8__has_tagB7_
FNDA:12131,_RNvXs1_NtCs55lPmkOpiMP_15tensor4all_core6tagsetINtB5_6TagSetKj4_Kj10_ENtNtCskzPJi2J8k3N_4core7default7Default7defaultB7_
FNDA:2,_RNvXs_NtCs55lPmkOpiMP_15tensor4all_core6tagsetINtB4_6TagSetKj4_Kj10_ENtB4_10TagSetLike10remove_tagB6_
FNDA:12,_RNvXs_NtCs55lPmkOpiMP_15tensor4all_core6tagsetINtB4_6TagSetKj4_Kj10_ENtB4_10TagSetLike3getB6_
FNDA:1,_RNvXs_NtCs55lPmkOpiMP_15tensor4all_core6tagsetINtB4_6TagSetKj4_Kj10_ENtB4_10TagSetLike4iterB6_
FNDA:695,_RNvXs_NtCs55lPmkOpiMP_15tensor4all_core6tagsetINtB4_6TagSetKj4_Kj10_ENtB4_10TagSetLike7add_tagB6_
FNDA:65,_RNvXs_NtCs55lPmkOpiMP_15tensor4all_core6tagsetINtB4_6TagSetKj4_Kj10_ENtB4_10TagSetLike7has_tagB6_
FNDA:657,_RNvYINtNtCs55lPmkOpiMP_15tensor4all_core6tagset6TagSetKj4_Kj10_ENtB5_10TagSetLike8from_strB7_
FNDA:2,_RINvYINtNtCs55lPmkOpiMP_15tensor4all_core6tagset6TagSetKj4_Kj10_ENtB6_10TagSetLike11common_tagsB3_ECslQuSOWOLVUT_13common_tagset
FNDA:1,_RINvYINtNtCs55lPmkOpiMP_15tensor4all_core6tagset6TagSetKj4_Kj10_ENtB6_10TagSetLike8has_tagsB3_ECslQuSOWOLVUT_13common_tagset
FNDA:1,_RNvMNtCs55lPmkOpiMP_15tensor4all_core6tagsetINtB2_6TagSetKj2_Kj10_E3newCslQuSOWOLVUT_13common_tagset
FNDA:3,_RNvMNtCs55lPmkOpiMP_15tensor4all_core6tagsetINtB2_6TagSetKj2_Kj10_E7add_tagCslQuSOWOLVUT_13common_tagset
FNDA:1,_RNvMNtCs55lPmkOpiMP_15tensor4all_core6tagsetINtB2_6TagSetKj4_Kj10_E11common_tagsCslQuSOWOLVUT_13common_tagset
FNDA:9,_RNvMNtCs55lPmkOpiMP_15tensor4all_core6tagsetINtB2_6TagSetKj4_Kj10_E3getCslQuSOWOLVUT_13common_tagset
FNDA:3,_RNvMs0_NtCs55lPmkOpiMP_15tensor4all_core6tagsetINtB5_6TagSetKj2_Kj10_E16__add_tag_orderedCslQuSOWOLVUT_13common_tagset
FNDA:3,_RNvMs0_NtCs55lPmkOpiMP_15tensor4all_core6tagsetINtB5_6TagSetKj2_Kj10_E8__has_tagCslQuSOWOLVUT_13common_tagset
FNDA:3,_RNvXs_NtCs55lPmkOpiMP_15tensor4all_core6tagsetINtB4_6TagSetKj2_Kj10_ENtB4_10TagSetLike7add_tagCslQuSOWOLVUT_13common_tagset
FNDA:8,_RNvXs_NtCs55lPmkOpiMP_15tensor4all_core6tagsetINtB4_6TagSetKj4_Kj10_ENtB4_10TagSetLike3lenCslQuSOWOLVUT_13common_tagset
FNDA:1,_RNvXs_NtCs55lPmkOpiMP_15tensor4all_core6tagsetINtB4_6TagSetKj4_Kj10_ENtB4_10TagSetLike8capacityCslQuSOWOLVUT_13common_tagset
FNDA:1,_RNvYINtNtCs55lPmkOpiMP_15tensor4all_core6tagset6TagSetKj4_Kj10_ENtB5_10TagSetLike8is_emptyCslQuSOWOLVUT_13common_tagset
FNDA:0,_RNvXs2_NtCs55lPmkOpiMP_15tensor4all_core6tagsetINtB5_6TagSetKj4_Kj10_ENtNtCskzPJi2J8k3N_4core3cmp9PartialEq2eqCsip3AcFacaFV_10linalg_svd
FNDA:2,_RNvMNtCs55lPmkOpiMP_15tensor4all_core6tagsetINtB2_6TagSetKj4_Kj10_E4iterCsdnTG4X9gKe5_15tensor4all_capi
FNDA:0,_RINvYpNtNtCs9q2tZtL9dYv_15tensor4all_core6tagset10TagSetLike11common_tagspEB8_
FNDA:0,_RINvYpNtNtCs9q2tZtL9dYv_15tensor4all_core6tagset10TagSetLike8has_tagspEB8_
FNDA:0,_RNCNvXININtCs9q2tZtL9dYv_15tensor4all_core6tagsets_0KpKppEINtB7_6TagSetKpKppENtB7_10TagSetLike10remove_tag0B9_
FNDA:0,_RNCNvXININtCs9q2tZtL9dYv_15tensor4all_core6tagsets_0KpKppEINtB7_6TagSetKpKppENtB7_10TagSetLike4iter0B9_
FNDA:0,_RNvMNtCs9q2tZtL9dYv_15tensor4all_core6tagsetINtB2_6TagSetKpKppE10remove_tagB4_
FNDA:0,_RNvMNtCs9q2tZtL9dYv_15tensor4all_core6tagsetINtB2_6TagSetKpKppE11common_tagsB4_
FNDA:0,_RNvMNtCs9q2tZtL9dYv_15tensor4all_core6tagsetINtB2_6TagSetKpKppE3getB4_
FNDA:0,_RNvMNtCs9q2tZtL9dYv_15tensor4all_core6tagsetINtB2_6TagSetKpKppE3lenB4_
FNDA:0,_RNvMNtCs9q2tZtL9dYv_15tensor4all_core6tagsetINtB2_6TagSetKpKppE4iterB4_
FNDA:0,_RNvMNtCs9q2tZtL9dYv_15tensor4all_core6tagsetINtB2_6TagSetKpKppE7add_tagB4_
FNDA:0,_RNvMNtCs9q2tZtL9dYv_15tensor4all_core6tagsetINtB2_6TagSetKpKppE8capacityB4_
FNDA:0,_RNvMNtCs9q2tZtL9dYv_15tensor4all_core6tagsetINtB2_6TagSetKpKppE8has_tagsB4_
FNDA:0,_RNvMNtCs9q2tZtL9dYv_15tensor4all_core6tagsetINtB2_6TagSetKpKppE8is_emptyB4_
FNDA:0,_RNvXININtCs9q2tZtL9dYv_15tensor4all_core6tagsets_0KpKppEINtB5_6TagSetKpKppENtB5_10TagSetLike10remove_tagB7_
FNDA:0,_RNvXININtCs9q2tZtL9dYv_15tensor4all_core6tagsets_0KpKppEINtB5_6TagSetKpKppENtB5_10TagSetLike3getB7_
FNDA:0,_RNvXININtCs9q2tZtL9dYv_15tensor4all_core6tagsets_0KpKppEINtB5_6TagSetKpKppENtB5_10TagSetLike3lenB7_
FNDA:0,_RNvXININtCs9q2tZtL9dYv_15tensor4all_core6tagsets_0KpKppEINtB5_6TagSetKpKppENtB5_10TagSetLike4iterB7_
FNDA:0,_RNvXININtCs9q2tZtL9dYv_15tensor4all_core6tagsets_0KpKppEINtB5_6TagSetKpKppENtB5_10TagSetLike8capacityB7_
FNDA:0,_RNvYpNtNtCs9q2tZtL9dYv_15tensor4all_core6tagset10TagSetLike8is_emptyB7_
FNDA:27,_RNCNvYINtNtCs9q2tZtL9dYv_15tensor4all_core6tagset6TagSetKj4_Kj10_ENtB7_10TagSetLike8from_str0B9_
FNDA:162,_RNvMNtCs9q2tZtL9dYv_15tensor4all_core6tagsetINtB2_6TagSetKj4_Kj10_E3newB4_
FNDA:2,_RNvMNtCs9q2tZtL9dYv_15tensor4all_core6tagsetINtB2_6TagSetKj4_Kj10_E7has_tagB4_
FNDA:6,_RNvMNtCs9q2tZtL9dYv_15tensor4all_core6tagsetINtB2_6TagSetKj4_Kj10_E8from_strB4_
FNDA:7,_RNvMs0_NtCs9q2tZtL9dYv_15tensor4all_core6tagsetINtB5_6TagSetKj4_Kj10_E16__add_tag_orderedB7_
FNDA:9,_RNvMs0_NtCs9q2tZtL9dYv_15tensor4all_core6tagsetINtB5_6TagSetKj4_Kj10_E8__has_tagB7_
FNDA:137,_RNvXs1_NtCs9q2tZtL9dYv_15tensor4all_core6tagsetINtB5_6TagSetKj4_Kj10_ENtNtCskzPJi2J8k3N_4core7default7Default7defaultB7_
FNDA:0,_RNvXs2_NtCs9q2tZtL9dYv_15tensor4all_core6tagsetINtB5_6TagSetKj4_Kj10_ENtNtCskzPJi2J8k3N_4core3cmp9PartialEq2eqB7_
FNDA:7,_RNvXs_NtCs9q2tZtL9dYv_15tensor4all_core6tagsetINtB4_6TagSetKj4_Kj10_ENtB4_10TagSetLike7add_tagB6_
FNDA:2,_RNvXs_NtCs9q2tZtL9dYv_15tensor4all_core6tagsetINtB4_6TagSetKj4_Kj10_ENtB4_10TagSetLike7has_tagB6_
FNDA:6,_RNvYINtNtCs9q2tZtL9dYv_15tensor4all_core6tagset6TagSetKj4_Kj10_ENtB5_10TagSetLike8from_strB7_
FNF:30
FNH:27
DA:19,1
DA:20,1
DA:21,1
DA:42,1
DA:43,2
DA:44,2
DA:45,2
DA:46,0
DA:47,2
DA:48,0
DA:50,1
DA:51,1
DA:66,2
DA:67,2
DA:68,6
DA:69,6
DA:70,6
DA:71,5
DA:72,5
DA:73,0
DA:75,2
DA:76,2
DA:82,663
DA:83,663
DA:86,691
DA:87,2709
DA:88,691
DA:89,691
DA:90,0
DA:93,663
DA:94,663
DA:153,15459
DA:154,15459
DA:155,15459
DA:156,15459
DA:157,15459
DA:158,15459
DA:165,660
DA:166,660
DA:167,660
DA:170,15
DA:171,15
DA:172,15
DA:175,0
DA:176,0
DA:177,0
DA:180,1
DA:181,1
DA:182,1
DA:185,9
DA:186,9
DA:187,9
DA:189,0
DA:191,9
DA:194,2
DA:195,2
DA:196,2
DA:199,50
DA:200,50
DA:201,50
DA:204,0
DA:205,0
DA:206,0
DA:209,8
DA:210,8
DA:211,8
DA:214,1
DA:215,1
DA:216,1
DA:219,1
DA:220,1
DA:221,1
DA:227,8
DA:228,8
DA:229,8
DA:231,1
DA:232,1
DA:233,1
DA:235,12
DA:236,12
DA:237,11
DA:239,1
DA:241,12
DA:243,1
DA:244,3
DA:245,1
DA:247,67
DA:248,67
DA:249,67
DA:250,0
DA:252,67
DA:253,67
DA:255,705
DA:256,705
DA:257,705
DA:258,705
DA:259,705
DA:261,2
DA:262,2
DA:263,2
DA:264,0
DA:267,4
DA:269,3
DA:270,3
DA:271,3
DA:272,2
DA:273,2
DA:275,0
DA:277,2
DA:284,705
DA:286,705
DA:287,0
DA:288,705
DA:291,705
DA:292,1
DA:293,1
DA:294,1
DA:295,1
DA:296,704
DA:299,704
DA:300,704
DA:301,704
DA:304,704
DA:305,7
DA:306,7
DA:309,704
DA:310,704
DA:312,704
DA:313,705
DA:316,772
DA:317,772
DA:318,772
DA:324,12268
DA:325,12268
DA:326,12268
DA:332,0
DA:333,0
DA:334,0
DA:335,0
DA:336,0
DA:337,0
BRF:0
BRH:0
LF:144
LH:121
end_of_record
SF:/Users/ken/git_for_collab4/tensor4all-rs/crates/tensor4all-core/src/tensor_index.rs
FN:88,_RNvYpNtNtCs55lPmkOpiMP_15tensor4all_core12tensor_index11TensorIndex17replaceinds_pairsB7_
FN:42,_RNvYpNtNtCs55lPmkOpiMP_15tensor4all_core12tensor_index11TensorIndex20num_external_indicesB7_
FN:88,_RNvYpNtNtCs9q2tZtL9dYv_15tensor4all_core12tensor_index11TensorIndex17replaceinds_pairsB7_
FN:42,_RNvYpNtNtCs9q2tZtL9dYv_15tensor4all_core12tensor_index11TensorIndex20num_external_indicesB7_
FNDA:0,_RNvYpNtNtCs55lPmkOpiMP_15tensor4all_core12tensor_index11TensorIndex17replaceinds_pairsB7_
FNDA:0,_RNvYpNtNtCs55lPmkOpiMP_15tensor4all_core12tensor_index11TensorIndex20num_external_indicesB7_
FNDA:0,_RNvYpNtNtCs9q2tZtL9dYv_15tensor4all_core12tensor_index11TensorIndex17replaceinds_pairsB7_
FNDA:0,_RNvYpNtNtCs9q2tZtL9dYv_15tensor4all_core12tensor_index11TensorIndex20num_external_indicesB7_
FNF:2
FNH:0
DA:42,0
DA:43,0
DA:44,0
DA:88,0
DA:89,0
DA:90,0
DA:91,0
BRF:0
BRH:0
LF:7
LH:0
end_of_record
SF:/Users/ken/git_for_collab4/tensor4all-rs/crates/tensor4all-core/src/tensor_like.rs
FN:477,_RNvYpNtNtCs55lPmkOpiMP_15tensor4all_core11tensor_like10TensorLike4normB7_
FN:537,_RNvYpNtNtCs55lPmkOpiMP_15tensor4all_core11tensor_like10TensorLike5deltaB7_
FN:148,_RNvMs_NtCs55lPmkOpiMP_15tensor4all_core11tensor_likeNtB4_16FactorizeOptions13with_max_rank
FN:136,_RNvMs_NtCs55lPmkOpiMP_15tensor4all_core11tensor_likeNtB4_16FactorizeOptions14with_canonical
FN:128,_RNvMs_NtCs55lPmkOpiMP_15tensor4all_core11tensor_likeNtB4_16FactorizeOptions2ci
FN:120,_RNvMs_NtCs55lPmkOpiMP_15tensor4all_core11tensor_likeNtB4_16FactorizeOptions2lu
FN:112,_RNvMs_NtCs55lPmkOpiMP_15tensor4all_core11tensor_likeNtB4_16FactorizeOptions2qr
FN:104,_RNvMs_NtCs55lPmkOpiMP_15tensor4all_core11tensor_likeNtB4_16FactorizeOptions3svd
FN:142,_RNvMs_NtCs55lPmkOpiMP_15tensor4all_core11tensor_likeNtB4_16FactorizeOptions9with_rtol
FN:92,_RNvXNtCs55lPmkOpiMP_15tensor4all_core11tensor_likeNtB2_16FactorizeOptionsNtNtCskzPJi2J8k3N_4core7default7Default7default
FN:537,_RNvYNtNtNtCs55lPmkOpiMP_15tensor4all_core8defaults12tensordynlen12TensorDynLenNtNtB8_11tensor_like10TensorLike5deltaCslQORuovpJia_17tensor4all_treetn
FN:477,_RNvYNtNtNtCs55lPmkOpiMP_15tensor4all_core8defaults12tensordynlen12TensorDynLenNtNtB8_11tensor_like10TensorLike4normCs3GGJ3tXgfXm_8linsolve
FN:597,_RINvNtNtCs9q2tZtL9dYv_15tensor4all_core11tensor_like5tests13__assert_sizedpEB6_
FN:148,_RNvMs_NtCs9q2tZtL9dYv_15tensor4all_core11tensor_likeNtB4_16FactorizeOptions13with_max_rank
FN:136,_RNvMs_NtCs9q2tZtL9dYv_15tensor4all_core11tensor_likeNtB4_16FactorizeOptions14with_canonical
FN:128,_RNvMs_NtCs9q2tZtL9dYv_15tensor4all_core11tensor_likeNtB4_16FactorizeOptions2ci
FN:120,_RNvMs_NtCs9q2tZtL9dYv_15tensor4all_core11tensor_likeNtB4_16FactorizeOptions2lu
FN:112,_RNvMs_NtCs9q2tZtL9dYv_15tensor4all_core11tensor_likeNtB4_16FactorizeOptions2qr
FN:104,_RNvMs_NtCs9q2tZtL9dYv_15tensor4all_core11tensor_likeNtB4_16FactorizeOptions3svd
FN:142,_RNvMs_NtCs9q2tZtL9dYv_15tensor4all_core11tensor_likeNtB4_16FactorizeOptions9with_rtol
FN:92,_RNvXNtCs9q2tZtL9dYv_15tensor4all_core11tensor_likeNtB2_16FactorizeOptionsNtNtCskzPJi2J8k3N_4core7default7Default7default
FN:537,_RNvYpNtNtCs9q2tZtL9dYv_15tensor4all_core11tensor_like10TensorLike5deltaB7_
FN:477,_RNvYNtNtNtCs9q2tZtL9dYv_15tensor4all_core8defaults12tensordynlen12TensorDynLenNtNtB8_11tensor_like10TensorLike4normB8_
FN:537,_RNvYNtNtNtCs55lPmkOpiMP_15tensor4all_core8defaults12tensordynlen12TensorDynLenNtNtB8_11tensor_like10TensorLike5deltaCsejdtHiUIaxk_17tensor4all_treetn
FNDA:0,_RNvYpNtNtCs55lPmkOpiMP_15tensor4all_core11tensor_like10TensorLike4normB7_
FNDA:0,_RNvYpNtNtCs55lPmkOpiMP_15tensor4all_core11tensor_like10TensorLike5deltaB7_
FNDA:18,_RNvMs_NtCs55lPmkOpiMP_15tensor4all_core11tensor_likeNtB4_16FactorizeOptions13with_max_rank
FNDA:25,_RNvMs_NtCs55lPmkOpiMP_15tensor4all_core11tensor_likeNtB4_16FactorizeOptions14with_canonical
FNDA:0,_RNvMs_NtCs55lPmkOpiMP_15tensor4all_core11tensor_likeNtB4_16FactorizeOptions2ci
FNDA:1,_RNvMs_NtCs55lPmkOpiMP_15tensor4all_core11tensor_likeNtB4_16FactorizeOptions2lu
FNDA:2,_RNvMs_NtCs55lPmkOpiMP_15tensor4all_core11tensor_likeNtB4_16FactorizeOptions2qr
FNDA:26,_RNvMs_NtCs55lPmkOpiMP_15tensor4all_core11tensor_likeNtB4_16FactorizeOptions3svd
FNDA:2,_RNvMs_NtCs55lPmkOpiMP_15tensor4all_core11tensor_likeNtB4_16FactorizeOptions9with_rtol
FNDA:29,_RNvXNtCs55lPmkOpiMP_15tensor4all_core11tensor_likeNtB2_16FactorizeOptionsNtNtCskzPJi2J8k3N_4core7default7Default7default
FNDA:0,_RNvYNtNtNtCs55lPmkOpiMP_15tensor4all_core8defaults12tensordynlen12TensorDynLenNtNtB8_11tensor_like10TensorLike5deltaCslQORuovpJia_17tensor4all_treetn
FNDA:413,_RNvYNtNtNtCs55lPmkOpiMP_15tensor4all_core8defaults12tensordynlen12TensorDynLenNtNtB8_11tensor_like10TensorLike4normCs3GGJ3tXgfXm_8linsolve
FNDA:0,_RINvNtNtCs9q2tZtL9dYv_15tensor4all_core11tensor_like5tests13__assert_sizedpEB6_
FNDA:0,_RNvMs_NtCs9q2tZtL9dYv_15tensor4all_core11tensor_likeNtB4_16FactorizeOptions13with_max_rank
FNDA:0,_RNvMs_NtCs9q2tZtL9dYv_15tensor4all_core11tensor_likeNtB4_16FactorizeOptions14with_canonical
FNDA:0,_RNvMs_NtCs9q2tZtL9dYv_15tensor4all_core11tensor_likeNtB4_16FactorizeOptions2ci
FNDA:0,_RNvMs_NtCs9q2tZtL9dYv_15tensor4all_core11tensor_likeNtB4_16FactorizeOptions2lu
FNDA:0,_RNvMs_NtCs9q2tZtL9dYv_15tensor4all_core11tensor_likeNtB4_16FactorizeOptions2qr
FNDA:0,_RNvMs_NtCs9q2tZtL9dYv_15tensor4all_core11tensor_likeNtB4_16FactorizeOptions3svd
FNDA:0,_RNvMs_NtCs9q2tZtL9dYv_15tensor4all_core11tensor_likeNtB4_16FactorizeOptions9with_rtol
FNDA:0,_RNvXNtCs9q2tZtL9dYv_15tensor4all_core11tensor_likeNtB2_16FactorizeOptionsNtNtCskzPJi2J8k3N_4core7default7Default7default
FNDA:0,_RNvYpNtNtCs9q2tZtL9dYv_15tensor4all_core11tensor_like10TensorLike5deltaB7_
FNDA:15,_RNvYNtNtNtCs9q2tZtL9dYv_15tensor4all_core8defaults12tensordynlen12TensorDynLenNtNtB8_11tensor_like10TensorLike4normB8_
FNDA:7,_RNvYNtNtNtCs55lPmkOpiMP_15tensor4all_core8defaults12tensordynlen12TensorDynLenNtNtB8_11tensor_like10TensorLike5deltaCsejdtHiUIaxk_17tensor4all_treetn
FNF:11
FNH:9
DA:92,29
DA:93,29
DA:94,29
DA:95,29
DA:96,29
DA:97,29
DA:98,29
DA:99,29
DA:104,26
DA:105,26
DA:106,26
DA:107,26
DA:108,26
DA:109,26
DA:112,2
DA:113,2
DA:114,2
DA:115,2
DA:116,2
DA:117,2
DA:120,1
DA:121,1
DA:122,1
DA:123,1
DA:124,1
DA:125,1
DA:128,0
DA:129,0
DA:130,0
DA:131,0
DA:132,0
DA:133,0
DA:136,25
DA:137,25
DA:138,25
DA:139,25
DA:142,2
DA:143,2
DA:144,2
DA:145,2
DA:148,18
DA:149,18
DA:150,18
DA:151,18
DA:477,428
DA:478,428
DA:479,428
DA:537,7
DA:538,7
DA:539,7
DA:540,7
DA:542,7
DA:543,0
DA:544,0
DA:545,0
DA:546,0
DA:547,0
DA:548,7
DA:550,7
DA:552,1
DA:553,6
DA:556,6
DA:557,5
DA:558,1
DA:559,1
DA:561,5
DA:562,7
DA:597,0
DA:599,0
BRF:0
BRH:0
LF:69
LH:56
end_of_record
SF:/Users/ken/git_for_collab4/tensor4all-rs/crates/tensor4all-core/src/truncation.rs
FN:145,_RNvYpNtNtCs55lPmkOpiMP_15tensor4all_core10truncation19HasTruncationParams13with_max_rankB7_
FN:126,_RNvYpNtNtCs55lPmkOpiMP_15tensor4all_core10truncation19HasTruncationParams4rtolB7_
FN:131,_RNvYpNtNtCs55lPmkOpiMP_15tensor4all_core10truncation19HasTruncationParams8max_rankB7_
FN:136,_RNvYpNtNtCs55lPmkOpiMP_15tensor4all_core10truncation19HasTruncationParams9with_rtolB7_
FN:27,_RNvMNtCs55lPmkOpiMP_15tensor4all_core10truncationNtB2_16DecompositionAlg12is_svd_based
FN:33,_RNvMNtCs55lPmkOpiMP_15tensor4all_core10truncationNtB2_16DecompositionAlg13is_orthogonal
FN:87,_RNvMs_NtCs55lPmkOpiMP_15tensor4all_core10truncationNtB4_16TruncationParams13with_max_rank
FN:94,_RNvMs_NtCs55lPmkOpiMP_15tensor4all_core10truncationNtB4_16TruncationParams14effective_rtol
FN:100,_RNvMs_NtCs55lPmkOpiMP_15tensor4all_core10truncationNtB4_16TruncationParams18effective_max_rank
FN:74,_RNvMs_NtCs55lPmkOpiMP_15tensor4all_core10truncationNtB4_16TruncationParams3new
FN:106,_RNvMs_NtCs55lPmkOpiMP_15tensor4all_core10truncationNtB4_16TruncationParams5merge
FN:80,_RNvMs_NtCs55lPmkOpiMP_15tensor4all_core10truncationNtB4_16TruncationParams9with_rtol
FN:156,_RNvXs0_NtCs55lPmkOpiMP_15tensor4all_core10truncationNtB5_16TruncationParamsNtB5_19HasTruncationParams17truncation_params
FN:160,_RNvXs0_NtCs55lPmkOpiMP_15tensor4all_core10truncationNtB5_16TruncationParamsNtB5_19HasTruncationParams21truncation_params_mut
FN:145,_RNvYpNtNtCs9q2tZtL9dYv_15tensor4all_core10truncation19HasTruncationParams13with_max_rankB7_
FN:136,_RNvYpNtNtCs9q2tZtL9dYv_15tensor4all_core10truncation19HasTruncationParams9with_rtolB7_
FN:27,_RNvMNtCs9q2tZtL9dYv_15tensor4all_core10truncationNtB2_16DecompositionAlg12is_svd_based
FN:33,_RNvMNtCs9q2tZtL9dYv_15tensor4all_core10truncationNtB2_16DecompositionAlg13is_orthogonal
FN:87,_RNvMs_NtCs9q2tZtL9dYv_15tensor4all_core10truncationNtB4_16TruncationParams13with_max_rank
FN:94,_RNvMs_NtCs9q2tZtL9dYv_15tensor4all_core10truncationNtB4_16TruncationParams14effective_rtol
FN:100,_RNvMs_NtCs9q2tZtL9dYv_15tensor4all_core10truncationNtB4_16TruncationParams18effective_max_rank
FN:74,_RNvMs_NtCs9q2tZtL9dYv_15tensor4all_core10truncationNtB4_16TruncationParams3new
FN:106,_RNvMs_NtCs9q2tZtL9dYv_15tensor4all_core10truncationNtB4_16TruncationParams5merge
FN:80,_RNvMs_NtCs9q2tZtL9dYv_15tensor4all_core10truncationNtB4_16TruncationParams9with_rtol
FN:156,_RNvXs0_NtCs9q2tZtL9dYv_15tensor4all_core10truncationNtB5_16TruncationParamsNtB5_19HasTruncationParams17truncation_params
FN:160,_RNvXs0_NtCs9q2tZtL9dYv_15tensor4all_core10truncationNtB5_16TruncationParamsNtB5_19HasTruncationParams21truncation_params_mut
FN:178,_RNvNtNtCs9q2tZtL9dYv_15tensor4all_core10truncation5testss_21test_effective_values
FN:189,_RNvNtNtCs9q2tZtL9dYv_15tensor4all_core10truncation5testss_22test_decomposition_alg
FN:210,_RNvNtNtCs9q2tZtL9dYv_15tensor4all_core10truncation5testss_28test_truncation_params_merge
FN:204,_RNvNtNtCs9q2tZtL9dYv_15tensor4all_core10truncation5testss_30test_decomposition_alg_default
FN:170,_RNvNtNtCs9q2tZtL9dYv_15tensor4all_core10truncation5testss_30test_truncation_params_builder
FN:226,_RNvNtNtCs9q2tZtL9dYv_15tensor4all_core10truncation5testss_32test_has_truncation_params_trait
FN:126,_RNvYNtNtCs9q2tZtL9dYv_15tensor4all_core10truncation16TruncationParamsNtB4_19HasTruncationParams4rtolB6_
FN:131,_RNvYNtNtCs9q2tZtL9dYv_15tensor4all_core10truncation16TruncationParamsNtB4_19HasTruncationParams8max_rankB6_
FNDA:0,_RNvYpNtNtCs55lPmkOpiMP_15tensor4all_core10truncation19HasTruncationParams13with_max_rankB7_
FNDA:0,_RNvYpNtNtCs55lPmkOpiMP_15tensor4all_core10truncation19HasTruncationParams4rtolB7_
FNDA:0,_RNvYpNtNtCs55lPmkOpiMP_15tensor4all_core10truncation19HasTruncationParams8max_rankB7_
FNDA:0,_RNvYpNtNtCs55lPmkOpiMP_15tensor4all_core10truncation19HasTruncationParams9with_rtolB7_
FNDA:0,_RNvMNtCs55lPmkOpiMP_15tensor4all_core10truncationNtB2_16DecompositionAlg12is_svd_based
FNDA:0,_RNvMNtCs55lPmkOpiMP_15tensor4all_core10truncationNtB2_16DecompositionAlg13is_orthogonal
FNDA:0,_RNvMs_NtCs55lPmkOpiMP_15tensor4all_core10truncationNtB4_16TruncationParams13with_max_rank
FNDA:621,_RNvMs_NtCs55lPmkOpiMP_15tensor4all_core10truncationNtB4_16TruncationParams14effective_rtol
FNDA:0,_RNvMs_NtCs55lPmkOpiMP_15tensor4all_core10truncationNtB4_16TruncationParams18effective_max_rank
FNDA:3,_RNvMs_NtCs55lPmkOpiMP_15tensor4all_core10truncationNtB4_16TruncationParams3new
FNDA:0,_RNvMs_NtCs55lPmkOpiMP_15tensor4all_core10truncationNtB4_16TruncationParams5merge
FNDA:3,_RNvMs_NtCs55lPmkOpiMP_15tensor4all_core10truncationNtB4_16TruncationParams9with_rtol
FNDA:0,_RNvXs0_NtCs55lPmkOpiMP_15tensor4all_core10truncationNtB5_16TruncationParamsNtB5_19HasTruncationParams17truncation_params
FNDA:0,_RNvXs0_NtCs55lPmkOpiMP_15tensor4all_core10truncationNtB5_16TruncationParamsNtB5_19HasTruncationParams21truncation_params_mut
FNDA:0,_RNvYpNtNtCs9q2tZtL9dYv_15tensor4all_core10truncation19HasTruncationParams13with_max_rankB7_
FNDA:0,_RNvYpNtNtCs9q2tZtL9dYv_15tensor4all_core10truncation19HasTruncationParams9with_rtolB7_
FNDA:5,_RNvMNtCs9q2tZtL9dYv_15tensor4all_core10truncationNtB2_16DecompositionAlg12is_svd_based
FNDA:5,_RNvMNtCs9q2tZtL9dYv_15tensor4all_core10truncationNtB2_16DecompositionAlg13is_orthogonal
FNDA:4,_RNvMs_NtCs9q2tZtL9dYv_15tensor4all_core10truncationNtB4_16TruncationParams13with_max_rank
FNDA:2,_RNvMs_NtCs9q2tZtL9dYv_15tensor4all_core10truncationNtB4_16TruncationParams14effective_rtol
FNDA:2,_RNvMs_NtCs9q2tZtL9dYv_15tensor4all_core10truncationNtB4_16TruncationParams18effective_max_rank
FNDA:6,_RNvMs_NtCs9q2tZtL9dYv_15tensor4all_core10truncationNtB4_16TruncationParams3new
FNDA:2,_RNvMs_NtCs9q2tZtL9dYv_15tensor4all_core10truncationNtB4_16TruncationParams5merge
FNDA:4,_RNvMs_NtCs9q2tZtL9dYv_15tensor4all_core10truncationNtB4_16TruncationParams9with_rtol
FNDA:3,_RNvXs0_NtCs9q2tZtL9dYv_15tensor4all_core10truncationNtB5_16TruncationParamsNtB5_19HasTruncationParams17truncation_params
FNDA:1,_RNvXs0_NtCs9q2tZtL9dYv_15tensor4all_core10truncationNtB5_16TruncationParamsNtB5_19HasTruncationParams21truncation_params_mut
FNDA:1,_RNvNtNtCs9q2tZtL9dYv_15tensor4all_core10truncation5testss_21test_effective_values
FNDA:1,_RNvNtNtCs9q2tZtL9dYv_15tensor4all_core10truncation5testss_22test_decomposition_alg
FNDA:1,_RNvNtNtCs9q2tZtL9dYv_15tensor4all_core10truncation5testss_28test_truncation_params_merge
FNDA:1,_RNvNtNtCs9q2tZtL9dYv_15tensor4all_core10truncation5testss_30test_decomposition_alg_default
FNDA:1,_RNvNtNtCs9q2tZtL9dYv_15tensor4all_core10truncation5testss_30test_truncation_params_builder
FNDA:1,_RNvNtNtCs9q2tZtL9dYv_15tensor4all_core10truncation5testss_32test_has_truncation_params_trait
FNDA:1,_RNvYNtNtCs9q2tZtL9dYv_15tensor4all_core10truncation16TruncationParamsNtB4_19HasTruncationParams4rtolB6_
FNDA:1,_RNvYNtNtCs9q2tZtL9dYv_15tensor4all_core10truncation16TruncationParamsNtB4_19HasTruncationParams8max_rankB6_
FNF:20
FNH:18
DA:27,5
DA:28,5
DA:29,5
DA:33,5
DA:34,5
DA:35,5
DA:74,9
DA:75,9
DA:76,9
DA:80,7
DA:81,7
DA:82,7
DA:83,7
DA:87,4
DA:88,4
DA:89,4
DA:90,4
DA:94,623
DA:95,623
DA:96,623
DA:100,2
DA:101,2
DA:102,2
DA:106,2
DA:107,2
DA:108,2
DA:109,2
DA:110,2
DA:111,2
DA:126,1
DA:127,1
DA:128,1
DA:131,1
DA:132,1
DA:133,1
DA:136,0
DA:137,0
DA:138,0
DA:140,0
DA:141,0
DA:142,0
DA:145,0
DA:146,0
DA:147,0
DA:149,0
DA:150,0
DA:151,0
DA:156,3
DA:157,3
DA:158,3
DA:160,1
DA:161,1
DA:162,1
DA:170,1
DA:171,1
DA:173,1
DA:174,1
DA:175,1
DA:178,1
DA:179,1
DA:180,1
DA:181,1
DA:183,1
DA:184,1
DA:185,1
DA:186,1
DA:189,1
DA:190,1
DA:191,1
DA:192,1
DA:193,1
DA:194,1
DA:196,1
DA:197,1
DA:198,1
DA:199,1
DA:200,1
DA:201,1
DA:204,1
DA:205,1
DA:206,1
DA:207,1
DA:210,1
DA:211,1
DA:212,1
DA:213,1
DA:215,1
DA:216,1
DA:219,1
DA:220,1
DA:221,1
DA:222,1
DA:223,1
DA:226,1
DA:227,1
DA:230,1
DA:231,1
DA:234,1
DA:235,1
DA:236,1
BRF:0
BRH:0
LF:100
LH:88
end_of_record
SF:/Users/ken/git_for_collab4/tensor4all-rs/crates/tensor4all-itensorlike/src/options.rs
FN:118,_RNvMs0_NtCsjwG9vXUec8I_22tensor4all_itensorlike7optionsNtB5_15TruncateOptions13with_max_rank
FN:127,_RNvMs0_NtCsjwG9vXUec8I_22tensor4all_itensorlike7optionsNtB5_15TruncateOptions15with_site_range
FN:104,_RNvMs0_NtCsjwG9vXUec8I_22tensor4all_itensorlike7optionsNtB5_15TruncateOptions2ci
FN:96,_RNvMs0_NtCsjwG9vXUec8I_22tensor4all_itensorlike7optionsNtB5_15TruncateOptions2lu
FN:88,_RNvMs0_NtCsjwG9vXUec8I_22tensor4all_itensorlike7optionsNtB5_15TruncateOptions3svd
FN:133,_RNvMs0_NtCsjwG9vXUec8I_22tensor4all_itensorlike7optionsNtB5_15TruncateOptions4rtol
FN:138,_RNvMs0_NtCsjwG9vXUec8I_22tensor4all_itensorlike7optionsNtB5_15TruncateOptions8max_rank
FN:112,_RNvMs0_NtCsjwG9vXUec8I_22tensor4all_itensorlike7optionsNtB5_15TruncateOptions9with_rtol
FN:233,_RNvMs3_NtCsjwG9vXUec8I_22tensor4all_itensorlike7optionsNtB5_15ContractOptions13with_max_rank
FN:251,_RNvMs3_NtCsjwG9vXUec8I_22tensor4all_itensorlike7optionsNtB5_15ContractOptions16with_nhalfsweeps
FN:214,_RNvMs3_NtCsjwG9vXUec8I_22tensor4all_itensorlike7optionsNtB5_15ContractOptions3fit
FN:260,_RNvMs3_NtCsjwG9vXUec8I_22tensor4all_itensorlike7optionsNtB5_15ContractOptions4rtol
FN:225,_RNvMs3_NtCsjwG9vXUec8I_22tensor4all_itensorlike7optionsNtB5_15ContractOptions5naive
FN:206,_RNvMs3_NtCsjwG9vXUec8I_22tensor4all_itensorlike7optionsNtB5_15ContractOptions5zipup
FN:265,_RNvMs3_NtCsjwG9vXUec8I_22tensor4all_itensorlike7optionsNtB5_15ContractOptions8max_rank
FN:239,_RNvMs3_NtCsjwG9vXUec8I_22tensor4all_itensorlike7optionsNtB5_15ContractOptions9with_rtol
FN:67,_RNvXNtCsjwG9vXUec8I_22tensor4all_itensorlike7optionsNtB2_15TruncateOptionsNtNtCskzPJi2J8k3N_4core7default7Default7default
FN:185,_RNvXs1_NtCsjwG9vXUec8I_22tensor4all_itensorlike7optionsNtB5_15ContractOptionsNtNtCskzPJi2J8k3N_4core7default7Default7default
FN:195,_RNvXs2_NtCsjwG9vXUec8I_22tensor4all_itensorlike7optionsNtB5_15ContractOptionsNtNtCs55lPmkOpiMP_15tensor4all_core10truncation19HasTruncationParams17truncation_params
FN:199,_RNvXs2_NtCsjwG9vXUec8I_22tensor4all_itensorlike7optionsNtB5_15ContractOptionsNtNtCs55lPmkOpiMP_15tensor4all_core10truncation19HasTruncationParams21truncation_params_mut
FN:77,_RNvXs_NtCsjwG9vXUec8I_22tensor4all_itensorlike7optionsNtB4_15TruncateOptionsNtNtCs55lPmkOpiMP_15tensor4all_core10truncation19HasTruncationParams17truncation_params
FN:81,_RNvXs_NtCsjwG9vXUec8I_22tensor4all_itensorlike7optionsNtB4_15TruncateOptionsNtNtCs55lPmkOpiMP_15tensor4all_core10truncation19HasTruncationParams21truncation_params_mut
FN:356,_RNvNtNtCshTphA2Fw2hY_22tensor4all_itensorlike7options5testss_28test_contract_method_default
FN:313,_RNvNtNtCshTphA2Fw2hY_22tensor4all_itensorlike7options5testss_29test_contract_options_builder
FN:332,_RNvNtNtCshTphA2Fw2hY_22tensor4all_itensorlike7options5testss_29test_contract_options_default
FN:325,_RNvNtNtCshTphA2Fw2hY_22tensor4all_itensorlike7options5testss_29test_contract_options_methods
FN:275,_RNvNtNtCshTphA2Fw2hY_22tensor4all_itensorlike7options5testss_29test_truncate_options_builder
FN:296,_RNvNtNtCshTphA2Fw2hY_22tensor4all_itensorlike7options5testss_29test_truncate_options_default
FN:283,_RNvNtNtCshTphA2Fw2hY_22tensor4all_itensorlike7options5testss_32test_truncate_options_algorithms
FN:290,_RNvNtNtCshTphA2Fw2hY_22tensor4all_itensorlike7options5testss_32test_truncate_options_site_range
FN:341,_RNvNtNtCshTphA2Fw2hY_22tensor4all_itensorlike7options5testss_43test_contract_options_has_truncation_params
FN:305,_RNvNtNtCshTphA2Fw2hY_22tensor4all_itensorlike7options5testss_43test_truncate_options_has_truncation_params
FN:350,_RNvNtNtCshTphA2Fw2hY_22tensor4all_itensorlike7options5testss_55test_contract_options_nhalfsweeps_must_be_multiple_of_2
FN:118,_RNvMs0_NtCshTphA2Fw2hY_22tensor4all_itensorlike7optionsNtB5_15TruncateOptions13with_max_rank
FN:127,_RNvMs0_NtCshTphA2Fw2hY_22tensor4all_itensorlike7optionsNtB5_15TruncateOptions15with_site_range
FN:104,_RNvMs0_NtCshTphA2Fw2hY_22tensor4all_itensorlike7optionsNtB5_15TruncateOptions2ci
FN:96,_RNvMs0_NtCshTphA2Fw2hY_22tensor4all_itensorlike7optionsNtB5_15TruncateOptions2lu
FN:88,_RNvMs0_NtCshTphA2Fw2hY_22tensor4all_itensorlike7optionsNtB5_15TruncateOptions3svd
FN:133,_RNvMs0_NtCshTphA2Fw2hY_22tensor4all_itensorlike7optionsNtB5_15TruncateOptions4rtol
FN:138,_RNvMs0_NtCshTphA2Fw2hY_22tensor4all_itensorlike7optionsNtB5_15TruncateOptions8max_rank
FN:112,_RNvMs0_NtCshTphA2Fw2hY_22tensor4all_itensorlike7optionsNtB5_15TruncateOptions9with_rtol
FN:233,_RNvMs3_NtCshTphA2Fw2hY_22tensor4all_itensorlike7optionsNtB5_15ContractOptions13with_max_rank
FN:251,_RNvMs3_NtCshTphA2Fw2hY_22tensor4all_itensorlike7optionsNtB5_15ContractOptions16with_nhalfsweeps
FN:214,_RNvMs3_NtCshTphA2Fw2hY_22tensor4all_itensorlike7optionsNtB5_15ContractOptions3fit
FN:260,_RNvMs3_NtCshTphA2Fw2hY_22tensor4all_itensorlike7optionsNtB5_15ContractOptions4rtol
FN:225,_RNvMs3_NtCshTphA2Fw2hY_22tensor4all_itensorlike7optionsNtB5_15ContractOptions5naive
FN:206,_RNvMs3_NtCshTphA2Fw2hY_22tensor4all_itensorlike7optionsNtB5_15ContractOptions5zipup
FN:265,_RNvMs3_NtCshTphA2Fw2hY_22tensor4all_itensorlike7optionsNtB5_15ContractOptions8max_rank
FN:239,_RNvMs3_NtCshTphA2Fw2hY_22tensor4all_itensorlike7optionsNtB5_15ContractOptions9with_rtol
FN:67,_RNvXNtCshTphA2Fw2hY_22tensor4all_itensorlike7optionsNtB2_15TruncateOptionsNtNtCskzPJi2J8k3N_4core7default7Default7default
FN:185,_RNvXs1_NtCshTphA2Fw2hY_22tensor4all_itensorlike7optionsNtB5_15ContractOptionsNtNtCskzPJi2J8k3N_4core7default7Default7default
FN:195,_RNvXs2_NtCshTphA2Fw2hY_22tensor4all_itensorlike7optionsNtB5_15ContractOptionsNtNtCs55lPmkOpiMP_15tensor4all_core10truncation19HasTruncationParams17truncation_params
FN:199,_RNvXs2_NtCshTphA2Fw2hY_22tensor4all_itensorlike7optionsNtB5_15ContractOptionsNtNtCs55lPmkOpiMP_15tensor4all_core10truncation19HasTruncationParams21truncation_params_mut
FN:77,_RNvXs_NtCshTphA2Fw2hY_22tensor4all_itensorlike7optionsNtB4_15TruncateOptionsNtNtCs55lPmkOpiMP_15tensor4all_core10truncation19HasTruncationParams17truncation_params
FN:81,_RNvXs_NtCshTphA2Fw2hY_22tensor4all_itensorlike7optionsNtB4_15TruncateOptionsNtNtCs55lPmkOpiMP_15tensor4all_core10truncation19HasTruncationParams21truncation_params_mut
FNDA:0,_RNvMs0_NtCsjwG9vXUec8I_22tensor4all_itensorlike7optionsNtB5_15TruncateOptions13with_max_rank
FNDA:0,_RNvMs0_NtCsjwG9vXUec8I_22tensor4all_itensorlike7optionsNtB5_15TruncateOptions15with_site_range
FNDA:0,_RNvMs0_NtCsjwG9vXUec8I_22tensor4all_itensorlike7optionsNtB5_15TruncateOptions2ci
FNDA:0,_RNvMs0_NtCsjwG9vXUec8I_22tensor4all_itensorlike7optionsNtB5_15TruncateOptions2lu
FNDA:0,_RNvMs0_NtCsjwG9vXUec8I_22tensor4all_itensorlike7optionsNtB5_15TruncateOptions3svd
FNDA:0,_RNvMs0_NtCsjwG9vXUec8I_22tensor4all_itensorlike7optionsNtB5_15TruncateOptions4rtol
FNDA:0,_RNvMs0_NtCsjwG9vXUec8I_22tensor4all_itensorlike7optionsNtB5_15TruncateOptions8max_rank
FNDA:0,_RNvMs0_NtCsjwG9vXUec8I_22tensor4all_itensorlike7optionsNtB5_15TruncateOptions9with_rtol
FNDA:0,_RNvMs3_NtCsjwG9vXUec8I_22tensor4all_itensorlike7optionsNtB5_15ContractOptions13with_max_rank
FNDA:1,_RNvMs3_NtCsjwG9vXUec8I_22tensor4all_itensorlike7optionsNtB5_15ContractOptions16with_nhalfsweeps
FNDA:0,_RNvMs3_NtCsjwG9vXUec8I_22tensor4all_itensorlike7optionsNtB5_15ContractOptions3fit
FNDA:0,_RNvMs3_NtCsjwG9vXUec8I_22tensor4all_itensorlike7optionsNtB5_15ContractOptions4rtol
FNDA:0,_RNvMs3_NtCsjwG9vXUec8I_22tensor4all_itensorlike7optionsNtB5_15ContractOptions5naive
FNDA:1,_RNvMs3_NtCsjwG9vXUec8I_22tensor4all_itensorlike7optionsNtB5_15ContractOptions5zipup
FNDA:0,_RNvMs3_NtCsjwG9vXUec8I_22tensor4all_itensorlike7optionsNtB5_15ContractOptions8max_rank
FNDA:0,_RNvMs3_NtCsjwG9vXUec8I_22tensor4all_itensorlike7optionsNtB5_15ContractOptions9with_rtol
FNDA:0,_RNvXNtCsjwG9vXUec8I_22tensor4all_itensorlike7optionsNtB2_15TruncateOptionsNtNtCskzPJi2J8k3N_4core7default7Default7default
FNDA:1,_RNvXs1_NtCsjwG9vXUec8I_22tensor4all_itensorlike7optionsNtB5_15ContractOptionsNtNtCskzPJi2J8k3N_4core7default7Default7default
FNDA:0,_RNvXs2_NtCsjwG9vXUec8I_22tensor4all_itensorlike7optionsNtB5_15ContractOptionsNtNtCs55lPmkOpiMP_15tensor4all_core10truncation19HasTruncationParams17truncation_params
FNDA:0,_RNvXs2_NtCsjwG9vXUec8I_22tensor4all_itensorlike7optionsNtB5_15ContractOptionsNtNtCs55lPmkOpiMP_15tensor4all_core10truncation19HasTruncationParams21truncation_params_mut
FNDA:0,_RNvXs_NtCsjwG9vXUec8I_22tensor4all_itensorlike7optionsNtB4_15TruncateOptionsNtNtCs55lPmkOpiMP_15tensor4all_core10truncation19HasTruncationParams17truncation_params
FNDA:0,_RNvXs_NtCsjwG9vXUec8I_22tensor4all_itensorlike7optionsNtB4_15TruncateOptionsNtNtCs55lPmkOpiMP_15tensor4all_core10truncation19HasTruncationParams21truncation_params_mut
FNDA:1,_RNvNtNtCshTphA2Fw2hY_22tensor4all_itensorlike7options5testss_28test_contract_method_default
FNDA:1,_RNvNtNtCshTphA2Fw2hY_22tensor4all_itensorlike7options5testss_29test_contract_options_builder
FNDA:1,_RNvNtNtCshTphA2Fw2hY_22tensor4all_itensorlike7options5testss_29test_contract_options_default
FNDA:1,_RNvNtNtCshTphA2Fw2hY_22tensor4all_itensorlike7options5testss_29test_contract_options_methods
FNDA:1,_RNvNtNtCshTphA2Fw2hY_22tensor4all_itensorlike7options5testss_29test_truncate_options_builder
FNDA:1,_RNvNtNtCshTphA2Fw2hY_22tensor4all_itensorlike7options5testss_29test_truncate_options_default
FNDA:1,_RNvNtNtCshTphA2Fw2hY_22tensor4all_itensorlike7options5testss_32test_truncate_options_algorithms
FNDA:1,_RNvNtNtCshTphA2Fw2hY_22tensor4all_itensorlike7options5testss_32test_truncate_options_site_range
FNDA:1,_RNvNtNtCshTphA2Fw2hY_22tensor4all_itensorlike7options5testss_43test_contract_options_has_truncation_params
FNDA:1,_RNvNtNtCshTphA2Fw2hY_22tensor4all_itensorlike7options5testss_43test_truncate_options_has_truncation_params
FNDA:1,_RNvNtNtCshTphA2Fw2hY_22tensor4all_itensorlike7options5testss_55test_contract_options_nhalfsweeps_must_be_multiple_of_2
FNDA:2,_RNvMs0_NtCshTphA2Fw2hY_22tensor4all_itensorlike7optionsNtB5_15TruncateOptions13with_max_rank
FNDA:1,_RNvMs0_NtCshTphA2Fw2hY_22tensor4all_itensorlike7optionsNtB5_15TruncateOptions15with_site_range
FNDA:1,_RNvMs0_NtCshTphA2Fw2hY_22tensor4all_itensorlike7optionsNtB5_15TruncateOptions2ci
FNDA:1,_RNvMs0_NtCshTphA2Fw2hY_22tensor4all_itensorlike7optionsNtB5_15TruncateOptions2lu
FNDA:5,_RNvMs0_NtCshTphA2Fw2hY_22tensor4all_itensorlike7optionsNtB5_15TruncateOptions3svd
FNDA:2,_RNvMs0_NtCshTphA2Fw2hY_22tensor4all_itensorlike7optionsNtB5_15TruncateOptions4rtol
FNDA:2,_RNvMs0_NtCshTphA2Fw2hY_22tensor4all_itensorlike7optionsNtB5_15TruncateOptions8max_rank
FNDA:1,_RNvMs0_NtCshTphA2Fw2hY_22tensor4all_itensorlike7optionsNtB5_15TruncateOptions9with_rtol
FNDA:1,_RNvMs3_NtCshTphA2Fw2hY_22tensor4all_itensorlike7optionsNtB5_15ContractOptions13with_max_rank
FNDA:2,_RNvMs3_NtCshTphA2Fw2hY_22tensor4all_itensorlike7optionsNtB5_15ContractOptions16with_nhalfsweeps
FNDA:2,_RNvMs3_NtCshTphA2Fw2hY_22tensor4all_itensorlike7optionsNtB5_15ContractOptions3fit
FNDA:2,_RNvMs3_NtCshTphA2Fw2hY_22tensor4all_itensorlike7optionsNtB5_15ContractOptions4rtol
FNDA:1,_RNvMs3_NtCshTphA2Fw2hY_22tensor4all_itensorlike7optionsNtB5_15ContractOptions5naive
FNDA:3,_RNvMs3_NtCshTphA2Fw2hY_22tensor4all_itensorlike7optionsNtB5_15ContractOptions5zipup
FNDA:2,_RNvMs3_NtCshTphA2Fw2hY_22tensor4all_itensorlike7optionsNtB5_15ContractOptions8max_rank
FNDA:1,_RNvMs3_NtCshTphA2Fw2hY_22tensor4all_itensorlike7optionsNtB5_15ContractOptions9with_rtol
FNDA:8,_RNvXNtCshTphA2Fw2hY_22tensor4all_itensorlike7optionsNtB2_15TruncateOptionsNtNtCskzPJi2J8k3N_4core7default7Default7default
FNDA:7,_RNvXs1_NtCshTphA2Fw2hY_22tensor4all_itensorlike7optionsNtB5_15ContractOptionsNtNtCskzPJi2J8k3N_4core7default7Default7default
FNDA:2,_RNvXs2_NtCshTphA2Fw2hY_22tensor4all_itensorlike7optionsNtB5_15ContractOptionsNtNtCs55lPmkOpiMP_15tensor4all_core10truncation19HasTruncationParams17truncation_params
FNDA:1,_RNvXs2_NtCshTphA2Fw2hY_22tensor4all_itensorlike7optionsNtB5_15ContractOptionsNtNtCs55lPmkOpiMP_15tensor4all_core10truncation19HasTruncationParams21truncation_params_mut
FNDA:2,_RNvXs_NtCshTphA2Fw2hY_22tensor4all_itensorlike7optionsNtB4_15TruncateOptionsNtNtCs55lPmkOpiMP_15tensor4all_core10truncation19HasTruncationParams17truncation_params
FNDA:1,_RNvXs_NtCshTphA2Fw2hY_22tensor4all_itensorlike7optionsNtB4_15TruncateOptionsNtNtCs55lPmkOpiMP_15tensor4all_core10truncation19HasTruncationParams21truncation_params_mut
FNF:33
FNH:33
DA:67,8
DA:68,8
DA:69,8
DA:70,8
DA:71,8
DA:72,8
DA:73,8
DA:77,2
DA:78,2
DA:79,2
DA:81,1
DA:82,1
DA:83,1
DA:88,5
DA:89,5
DA:90,5
DA:91,5
DA:92,5
DA:93,5
DA:96,1
DA:97,1
DA:98,1
DA:99,1
DA:100,1
DA:101,1
DA:104,1
DA:105,1
DA:106,1
DA:107,1
DA:108,1
DA:109,1
DA:112,1
DA:113,1
DA:114,1
DA:115,1
DA:118,2
DA:119,2
DA:120,2
DA:121,2
DA:127,1
DA:128,1
DA:129,1
DA:130,1
DA:133,2
DA:134,2
DA:135,2
DA:138,2
DA:139,2
DA:140,2
DA:185,8
DA:186,8
DA:187,8
DA:188,8
DA:189,8
DA:190,8
DA:191,8
DA:195,2
DA:196,2
DA:197,2
DA:199,1
DA:200,1
DA:201,1
DA:206,4
DA:207,4
DA:208,4
DA:209,4
DA:210,4
DA:211,4
DA:214,2
DA:215,2
DA:216,2
DA:217,2
DA:218,2
DA:219,2
DA:225,1
DA:226,1
DA:227,1
DA:228,1
DA:229,1
DA:230,1
DA:233,1
DA:234,1
DA:235,1
DA:236,1
DA:239,1
DA:240,1
DA:241,1
DA:242,1
DA:251,3
DA:252,3
DA:253,1
DA:254,2
DA:255,2
DA:256,2
DA:257,2
DA:260,2
DA:261,2
DA:262,2
DA:265,2
DA:266,2
DA:267,2
DA:275,1
DA:276,1
DA:277,1
DA:278,1
DA:279,1
DA:280,1
DA:283,1
DA:284,1
DA:285,1
DA:286,1
DA:287,1
DA:290,1
DA:291,1
DA:292,1
DA:293,1
DA:296,1
DA:297,1
DA:298,1
DA:299,1
DA:300,1
DA:301,1
DA:302,1
DA:305,1
DA:306,1
DA:307,1
DA:308,1
DA:309,1
DA:310,1
DA:313,1
DA:314,1
DA:315,1
DA:316,1
DA:317,1
DA:318,1
DA:319,1
DA:320,1
DA:321,1
DA:322,1
DA:325,1
DA:326,1
DA:327,1
DA:328,1
DA:329,1
DA:332,1
DA:333,1
DA:334,1
DA:335,1
DA:336,1
DA:337,1
DA:338,1
DA:341,1
DA:342,1
DA:343,1
DA:344,1
DA:345,1
DA:346,1
DA:350,1
DA:352,1
DA:353,1
DA:356,1
DA:357,1
DA:358,1
DA:359,1
BRF:0
BRH:0
LF:164
LH:164
end_of_record
SF:/Users/ken/git_for_collab4/tensor4all-rs/crates/tensor4all-itensorlike/src/tensortrain.rs
FN:255,_RNvMNtCsjwG9vXUec8I_22tensor4all_itensorlike11tensortrainNtB2_11TensorTrain14canonical_formCsdnTG4X9gKe5_15tensor4all_capi
FN:156,_RNvMNtCsjwG9vXUec8I_22tensor4all_itensorlike11tensortrainNtB2_11TensorTrain3lenCsdnTG4X9gKe5_15tensor4all_capi
FN:171,_RNvMNtCsjwG9vXUec8I_22tensor4all_itensorlike11tensortrainNtB2_11TensorTrain4llimCsdnTG4X9gKe5_15tensor4all_capi
FN:183,_RNvMNtCsjwG9vXUec8I_22tensor4all_itensorlike11tensortrainNtB2_11TensorTrain4rlimCsdnTG4X9gKe5_15tensor4all_capi
FN:271,_RNvMNtCsjwG9vXUec8I_22tensor4all_itensorlike11tensortrainNtB2_11TensorTrain6tensorCsdnTG4X9gKe5_15tensor4all_capi
FN:235,_RNvMNtCsjwG9vXUec8I_22tensor4all_itensorlike11tensortrainNtB2_11TensorTrain7isorthoCsdnTG4X9gKe5_15tensor4all_capi
FN:162,_RNvMNtCsjwG9vXUec8I_22tensor4all_itensorlike11tensortrainNtB2_11TensorTrain8is_emptyCsdnTG4X9gKe5_15tensor4all_capi
FN:143,_RNCNvMNtCsjwG9vXUec8I_22tensor4all_itensorlike11tensortrainNtB4_11TensorTrain10with_ortho0B6_
FN:369,_RNCNvMNtCsjwG9vXUec8I_22tensor4all_itensorlike11tensortrainNtB4_11TensorTrain12sim_linkinds0B6_
FN:290,_RNCNvMNtCsjwG9vXUec8I_22tensor4all_itensorlike11tensortrainNtB4_11TensorTrain14tensor_checked0B6_
FN:296,_RNCNvMNtCsjwG9vXUec8I_22tensor4all_itensorlike11tensortrainNtB4_11TensorTrain14tensor_checkeds_0B6_
FN:516,_RNCNvMNtCsjwG9vXUec8I_22tensor4all_itensorlike11tensortrainNtB4_11TensorTrain18orthogonalize_with0B6_
FN:109,_RNCNvMNtCsjwG9vXUec8I_22tensor4all_itensorlike11tensortrainNtB4_11TensorTrain3new0B6_
FN:429,_RNCNvMNtCsjwG9vXUec8I_22tensor4all_itensorlike11tensortrainNtB4_11TensorTrain8bond_dim0B6_
FN:686,_RNCNvMNtCsjwG9vXUec8I_22tensor4all_itensorlike11tensortrainNtB4_11TensorTrain8contract0B6_
FN:689,_RNCNvMNtCsjwG9vXUec8I_22tensor4all_itensorlike11tensortrainNtB4_11TensorTrain8contracts_0B6_
FN:353,_RNCNvMNtCsjwG9vXUec8I_22tensor4all_itensorlike11tensortrainNtB4_11TensorTrain8linkinds0B6_
FN:408,_RNCNvMNtCsjwG9vXUec8I_22tensor4all_itensorlike11tensortrainNtB4_11TensorTrain8siteinds0B6_
FN:415,_RNCNvMNtCsjwG9vXUec8I_22tensor4all_itensorlike11tensortrainNtB4_11TensorTrain8siteindss_0B6_
FN:549,_RNCNvMNtCsjwG9vXUec8I_22tensor4all_itensorlike11tensortrainNtB4_11TensorTrain8truncate0B6_
FN:436,_RNCNvMNtCsjwG9vXUec8I_22tensor4all_itensorlike11tensortrainNtB4_11TensorTrain9bond_dims0B6_
FN:440,_RNvMNtCsjwG9vXUec8I_22tensor4all_itensorlike11tensortrainNtB2_11TensorTrain10maxbonddim
FN:223,_RNvMNtCsjwG9vXUec8I_22tensor4all_itensorlike11tensortrainNtB2_11TensorTrain10ortho_lims
FN:467,_RNvMNtCsjwG9vXUec8I_22tensor4all_itensorlike11tensortrainNtB2_11TensorTrain10set_tensor
FN:131,_RNvMNtCsjwG9vXUec8I_22tensor4all_itensorlike11tensortrainNtB2_11TensorTrain10with_ortho
FN:243,_RNvMNtCsjwG9vXUec8I_22tensor4all_itensorlike11tensortrainNtB2_11TensorTrain11orthocenter
FN:602,_RNvMNtCsjwG9vXUec8I_22tensor4all_itensorlike11tensortrainNtB2_11TensorTrain12norm_squared
FN:362,_RNvMNtCsjwG9vXUec8I_22tensor4all_itensorlike11tensortrainNtB2_11TensorTrain12sim_linkinds
FN:486,_RNvMNtCsjwG9vXUec8I_22tensor4all_itensorlike11tensortrainNtB2_11TensorTrain13orthogonalize
FN:279,_RNvMNtCsjwG9vXUec8I_22tensor4all_itensorlike11tensortrainNtB2_11TensorTrain14tensor_checked
FN:499,_RNvMNtCsjwG9vXUec8I_22tensor4all_itensorlike11tensortrainNtB2_11TensorTrain18orthogonalize_with
FN:156,_RNvMNtCsjwG9vXUec8I_22tensor4all_itensorlike11tensortrainNtB2_11TensorTrain3lenB4_
FN:67,_RNvMNtCsjwG9vXUec8I_22tensor4all_itensorlike11tensortrainNtB2_11TensorTrain3new
FN:171,_RNvMNtCsjwG9vXUec8I_22tensor4all_itensorlike11tensortrainNtB2_11TensorTrain4llimB4_
FN:609,_RNvMNtCsjwG9vXUec8I_22tensor4all_itensorlike11tensortrainNtB2_11TensorTrain4norm
FN:183,_RNvMNtCsjwG9vXUec8I_22tensor4all_itensorlike11tensortrainNtB2_11TensorTrain4rlimB4_
FN:563,_RNvMNtCsjwG9vXUec8I_22tensor4all_itensorlike11tensortrainNtB2_11TensorTrain5inner
FN:271,_RNvMNtCsjwG9vXUec8I_22tensor4all_itensorlike11tensortrainNtB2_11TensorTrain6tensorB4_
FN:445,_RNvMNtCsjwG9vXUec8I_22tensor4all_itensorlike11tensortrainNtB2_11TensorTrain7haslink
FN:335,_RNvMNtCsjwG9vXUec8I_22tensor4all_itensorlike11tensortrainNtB2_11TensorTrain7linkind
FN:428,_RNvMNtCsjwG9vXUec8I_22tensor4all_itensorlike11tensortrainNtB2_11TensorTrain8bond_dim
FN:630,_RNvMNtCsjwG9vXUec8I_22tensor4all_itensorlike11tensortrainNtB2_11TensorTrain8contract
FN:162,_RNvMNtCsjwG9vXUec8I_22tensor4all_itensorlike11tensortrainNtB2_11TensorTrain8is_emptyB4_
FN:351,_RNvMNtCsjwG9vXUec8I_22tensor4all_itensorlike11tensortrainNtB2_11TensorTrain8linkinds
FN:394,_RNvMNtCsjwG9vXUec8I_22tensor4all_itensorlike11tensortrainNtB2_11TensorTrain8siteinds
FN:530,_RNvMNtCsjwG9vXUec8I_22tensor4all_itensorlike11tensortrainNtB2_11TensorTrain8truncate
FN:435,_RNvMNtCsjwG9vXUec8I_22tensor4all_itensorlike11tensortrainNtB2_11TensorTrain9bond_dims
FN:714,_RNvNtCsjwG9vXUec8I_22tensor4all_itensorlike11tensortrain20truncate_alg_to_form
FN:705,_RNvXs_NtCsjwG9vXUec8I_22tensor4all_itensorlike11tensortrainNtB4_11TensorTrainNtNtCskzPJi2J8k3N_4core7default7Default7default
FN:440,_RNvMNtCshTphA2Fw2hY_22tensor4all_itensorlike11tensortrainNtB2_11TensorTrain10maxbonddim
FN:223,_RNvMNtCshTphA2Fw2hY_22tensor4all_itensorlike11tensortrainNtB2_11TensorTrain10ortho_lims
FN:131,_RNvMNtCshTphA2Fw2hY_22tensor4all_itensorlike11tensortrainNtB2_11TensorTrain10with_ortho
FN:243,_RNvMNtCshTphA2Fw2hY_22tensor4all_itensorlike11tensortrainNtB2_11TensorTrain11orthocenter
FN:602,_RNvMNtCshTphA2Fw2hY_22tensor4all_itensorlike11tensortrainNtB2_11TensorTrain12norm_squared
FN:362,_RNvMNtCshTphA2Fw2hY_22tensor4all_itensorlike11tensortrainNtB2_11TensorTrain12sim_linkinds
FN:486,_RNvMNtCshTphA2Fw2hY_22tensor4all_itensorlike11tensortrainNtB2_11TensorTrain13orthogonalize
FN:255,_RNvMNtCshTphA2Fw2hY_22tensor4all_itensorlike11tensortrainNtB2_11TensorTrain14canonical_formB4_
FN:499,_RNvMNtCshTphA2Fw2hY_22tensor4all_itensorlike11tensortrainNtB2_11TensorTrain18orthogonalize_with
FN:156,_RNvMNtCshTphA2Fw2hY_22tensor4all_itensorlike11tensortrainNtB2_11TensorTrain3lenB4_
FN:67,_RNvMNtCshTphA2Fw2hY_22tensor4all_itensorlike11tensortrainNtB2_11TensorTrain3new
FN:171,_RNvMNtCshTphA2Fw2hY_22tensor4all_itensorlike11tensortrainNtB2_11TensorTrain4llimB4_
FN:609,_RNvMNtCshTphA2Fw2hY_22tensor4all_itensorlike11tensortrainNtB2_11TensorTrain4norm
FN:183,_RNvMNtCshTphA2Fw2hY_22tensor4all_itensorlike11tensortrainNtB2_11TensorTrain4rlimB4_
FN:563,_RNvMNtCshTphA2Fw2hY_22tensor4all_itensorlike11tensortrainNtB2_11TensorTrain5inner
FN:271,_RNvMNtCshTphA2Fw2hY_22tensor4all_itensorlike11tensortrainNtB2_11TensorTrain6tensorB4_
FN:235,_RNvMNtCshTphA2Fw2hY_22tensor4all_itensorlike11tensortrainNtB2_11TensorTrain7isorthoB4_
FN:335,_RNvMNtCshTphA2Fw2hY_22tensor4all_itensorlike11tensortrainNtB2_11TensorTrain7linkind
FN:162,_RNvMNtCshTphA2Fw2hY_22tensor4all_itensorlike11tensortrainNtB2_11TensorTrain8is_emptyB4_
FN:351,_RNvMNtCshTphA2Fw2hY_22tensor4all_itensorlike11tensortrainNtB2_11TensorTrain8linkinds
FN:394,_RNvMNtCshTphA2Fw2hY_22tensor4all_itensorlike11tensortrainNtB2_11TensorTrain8siteinds
FN:530,_RNvMNtCshTphA2Fw2hY_22tensor4all_itensorlike11tensortrainNtB2_11TensorTrain8truncate
FN:435,_RNvMNtCshTphA2Fw2hY_22tensor4all_itensorlike11tensortrainNtB2_11TensorTrain9bond_dims
FN:714,_RNvNtCshTphA2Fw2hY_22tensor4all_itensorlike11tensortrain20truncate_alg_to_form
FN:730,_RNCNvNtNtCshTphA2Fw2hY_22tensor4all_itensorlike11tensortrain5tests11make_tensor0B7_
FN:732,_RNCNvNtNtCshTphA2Fw2hY_22tensor4all_itensorlike11tensortrain5tests11make_tensors_0B7_
FN:729,_RNvNtNtCshTphA2Fw2hY_22tensor4all_itensorlike11tensortrain5tests11make_tensor
FN:738,_RNvNtNtCshTphA2Fw2hY_22tensor4all_itensorlike11tensortrain5tests3idx
FN:743,_RNvNtNtCshTphA2Fw2hY_22tensor4all_itensorlike11tensortrain5testss_13test_empty_tt
FN:763,_RNvNtNtCshTphA2Fw2hY_22tensor4all_itensorlike11tensortrain5testss_16test_two_site_tt
FN:985,_RNvNtNtCshTphA2Fw2hY_22tensor4all_itensorlike11tensortrain5testss_18test_inner_product
FN:811,_RNvNtNtCshTphA2Fw2hY_22tensor4all_itensorlike11tensortrain5testss_19test_ortho_tracking
FN:753,_RNvNtNtCshTphA2Fw2hY_22tensor4all_itensorlike11tensortrain5testss_19test_single_site_tt
FN:834,_RNvNtNtCshTphA2Fw2hY_22tensor4all_itensorlike11tensortrain5testss_21test_ortho_lims_range
FN:791,_RNvNtNtCshTphA2Fw2hY_22tensor4all_itensorlike11tensortrain5testss_23test_multi_site_indices
FN:854,_RNvNtNtCshTphA2Fw2hY_22tensor4all_itensorlike11tensortrain5testss_26test_no_common_index_error
FN:943,_RNvNtNtCshTphA2Fw2hY_22tensor4all_itensorlike11tensortrain5testss_26test_orthogonalize_with_ci
FN:926,_RNvNtNtCshTphA2Fw2hY_22tensor4all_itensorlike11tensortrain5testss_26test_orthogonalize_with_lu
FN:870,_RNvNtNtCshTphA2Fw2hY_22tensor4all_itensorlike11tensortrain5testss_27test_orthogonalize_two_site
FN:960,_RNvNtNtCshTphA2Fw2hY_22tensor4all_itensorlike11tensortrain5testss_27test_truncate_with_max_rank
FN:895,_RNvNtNtCshTphA2Fw2hY_22tensor4all_itensorlike11tensortrain5testss_29test_orthogonalize_three_site
FN:143,_RNCNvMNtCshTphA2Fw2hY_22tensor4all_itensorlike11tensortrainNtB4_11TensorTrain10with_ortho0B6_
FN:369,_RNCNvMNtCshTphA2Fw2hY_22tensor4all_itensorlike11tensortrainNtB4_11TensorTrain12sim_linkinds0B6_
FN:516,_RNCNvMNtCshTphA2Fw2hY_22tensor4all_itensorlike11tensortrainNtB4_11TensorTrain18orthogonalize_with0B6_
FN:109,_RNCNvMNtCshTphA2Fw2hY_22tensor4all_itensorlike11tensortrainNtB4_11TensorTrain3new0B6_
FN:353,_RNCNvMNtCshTphA2Fw2hY_22tensor4all_itensorlike11tensortrainNtB4_11TensorTrain8linkinds0B6_
FN:408,_RNCNvMNtCshTphA2Fw2hY_22tensor4all_itensorlike11tensortrainNtB4_11TensorTrain8siteinds0B6_
FN:415,_RNCNvMNtCshTphA2Fw2hY_22tensor4all_itensorlike11tensortrainNtB4_11TensorTrain8siteindss_0B6_
FN:549,_RNCNvMNtCshTphA2Fw2hY_22tensor4all_itensorlike11tensortrainNtB4_11TensorTrain8truncate0B6_
FN:436,_RNCNvMNtCshTphA2Fw2hY_22tensor4all_itensorlike11tensortrainNtB4_11TensorTrain9bond_dims0B6_
FN:290,_RNCNvMNtCshTphA2Fw2hY_22tensor4all_itensorlike11tensortrainNtB4_11TensorTrain14tensor_checked0B6_
FN:296,_RNCNvMNtCshTphA2Fw2hY_22tensor4all_itensorlike11tensortrainNtB4_11TensorTrain14tensor_checkeds_0B6_
FN:316,_RNCNvMNtCshTphA2Fw2hY_22tensor4all_itensorlike11tensortrainNtB4_11TensorTrain7tensors0B6_
FN:429,_RNCNvMNtCshTphA2Fw2hY_22tensor4all_itensorlike11tensortrainNtB4_11TensorTrain8bond_dim0B6_
FN:686,_RNCNvMNtCshTphA2Fw2hY_22tensor4all_itensorlike11tensortrainNtB4_11TensorTrain8contract0B6_
FN:689,_RNCNvMNtCshTphA2Fw2hY_22tensor4all_itensorlike11tensortrainNtB4_11TensorTrain8contracts_0B6_
FN:467,_RNvMNtCshTphA2Fw2hY_22tensor4all_itensorlike11tensortrainNtB2_11TensorTrain10set_tensor
FN:307,_RNvMNtCshTphA2Fw2hY_22tensor4all_itensorlike11tensortrainNtB2_11TensorTrain10tensor_mutB4_
FN:325,_RNvMNtCshTphA2Fw2hY_22tensor4all_itensorlike11tensortrainNtB2_11TensorTrain11tensors_mutB4_
FN:279,_RNvMNtCshTphA2Fw2hY_22tensor4all_itensorlike11tensortrainNtB2_11TensorTrain14tensor_checked
FN:261,_RNvMNtCshTphA2Fw2hY_22tensor4all_itensorlike11tensortrainNtB2_11TensorTrain18set_canonical_formB4_
FN:445,_RNvMNtCshTphA2Fw2hY_22tensor4all_itensorlike11tensortrainNtB2_11TensorTrain7haslink
FN:314,_RNvMNtCshTphA2Fw2hY_22tensor4all_itensorlike11tensortrainNtB2_11TensorTrain7tensorsB4_
FN:428,_RNvMNtCshTphA2Fw2hY_22tensor4all_itensorlike11tensortrainNtB2_11TensorTrain8bond_dim
FN:630,_RNvMNtCshTphA2Fw2hY_22tensor4all_itensorlike11tensortrainNtB2_11TensorTrain8contract
FN:192,_RNvMNtCshTphA2Fw2hY_22tensor4all_itensorlike11tensortrainNtB2_11TensorTrain8set_llimB4_
FN:206,_RNvMNtCshTphA2Fw2hY_22tensor4all_itensorlike11tensortrainNtB2_11TensorTrain8set_rlimB4_
FN:705,_RNvXs_NtCshTphA2Fw2hY_22tensor4all_itensorlike11tensortrainNtB4_11TensorTrainNtNtCskzPJi2J8k3N_4core7default7Default7default
FNDA:0,_RNvMNtCsjwG9vXUec8I_22tensor4all_itensorlike11tensortrainNtB2_11TensorTrain14canonical_formCsdnTG4X9gKe5_15tensor4all_capi
FNDA:2,_RNvMNtCsjwG9vXUec8I_22tensor4all_itensorlike11tensortrainNtB2_11TensorTrain3lenCsdnTG4X9gKe5_15tensor4all_capi
FNDA:0,_RNvMNtCsjwG9vXUec8I_22tensor4all_itensorlike11tensortrainNtB2_11TensorTrain4llimCsdnTG4X9gKe5_15tensor4all_capi
FNDA:0,_RNvMNtCsjwG9vXUec8I_22tensor4all_itensorlike11tensortrainNtB2_11TensorTrain4rlimCsdnTG4X9gKe5_15tensor4all_capi
FNDA:0,_RNvMNtCsjwG9vXUec8I_22tensor4all_itensorlike11tensortrainNtB2_11TensorTrain6tensorCsdnTG4X9gKe5_15tensor4all_capi
FNDA:0,_RNvMNtCsjwG9vXUec8I_22tensor4all_itensorlike11tensortrainNtB2_11TensorTrain7isorthoCsdnTG4X9gKe5_15tensor4all_capi
FNDA:1,_RNvMNtCsjwG9vXUec8I_22tensor4all_itensorlike11tensortrainNtB2_11TensorTrain8is_emptyCsdnTG4X9gKe5_15tensor4all_capi
FNDA:0,_RNCNvMNtCsjwG9vXUec8I_22tensor4all_itensorlike11tensortrainNtB4_11TensorTrain10with_ortho0B6_
FNDA:0,_RNCNvMNtCsjwG9vXUec8I_22tensor4all_itensorlike11tensortrainNtB4_11TensorTrain12sim_linkinds0B6_
FNDA:0,_RNCNvMNtCsjwG9vXUec8I_22tensor4all_itensorlike11tensortrainNtB4_11TensorTrain14tensor_checked0B6_
FNDA:0,_RNCNvMNtCsjwG9vXUec8I_22tensor4all_itensorlike11tensortrainNtB4_11TensorTrain14tensor_checkeds_0B6_
FNDA:0,_RNCNvMNtCsjwG9vXUec8I_22tensor4all_itensorlike11tensortrainNtB4_11TensorTrain18orthogonalize_with0B6_
FNDA:0,_RNCNvMNtCsjwG9vXUec8I_22tensor4all_itensorlike11tensortrainNtB4_11TensorTrain3new0B6_
FNDA:0,_RNCNvMNtCsjwG9vXUec8I_22tensor4all_itensorlike11tensortrainNtB4_11TensorTrain8bond_dim0B6_
FNDA:0,_RNCNvMNtCsjwG9vXUec8I_22tensor4all_itensorlike11tensortrainNtB4_11TensorTrain8contract0B6_
FNDA:0,_RNCNvMNtCsjwG9vXUec8I_22tensor4all_itensorlike11tensortrainNtB4_11TensorTrain8contracts_0B6_
FNDA:1,_RNCNvMNtCsjwG9vXUec8I_22tensor4all_itensorlike11tensortrainNtB4_11TensorTrain8linkinds0B6_
FNDA:0,_RNCNvMNtCsjwG9vXUec8I_22tensor4all_itensorlike11tensortrainNtB4_11TensorTrain8siteinds0B6_
FNDA:0,_RNCNvMNtCsjwG9vXUec8I_22tensor4all_itensorlike11tensortrainNtB4_11TensorTrain8siteindss_0B6_
FNDA:0,_RNCNvMNtCsjwG9vXUec8I_22tensor4all_itensorlike11tensortrainNtB4_11TensorTrain8truncate0B6_
FNDA:1,_RNCNvMNtCsjwG9vXUec8I_22tensor4all_itensorlike11tensortrainNtB4_11TensorTrain9bond_dims0B6_
FNDA:1,_RNvMNtCsjwG9vXUec8I_22tensor4all_itensorlike11tensortrainNtB2_11TensorTrain10maxbonddim
FNDA:0,_RNvMNtCsjwG9vXUec8I_22tensor4all_itensorlike11tensortrainNtB2_11TensorTrain10ortho_lims
FNDA:0,_RNvMNtCsjwG9vXUec8I_22tensor4all_itensorlike11tensortrainNtB2_11TensorTrain10set_tensor
FNDA:0,_RNvMNtCsjwG9vXUec8I_22tensor4all_itensorlike11tensortrainNtB2_11TensorTrain10with_ortho
FNDA:0,_RNvMNtCsjwG9vXUec8I_22tensor4all_itensorlike11tensortrainNtB2_11TensorTrain11orthocenter
FNDA:0,_RNvMNtCsjwG9vXUec8I_22tensor4all_itensorlike11tensortrainNtB2_11TensorTrain12norm_squared
FNDA:0,_RNvMNtCsjwG9vXUec8I_22tensor4all_itensorlike11tensortrainNtB2_11TensorTrain12sim_linkinds
FNDA:0,_RNvMNtCsjwG9vXUec8I_22tensor4all_itensorlike11tensortrainNtB2_11TensorTrain13orthogonalize
FNDA:0,_RNvMNtCsjwG9vXUec8I_22tensor4all_itensorlike11tensortrainNtB2_11TensorTrain14tensor_checked
FNDA:0,_RNvMNtCsjwG9vXUec8I_22tensor4all_itensorlike11tensortrainNtB2_11TensorTrain18orthogonalize_with
FNDA:5,_RNvMNtCsjwG9vXUec8I_22tensor4all_itensorlike11tensortrainNtB2_11TensorTrain3lenB4_
FNDA:4,_RNvMNtCsjwG9vXUec8I_22tensor4all_itensorlike11tensortrainNtB2_11TensorTrain3new
FNDA:0,_RNvMNtCsjwG9vXUec8I_22tensor4all_itensorlike11tensortrainNtB2_11TensorTrain4llimB4_
FNDA:0,_RNvMNtCsjwG9vXUec8I_22tensor4all_itensorlike11tensortrainNtB2_11TensorTrain4norm
FNDA:0,_RNvMNtCsjwG9vXUec8I_22tensor4all_itensorlike11tensortrainNtB2_11TensorTrain4rlimB4_
FNDA:0,_RNvMNtCsjwG9vXUec8I_22tensor4all_itensorlike11tensortrainNtB2_11TensorTrain5inner
FNDA:0,_RNvMNtCsjwG9vXUec8I_22tensor4all_itensorlike11tensortrainNtB2_11TensorTrain6tensorB4_
FNDA:0,_RNvMNtCsjwG9vXUec8I_22tensor4all_itensorlike11tensortrainNtB2_11TensorTrain7haslink
FNDA:1,_RNvMNtCsjwG9vXUec8I_22tensor4all_itensorlike11tensortrainNtB2_11TensorTrain7linkind
FNDA:0,_RNvMNtCsjwG9vXUec8I_22tensor4all_itensorlike11tensortrainNtB2_11TensorTrain8bond_dim
FNDA:1,_RNvMNtCsjwG9vXUec8I_22tensor4all_itensorlike11tensortrainNtB2_11TensorTrain8contract
FNDA:2,_RNvMNtCsjwG9vXUec8I_22tensor4all_itensorlike11tensortrainNtB2_11TensorTrain8is_emptyB4_
FNDA:1,_RNvMNtCsjwG9vXUec8I_22tensor4all_itensorlike11tensortrainNtB2_11TensorTrain8linkinds
FNDA:0,_RNvMNtCsjwG9vXUec8I_22tensor4all_itensorlike11tensortrainNtB2_11TensorTrain8siteinds
FNDA:0,_RNvMNtCsjwG9vXUec8I_22tensor4all_itensorlike11tensortrainNtB2_11TensorTrain8truncate
FNDA:1,_RNvMNtCsjwG9vXUec8I_22tensor4all_itensorlike11tensortrainNtB2_11TensorTrain9bond_dims
FNDA:0,_RNvNtCsjwG9vXUec8I_22tensor4all_itensorlike11tensortrain20truncate_alg_to_form
FNDA:0,_RNvXs_NtCsjwG9vXUec8I_22tensor4all_itensorlike11tensortrainNtB4_11TensorTrainNtNtCskzPJi2J8k3N_4core7default7Default7default
FNDA:3,_RNvMNtCshTphA2Fw2hY_22tensor4all_itensorlike11tensortrainNtB2_11TensorTrain10maxbonddim
FNDA:1,_RNvMNtCshTphA2Fw2hY_22tensor4all_itensorlike11tensortrainNtB2_11TensorTrain10ortho_lims
FNDA:2,_RNvMNtCshTphA2Fw2hY_22tensor4all_itensorlike11tensortrainNtB2_11TensorTrain10with_ortho
FNDA:13,_RNvMNtCshTphA2Fw2hY_22tensor4all_itensorlike11tensortrainNtB2_11TensorTrain11orthocenter
FNDA:2,_RNvMNtCshTphA2Fw2hY_22tensor4all_itensorlike11tensortrainNtB2_11TensorTrain12norm_squared
FNDA:2,_RNvMNtCshTphA2Fw2hY_22tensor4all_itensorlike11tensortrainNtB2_11TensorTrain12sim_linkinds
FNDA:5,_RNvMNtCshTphA2Fw2hY_22tensor4all_itensorlike11tensortrainNtB2_11TensorTrain13orthogonalize
FNDA:5,_RNvMNtCshTphA2Fw2hY_22tensor4all_itensorlike11tensortrainNtB2_11TensorTrain14canonical_formB4_
FNDA:7,_RNvMNtCshTphA2Fw2hY_22tensor4all_itensorlike11tensortrainNtB2_11TensorTrain18orthogonalize_with
FNDA:56,_RNvMNtCshTphA2Fw2hY_22tensor4all_itensorlike11tensortrainNtB2_11TensorTrain3lenB4_
FNDA:15,_RNvMNtCshTphA2Fw2hY_22tensor4all_itensorlike11tensortrainNtB2_11TensorTrain3new
FNDA:2,_RNvMNtCshTphA2Fw2hY_22tensor4all_itensorlike11tensortrainNtB2_11TensorTrain4llimB4_
FNDA:1,_RNvMNtCshTphA2Fw2hY_22tensor4all_itensorlike11tensortrainNtB2_11TensorTrain4norm
FNDA:2,_RNvMNtCshTphA2Fw2hY_22tensor4all_itensorlike11tensortrainNtB2_11TensorTrain4rlimB4_
FNDA:2,_RNvMNtCshTphA2Fw2hY_22tensor4all_itensorlike11tensortrainNtB2_11TensorTrain5inner
FNDA:16,_RNvMNtCshTphA2Fw2hY_22tensor4all_itensorlike11tensortrainNtB2_11TensorTrain6tensorB4_
FNDA:12,_RNvMNtCshTphA2Fw2hY_22tensor4all_itensorlike11tensortrainNtB2_11TensorTrain7isorthoB4_
FNDA:13,_RNvMNtCshTphA2Fw2hY_22tensor4all_itensorlike11tensortrainNtB2_11TensorTrain7linkind
FNDA:12,_RNvMNtCshTphA2Fw2hY_22tensor4all_itensorlike11tensortrainNtB2_11TensorTrain8is_emptyB4_
FNDA:7,_RNvMNtCshTphA2Fw2hY_22tensor4all_itensorlike11tensortrainNtB2_11TensorTrain8linkinds
FNDA:2,_RNvMNtCshTphA2Fw2hY_22tensor4all_itensorlike11tensortrainNtB2_11TensorTrain8siteinds
FNDA:1,_RNvMNtCshTphA2Fw2hY_22tensor4all_itensorlike11tensortrainNtB2_11TensorTrain8truncate
FNDA:5,_RNvMNtCshTphA2Fw2hY_22tensor4all_itensorlike11tensortrainNtB2_11TensorTrain9bond_dims
FNDA:1,_RNvNtCshTphA2Fw2hY_22tensor4all_itensorlike11tensortrain20truncate_alg_to_form
FNDA:53,_RNCNvNtNtCshTphA2Fw2hY_22tensor4all_itensorlike11tensortrain5tests11make_tensor0B7_
FNDA:490,_RNCNvNtNtCshTphA2Fw2hY_22tensor4all_itensorlike11tensortrain5tests11make_tensors_0B7_
FNDA:26,_RNvNtNtCshTphA2Fw2hY_22tensor4all_itensorlike11tensortrain5tests11make_tensor
FNDA:40,_RNvNtNtCshTphA2Fw2hY_22tensor4all_itensorlike11tensortrain5tests3idx
FNDA:1,_RNvNtNtCshTphA2Fw2hY_22tensor4all_itensorlike11tensortrain5testss_13test_empty_tt
FNDA:1,_RNvNtNtCshTphA2Fw2hY_22tensor4all_itensorlike11tensortrain5testss_16test_two_site_tt
FNDA:1,_RNvNtNtCshTphA2Fw2hY_22tensor4all_itensorlike11tensortrain5testss_18test_inner_product
FNDA:1,_RNvNtNtCshTphA2Fw2hY_22tensor4all_itensorlike11tensortrain5testss_19test_ortho_tracking
FNDA:1,_RNvNtNtCshTphA2Fw2hY_22tensor4all_itensorlike11tensortrain5testss_19test_single_site_tt
FNDA:1,_RNvNtNtCshTphA2Fw2hY_22tensor4all_itensorlike11tensortrain5testss_21test_ortho_lims_range
FNDA:1,_RNvNtNtCshTphA2Fw2hY_22tensor4all_itensorlike11tensortrain5testss_23test_multi_site_indices
FNDA:1,_RNvNtNtCshTphA2Fw2hY_22tensor4all_itensorlike11tensortrain5testss_26test_no_common_index_error
FNDA:1,_RNvNtNtCshTphA2Fw2hY_22tensor4all_itensorlike11tensortrain5testss_26test_orthogonalize_with_ci
FNDA:1,_RNvNtNtCshTphA2Fw2hY_22tensor4all_itensorlike11tensortrain5testss_26test_orthogonalize_with_lu
FNDA:1,_RNvNtNtCshTphA2Fw2hY_22tensor4all_itensorlike11tensortrain5testss_27test_orthogonalize_two_site
FNDA:1,_RNvNtNtCshTphA2Fw2hY_22tensor4all_itensorlike11tensortrain5testss_27test_truncate_with_max_rank
FNDA:1,_RNvNtNtCshTphA2Fw2hY_22tensor4all_itensorlike11tensortrain5testss_29test_orthogonalize_three_site
FNDA:0,_RNCNvMNtCshTphA2Fw2hY_22tensor4all_itensorlike11tensortrainNtB4_11TensorTrain10with_ortho0B6_
FNDA:2,_RNCNvMNtCshTphA2Fw2hY_22tensor4all_itensorlike11tensortrainNtB4_11TensorTrain12sim_linkinds0B6_
FNDA:0,_RNCNvMNtCshTphA2Fw2hY_22tensor4all_itensorlike11tensortrainNtB4_11TensorTrain18orthogonalize_with0B6_
FNDA:0,_RNCNvMNtCshTphA2Fw2hY_22tensor4all_itensorlike11tensortrainNtB4_11TensorTrain3new0B6_
FNDA:8,_RNCNvMNtCshTphA2Fw2hY_22tensor4all_itensorlike11tensortrainNtB4_11TensorTrain8linkinds0B6_
FNDA:4,_RNCNvMNtCshTphA2Fw2hY_22tensor4all_itensorlike11tensortrainNtB4_11TensorTrain8siteinds0B6_
FNDA:5,_RNCNvMNtCshTphA2Fw2hY_22tensor4all_itensorlike11tensortrainNtB4_11TensorTrain8siteindss_0B6_
FNDA:0,_RNCNvMNtCshTphA2Fw2hY_22tensor4all_itensorlike11tensortrainNtB4_11TensorTrain8truncate0B6_
FNDA:6,_RNCNvMNtCshTphA2Fw2hY_22tensor4all_itensorlike11tensortrainNtB4_11TensorTrain9bond_dims0B6_
FNDA:0,_RNCNvMNtCshTphA2Fw2hY_22tensor4all_itensorlike11tensortrainNtB4_11TensorTrain14tensor_checked0B6_
FNDA:0,_RNCNvMNtCshTphA2Fw2hY_22tensor4all_itensorlike11tensortrainNtB4_11TensorTrain14tensor_checkeds_0B6_
FNDA:0,_RNCNvMNtCshTphA2Fw2hY_22tensor4all_itensorlike11tensortrainNtB4_11TensorTrain7tensors0B6_
FNDA:0,_RNCNvMNtCshTphA2Fw2hY_22tensor4all_itensorlike11tensortrainNtB4_11TensorTrain8bond_dim0B6_
FNDA:0,_RNCNvMNtCshTphA2Fw2hY_22tensor4all_itensorlike11tensortrainNtB4_11TensorTrain8contract0B6_
FNDA:0,_RNCNvMNtCshTphA2Fw2hY_22tensor4all_itensorlike11tensortrainNtB4_11TensorTrain8contracts_0B6_
FNDA:0,_RNvMNtCshTphA2Fw2hY_22tensor4all_itensorlike11tensortrainNtB2_11TensorTrain10set_tensor
FNDA:0,_RNvMNtCshTphA2Fw2hY_22tensor4all_itensorlike11tensortrainNtB2_11TensorTrain10tensor_mutB4_
FNDA:0,_RNvMNtCshTphA2Fw2hY_22tensor4all_itensorlike11tensortrainNtB2_11TensorTrain11tensors_mutB4_
FNDA:0,_RNvMNtCshTphA2Fw2hY_22tensor4all_itensorlike11tensortrainNtB2_11TensorTrain14tensor_checked
FNDA:0,_RNvMNtCshTphA2Fw2hY_22tensor4all_itensorlike11tensortrainNtB2_11TensorTrain18set_canonical_formB4_
FNDA:0,_RNvMNtCshTphA2Fw2hY_22tensor4all_itensorlike11tensortrainNtB2_11TensorTrain7haslink
FNDA:0,_RNvMNtCshTphA2Fw2hY_22tensor4all_itensorlike11tensortrainNtB2_11TensorTrain7tensorsB4_
FNDA:0,_RNvMNtCshTphA2Fw2hY_22tensor4all_itensorlike11tensortrainNtB2_11TensorTrain8bond_dim
FNDA:0,_RNvMNtCshTphA2Fw2hY_22tensor4all_itensorlike11tensortrainNtB2_11TensorTrain8contract
FNDA:0,_RNvMNtCshTphA2Fw2hY_22tensor4all_itensorlike11tensortrainNtB2_11TensorTrain8set_llimB4_
FNDA:0,_RNvMNtCshTphA2Fw2hY_22tensor4all_itensorlike11tensortrainNtB2_11TensorTrain8set_rlimB4_
FNDA:0,_RNvXs_NtCshTphA2Fw2hY_22tensor4all_itensorlike11tensortrainNtB4_11TensorTrainNtNtCskzPJi2J8k3N_4core7default7Default7default
FNF:68
FNH:47
DA:67,19
DA:68,19
DA:70,2
DA:71,2
DA:72,2
DA:73,2
DA:74,2
DA:75,17
DA:78,17
DA:79,17
DA:80,17
DA:82,17
DA:83,17
DA:84,1
DA:85,1
DA:86,1
DA:87,1
DA:88,1
DA:89,1
DA:90,1
DA:91,16
DA:92,16
DA:93,0
DA:94,0
DA:95,0
DA:96,0
DA:97,0
DA:98,0
DA:99,0
DA:100,0
DA:101,16
DA:105,16
DA:108,16
DA:109,16
DA:110,0
DA:111,0
DA:112,0
DA:113,0
DA:115,16
DA:116,16
DA:117,16
DA:118,16
DA:119,19
DA:131,2
DA:132,2
DA:133,2
DA:134,2
DA:135,2
DA:136,2
DA:137,2
DA:141,2
DA:142,2
DA:143,2
DA:144,0
DA:145,0
DA:146,0
DA:147,0
DA:148,0
DA:150,2
DA:151,2
DA:152,2
DA:156,63
DA:157,63
DA:158,63
DA:162,15
DA:163,15
DA:164,15
DA:171,2
DA:172,2
DA:173,1
DA:174,1
DA:176,2
DA:183,2
DA:184,2
DA:185,1
DA:186,1
DA:188,2
DA:192,0
DA:194,0
DA:195,0
DA:196,0
DA:197,0
DA:198,0
DA:199,0
DA:200,0
DA:201,0
DA:202,0
DA:206,0
DA:208,0
DA:209,0
DA:210,0
DA:211,0
DA:212,0
DA:213,0
DA:214,0
DA:215,0
DA:216,0
DA:223,1
DA:224,1
DA:225,1
DA:226,1
DA:227,1
DA:228,1
DA:229,1
DA:235,12
DA:236,12
DA:237,12
DA:243,13
DA:244,13
DA:245,13
DA:247,11
DA:249,2
DA:251,13
DA:255,5
DA:256,5
DA:257,5
DA:261,0
DA:262,0
DA:263,0
DA:271,16
DA:272,16
DA:273,16
DA:274,16
DA:279,0
DA:280,0
DA:281,0
DA:282,0
DA:283,0
DA:284,0
DA:285,0
DA:286,0
DA:287,0
DA:288,0
DA:289,0
DA:290,0
DA:291,0
DA:292,0
DA:293,0
DA:294,0
DA:295,0
DA:296,0
DA:297,0
DA:298,0
DA:299,0
DA:307,0
DA:308,0
DA:309,0
DA:310,0
DA:314,0
DA:315,0
DA:316,0
DA:317,0
DA:318,0
DA:319,0
DA:320,0
DA:321,0
DA:325,0
DA:329,0
DA:330,0
DA:335,14
DA:336,14
DA:337,0
DA:338,14
DA:340,14
DA:341,14
DA:342,14
DA:343,14
DA:344,14
DA:345,14
DA:346,14
DA:351,8
DA:352,8
DA:353,9
DA:354,8
DA:355,8
DA:362,2
DA:363,2
DA:364,0
DA:365,2
DA:368,2
DA:369,2
DA:370,2
DA:371,2
DA:372,2
DA:373,2
DA:374,2
DA:377,2
DA:378,4
DA:379,4
DA:380,4
DA:381,8
DA:382,4
DA:383,4
DA:384,4
DA:387,2
DA:388,2
DA:394,2
DA:395,2
DA:396,0
DA:397,2
DA:399,2
DA:401,4
DA:402,4
DA:403,4
DA:406,4
DA:407,2
DA:408,4
DA:409,0
DA:410,2
DA:413,4
DA:414,2
DA:415,5
DA:416,0
DA:417,2
DA:419,4
DA:422,2
DA:423,2
DA:428,0
DA:429,0
DA:430,0
DA:435,6
DA:436,7
DA:437,6
DA:440,4
DA:441,4
DA:442,4
DA:445,0
DA:446,0
DA:447,0
DA:448,0
DA:449,0
DA:450,0
DA:451,0
DA:452,0
DA:453,0
DA:454,0
DA:455,0
DA:456,0
DA:457,0
DA:460,0
DA:462,0
DA:467,0
DA:468,0
DA:469,0
DA:471,0
DA:472,0
DA:486,5
DA:487,5
DA:488,5
DA:499,7
DA:500,7
DA:501,0
DA:502,7
DA:503,7
DA:504,0
DA:505,0
DA:506,0
DA:507,0
DA:508,7
DA:512,7
DA:513,7
DA:514,7
DA:515,7
DA:516,0
DA:517,0
DA:519,7
DA:520,7
DA:521,7
DA:530,1
DA:531,1
DA:532,0
DA:533,1
DA:536,1
DA:537,1
DA:538,1
DA:539,1
DA:540,1
DA:544,1
DA:546,1
DA:547,1
DA:548,1
DA:549,0
DA:550,0
DA:552,1
DA:554,1
DA:555,1
DA:563,2
DA:564,2
DA:565,2
DA:566,2
DA:567,0
DA:570,2
DA:571,0
DA:572,2
DA:575,2
DA:578,2
DA:579,2
DA:580,2
DA:581,2
DA:585,2
DA:586,2
DA:587,2
DA:588,2
DA:589,2
DA:590,2
DA:591,2
DA:592,2
DA:593,2
DA:596,2
DA:597,2
DA:602,2
DA:603,2
DA:604,2
DA:609,1
DA:610,1
DA:611,1
DA:630,1
DA:631,1
DA:632,0
DA:633,0
DA:634,0
DA:635,1
DA:637,1
DA:638,0
DA:639,0
DA:640,0
DA:641,0
DA:642,0
DA:643,0
DA:644,0
DA:645,1
DA:648,1
DA:649,1
DA:650,0
DA:651,0
DA:656,1
DA:657,1
DA:658,1
DA:660,1
DA:661,0
DA:663,1
DA:666,1
DA:667,0
DA:669,1
DA:673,1
DA:676,1
DA:677,1
DA:678,1
DA:679,1
DA:680,1
DA:681,1
DA:682,1
DA:683,1
DA:685,1
DA:686,0
DA:687,0
DA:689,0
DA:690,0
DA:691,0
DA:692,0
DA:693,0
DA:696,1
DA:697,1
DA:698,1
DA:699,1
DA:700,1
DA:705,0
DA:706,0
DA:707,0
DA:714,1
DA:715,1
DA:716,1
DA:717,0
DA:718,0
DA:720,1
DA:729,26
DA:730,53
DA:731,26
DA:732,490
DA:733,26
DA:734,26
DA:735,26
DA:738,40
DA:739,40
DA:740,40
DA:743,1
DA:744,1
DA:745,1
DA:746,1
DA:747,1
DA:748,1
DA:749,1
DA:750,1
DA:753,1
DA:754,1
DA:756,1
DA:757,1
DA:758,1
DA:759,1
DA:760,1
DA:763,1
DA:765,1
DA:766,1
DA:767,1
DA:769,1
DA:770,1
DA:772,1
DA:773,1
DA:774,1
DA:775,1
DA:778,1
DA:779,1
DA:782,1
DA:783,1
DA:784,1
DA:785,1
DA:786,1
DA:787,1
DA:788,1
DA:791,1
DA:793,1
DA:794,1
DA:795,1
DA:796,1
DA:798,1
DA:799,1
DA:801,1
DA:804,1
DA:805,1
DA:806,1
DA:807,1
DA:808,1
DA:811,1
DA:812,1
DA:813,1
DA:814,1
DA:816,1
DA:817,1
DA:820,1
DA:821,1
DA:824,1
DA:826,1
DA:828,1
DA:829,1
DA:830,1
DA:831,1
DA:834,1
DA:835,1
DA:836,1
DA:837,1
DA:838,1
DA:839,1
DA:841,1
DA:842,1
DA:843,1
DA:846,1
DA:848,1
DA:849,1
DA:850,1
DA:851,1
DA:854,1
DA:855,1
DA:856,1
DA:858,1
DA:859,1
DA:861,1
DA:862,1
DA:863,1
DA:864,1
DA:867,1
DA:870,1
DA:872,1
DA:873,1
DA:874,1
DA:876,1
DA:877,1
DA:879,1
DA:880,1
DA:883,1
DA:884,1
DA:885,1
DA:886,1
DA:889,1
DA:890,1
DA:891,1
DA:892,1
DA:895,1
DA:897,1
DA:898,1
DA:899,1
DA:900,1
DA:901,1
DA:903,1
DA:904,1
DA:905,1
DA:907,1
DA:910,1
DA:911,1
DA:912,1
DA:915,1
DA:916,1
DA:917,1
DA:920,1
DA:921,1
DA:922,1
DA:923,1
DA:926,1
DA:927,1
DA:928,1
DA:929,1
DA:931,1
DA:932,1
DA:934,1
DA:936,1
DA:937,1
DA:938,1
DA:939,1
DA:940,1
DA:943,1
DA:944,1
DA:945,1
DA:946,1
DA:948,1
DA:949,1
DA:951,1
DA:953,1
DA:954,1
DA:955,1
DA:956,1
DA:957,1
DA:960,1
DA:962,1
DA:963,1
DA:964,1
DA:965,1
DA:966,1
DA:968,1
DA:969,1
DA:970,1
DA:972,1
DA:973,1
DA:976,1
DA:977,1
DA:980,1
DA:981,1
DA:982,1
DA:985,1
DA:986,1
DA:987,1
DA:988,1
DA:990,1
DA:991,1
DA:993,1
DA:996,1
DA:997,1
DA:1000,1
DA:1001,1
DA:1002,1
BRF:0
BRH:0
LF:577
LH:423
end_of_record
SF:/Users/ken/git_for_collab4/tensor4all-rs/crates/tensor4all-quanticstci/src/options.rs
FN:82,_RNvMs_NtCscSOxaV92jfc_22tensor4all_quanticstci7optionsNtB4_11QtciOptions14with_verbosity
FN:64,_RNvMs_NtCscSOxaV92jfc_22tensor4all_quanticstci7optionsNtB4_11QtciOptions12with_maxiter
FN:94,_RNvMs_NtCscSOxaV92jfc_22tensor4all_quanticstci7optionsNtB4_11QtciOptions12with_nsearch
FN:52,_RNvMs_NtCscSOxaV92jfc_22tensor4all_quanticstci7optionsNtB4_11QtciOptions14with_tolerance
FN:106,_RNvMs_NtCscSOxaV92jfc_22tensor4all_quanticstci7optionsNtB4_11QtciOptions15to_tci2_options
FN:58,_RNvMs_NtCscSOxaV92jfc_22tensor4all_quanticstci7optionsNtB4_11QtciOptions15with_maxbonddim
FN:100,_RNvMs_NtCscSOxaV92jfc_22tensor4all_quanticstci7optionsNtB4_11QtciOptions17with_pivot_search
FN:76,_RNvMs_NtCscSOxaV92jfc_22tensor4all_quanticstci7optionsNtB4_11QtciOptions20with_unfoldingscheme
FN:70,_RNvMs_NtCscSOxaV92jfc_22tensor4all_quanticstci7optionsNtB4_11QtciOptions21with_nrandominitpivot
FN:88,_RNvMs_NtCscSOxaV92jfc_22tensor4all_quanticstci7optionsNtB4_11QtciOptions23with_nsearchglobalpivot
FN:34,_RNvXNtCscSOxaV92jfc_22tensor4all_quanticstci7optionsNtB2_11QtciOptionsNtNtCskzPJi2J8k3N_4core7default7Default7default
FN:138,_RNvNtNtCscSOxaV92jfc_22tensor4all_quanticstci7options5testss_20test_builder_pattern
FN:125,_RNvNtNtCscSOxaV92jfc_22tensor4all_quanticstci7options5testss_20test_default_options
FN:156,_RNvNtNtCscSOxaV92jfc_22tensor4all_quanticstci7options5testss_20test_to_tci2_options
FNDA:0,_RNvMs_NtCscSOxaV92jfc_22tensor4all_quanticstci7optionsNtB4_11QtciOptions14with_verbosity
FNDA:2,_RNvMs_NtCscSOxaV92jfc_22tensor4all_quanticstci7optionsNtB4_11QtciOptions12with_maxiter
FNDA:2,_RNvMs_NtCscSOxaV92jfc_22tensor4all_quanticstci7optionsNtB4_11QtciOptions12with_nsearch
FNDA:5,_RNvMs_NtCscSOxaV92jfc_22tensor4all_quanticstci7optionsNtB4_11QtciOptions14with_tolerance
FNDA:3,_RNvMs_NtCscSOxaV92jfc_22tensor4all_quanticstci7optionsNtB4_11QtciOptions15to_tci2_options
FNDA:3,_RNvMs_NtCscSOxaV92jfc_22tensor4all_quanticstci7optionsNtB4_11QtciOptions15with_maxbonddim
FNDA:1,_RNvMs_NtCscSOxaV92jfc_22tensor4all_quanticstci7optionsNtB4_11QtciOptions17with_pivot_search
FNDA:3,_RNvMs_NtCscSOxaV92jfc_22tensor4all_quanticstci7optionsNtB4_11QtciOptions20with_unfoldingscheme
FNDA:2,_RNvMs_NtCscSOxaV92jfc_22tensor4all_quanticstci7optionsNtB4_11QtciOptions21with_nrandominitpivot
FNDA:2,_RNvMs_NtCscSOxaV92jfc_22tensor4all_quanticstci7optionsNtB4_11QtciOptions23with_nsearchglobalpivot
FNDA:7,_RNvXNtCscSOxaV92jfc_22tensor4all_quanticstci7optionsNtB2_11QtciOptionsNtNtCskzPJi2J8k3N_4core7default7Default7default
FNDA:1,_RNvNtNtCscSOxaV92jfc_22tensor4all_quanticstci7options5testss_20test_builder_pattern
FNDA:1,_RNvNtNtCscSOxaV92jfc_22tensor4all_quanticstci7options5testss_20test_default_options
FNDA:1,_RNvNtNtCscSOxaV92jfc_22tensor4all_quanticstci7options5testss_20test_to_tci2_options
FNF:14
FNH:13
DA:34,7
DA:35,7
DA:36,7
DA:37,7
DA:38,7
DA:39,7
DA:40,7
DA:41,7
DA:42,7
DA:43,7
DA:44,7
DA:45,7
DA:46,7
DA:47,7
DA:52,5
DA:53,5
DA:54,5
DA:55,5
DA:58,3
DA:59,3
DA:60,3
DA:61,3
DA:64,2
DA:65,2
DA:66,2
DA:67,2
DA:70,2
DA:71,2
DA:72,2
DA:73,2
DA:76,3
DA:77,3
DA:78,3
DA:79,3
DA:82,0
DA:83,0
DA:84,0
DA:85,0
DA:88,2
DA:89,2
DA:90,2
DA:91,2
DA:94,2
DA:95,2
DA:96,2
DA:97,2
DA:100,1
DA:101,1
DA:102,1
DA:103,1
DA:106,3
DA:107,3
DA:108,3
DA:109,3
DA:110,3
DA:111,3
DA:112,3
DA:113,3
DA:114,3
DA:115,3
DA:116,3
DA:117,3
DA:125,1
DA:126,1
DA:127,1
DA:128,1
DA:129,1
DA:130,1
DA:131,1
DA:132,1
DA:133,1
DA:134,1
DA:135,1
DA:138,1
DA:139,1
DA:140,1
DA:141,1
DA:142,1
DA:143,1
DA:144,1
DA:145,1
DA:147,1
DA:148,1
DA:149,1
DA:150,1
DA:151,1
DA:152,1
DA:153,1
DA:156,1
DA:157,1
DA:158,1
DA:159,1
DA:160,1
DA:161,1
DA:163,1
DA:164,1
DA:165,1
DA:166,1
DA:167,1
DA:168,1
BRF:0
BRH:0
LF:100
LH:96
end_of_record
SF:/Users/ken/git_for_collab4/tensor4all-rs/crates/tensor4all-quanticstci/src/quantics_tci.rs
FN:188,_RINvNtCscSOxaV92jfc_22tensor4all_quanticstci12quantics_tci24quanticscrossinterpolateppEB4_
FN:279,_RINvNtCscSOxaV92jfc_22tensor4all_quanticstci12quantics_tci36quanticscrossinterpolate_from_arraysppEB4_
FN:206,_RNCINvNtCscSOxaV92jfc_22tensor4all_quanticstci12quantics_tci24quanticscrossinterpolateppE0B6_
FN:243,_RNCINvNtCscSOxaV92jfc_22tensor4all_quanticstci12quantics_tci24quanticscrossinterpolateppEs0_0B6_
FN:259,_RNCINvNtCscSOxaV92jfc_22tensor4all_quanticstci12quantics_tci24quanticscrossinterpolateppEs1_0B6_
FN:228,_RNCINvNtCscSOxaV92jfc_22tensor4all_quanticstci12quantics_tci24quanticscrossinterpolateppEs_0B6_
FN:290,_RNCINvNtCscSOxaV92jfc_22tensor4all_quanticstci12quantics_tci36quanticscrossinterpolate_from_arraysppE0B6_
FN:300,_RNCINvNtCscSOxaV92jfc_22tensor4all_quanticstci12quantics_tci36quanticscrossinterpolate_from_arraysppEs0_0B6_
FN:306,_RNCINvNtCscSOxaV92jfc_22tensor4all_quanticstci12quantics_tci36quanticscrossinterpolate_from_arraysppEs1_0B6_
FN:307,_RNCINvNtCscSOxaV92jfc_22tensor4all_quanticstci12quantics_tci36quanticscrossinterpolate_from_arraysppEs2_0B6_
FN:308,_RNCINvNtCscSOxaV92jfc_22tensor4all_quanticstci12quantics_tci36quanticscrossinterpolate_from_arraysppEs3_0B6_
FN:317,_RNCINvNtCscSOxaV92jfc_22tensor4all_quanticstci12quantics_tci36quanticscrossinterpolate_from_arraysppEs4_0B6_
FN:293,_RNCINvNtCscSOxaV92jfc_22tensor4all_quanticstci12quantics_tci36quanticscrossinterpolate_from_arraysppEs_0B6_
FN:208,_RNCNCINvNtCscSOxaV92jfc_22tensor4all_quanticstci12quantics_tci24quanticscrossinterpolateppE00B8_
FN:232,_RNCNCINvNtCscSOxaV92jfc_22tensor4all_quanticstci12quantics_tci24quanticscrossinterpolateppEs_00B8_
FN:232,_RNCNCNCINvNtCscSOxaV92jfc_22tensor4all_quanticstci12quantics_tci24quanticscrossinterpolateppEs_000Ba_
FN:165,_RNCNvMNtCscSOxaV92jfc_22tensor4all_quanticstci12quantics_tciINtB4_17QuanticsTensorCI2pE19cachedata_origcoord0B6_
FN:141,_RNvMNtCscSOxaV92jfc_22tensor4all_quanticstci12quantics_tciINtB2_17QuanticsTensorCI2pE12tensor_trainB4_
FN:71,_RNvMNtCscSOxaV92jfc_22tensor4all_quanticstci12quantics_tciINtB2_17QuanticsTensorCI2pE13inherent_gridB4_
FN:66,_RNvMNtCscSOxaV92jfc_22tensor4all_quanticstci12quantics_tciINtB2_17QuanticsTensorCI2pE16discretized_gridB4_
FN:33,_RNvMNtCscSOxaV92jfc_22tensor4all_quanticstci12quantics_tciINtB2_17QuanticsTensorCI2pE16from_discretizedB4_
FN:156,_RNvMNtCscSOxaV92jfc_22tensor4all_quanticstci12quantics_tciINtB2_17QuanticsTensorCI2pE19cachedata_origcoordB4_
FN:61,_RNvMNtCscSOxaV92jfc_22tensor4all_quanticstci12quantics_tciINtB2_17QuanticsTensorCI2pE3tciB4_
FN:126,_RNvMNtCscSOxaV92jfc_22tensor4all_quanticstci12quantics_tciINtB2_17QuanticsTensorCI2pE8integralB4_
FN:332,_RINvNtCscSOxaV92jfc_22tensor4all_quanticstci12quantics_tci33quanticscrossinterpolate_discretedNCNvNtB2_5testss_20test_size_validation0EB4_
FN:332,_RINvNtCscSOxaV92jfc_22tensor4all_quanticstci12quantics_tci33quanticscrossinterpolate_discretedNCNvNtB2_5testss_27test_discrete_tci_structure0EB4_
FN:332,_RINvNtCscSOxaV92jfc_22tensor4all_quanticstci12quantics_tci33quanticscrossinterpolate_discretedNCNvNtB2_5testss_29test_discrete_simple_function0EB4_
FN:343,_RNCINvNtCscSOxaV92jfc_22tensor4all_quanticstci12quantics_tci33quanticscrossinterpolate_discretedNCNvNtB4_5testss_20test_size_validation0E0B6_
FN:351,_RNCINvNtCscSOxaV92jfc_22tensor4all_quanticstci12quantics_tci33quanticscrossinterpolate_discretedNCNvNtB4_5testss_20test_size_validation0Es0_0B6_
FN:365,_RNCINvNtCscSOxaV92jfc_22tensor4all_quanticstci12quantics_tci33quanticscrossinterpolate_discretedNCNvNtB4_5testss_20test_size_validation0Es1_0B6_
FN:375,_RNCINvNtCscSOxaV92jfc_22tensor4all_quanticstci12quantics_tci33quanticscrossinterpolate_discretedNCNvNtB4_5testss_20test_size_validation0Es2_0B6_
FN:397,_RNCINvNtCscSOxaV92jfc_22tensor4all_quanticstci12quantics_tci33quanticscrossinterpolate_discretedNCNvNtB4_5testss_20test_size_validation0Es3_0B6_
FN:412,_RNCINvNtCscSOxaV92jfc_22tensor4all_quanticstci12quantics_tci33quanticscrossinterpolate_discretedNCNvNtB4_5testss_20test_size_validation0Es4_0B6_
FN:428,_RNCINvNtCscSOxaV92jfc_22tensor4all_quanticstci12quantics_tci33quanticscrossinterpolate_discretedNCNvNtB4_5testss_20test_size_validation0Es5_0B6_
FN:345,_RNCINvNtCscSOxaV92jfc_22tensor4all_quanticstci12quantics_tci33quanticscrossinterpolate_discretedNCNvNtB4_5testss_20test_size_validation0Es_0B6_
FN:343,_RNCINvNtCscSOxaV92jfc_22tensor4all_quanticstci12quantics_tci33quanticscrossinterpolate_discretedNCNvNtB4_5testss_27test_discrete_tci_structure0E0B6_
FN:351,_RNCINvNtCscSOxaV92jfc_22tensor4all_quanticstci12quantics_tci33quanticscrossinterpolate_discretedNCNvNtB4_5testss_27test_discrete_tci_structure0Es0_0B6_
FN:365,_RNCINvNtCscSOxaV92jfc_22tensor4all_quanticstci12quantics_tci33quanticscrossinterpolate_discretedNCNvNtB4_5testss_27test_discrete_tci_structure0Es1_0B6_
FN:375,_RNCINvNtCscSOxaV92jfc_22tensor4all_quanticstci12quantics_tci33quanticscrossinterpolate_discretedNCNvNtB4_5testss_27test_discrete_tci_structure0Es2_0B6_
FN:397,_RNCINvNtCscSOxaV92jfc_22tensor4all_quanticstci12quantics_tci33quanticscrossinterpolate_discretedNCNvNtB4_5testss_27test_discrete_tci_structure0Es3_0B6_
FN:412,_RNCINvNtCscSOxaV92jfc_22tensor4all_quanticstci12quantics_tci33quanticscrossinterpolate_discretedNCNvNtB4_5testss_27test_discrete_tci_structure0Es4_0B6_
FN:428,_RNCINvNtCscSOxaV92jfc_22tensor4all_quanticstci12quantics_tci33quanticscrossinterpolate_discretedNCNvNtB4_5testss_27test_discrete_tci_structure0Es5_0B6_
FN:345,_RNCINvNtCscSOxaV92jfc_22tensor4all_quanticstci12quantics_tci33quanticscrossinterpolate_discretedNCNvNtB4_5testss_27test_discrete_tci_structure0Es_0B6_
FN:343,_RNCINvNtCscSOxaV92jfc_22tensor4all_quanticstci12quantics_tci33quanticscrossinterpolate_discretedNCNvNtB4_5testss_29test_discrete_simple_function0E0B6_
FN:351,_RNCINvNtCscSOxaV92jfc_22tensor4all_quanticstci12quantics_tci33quanticscrossinterpolate_discretedNCNvNtB4_5testss_29test_discrete_simple_function0Es0_0B6_
FN:365,_RNCINvNtCscSOxaV92jfc_22tensor4all_quanticstci12quantics_tci33quanticscrossinterpolate_discretedNCNvNtB4_5testss_29test_discrete_simple_function0Es1_0B6_
FN:375,_RNCINvNtCscSOxaV92jfc_22tensor4all_quanticstci12quantics_tci33quanticscrossinterpolate_discretedNCNvNtB4_5testss_29test_discrete_simple_function0Es2_0B6_
FN:397,_RNCINvNtCscSOxaV92jfc_22tensor4all_quanticstci12quantics_tci33quanticscrossinterpolate_discretedNCNvNtB4_5testss_29test_discrete_simple_function0Es3_0B6_
FN:412,_RNCINvNtCscSOxaV92jfc_22tensor4all_quanticstci12quantics_tci33quanticscrossinterpolate_discretedNCNvNtB4_5testss_29test_discrete_simple_function0Es4_0B6_
FN:428,_RNCINvNtCscSOxaV92jfc_22tensor4all_quanticstci12quantics_tci33quanticscrossinterpolate_discretedNCNvNtB4_5testss_29test_discrete_simple_function0Es5_0B6_
FN:345,_RNCINvNtCscSOxaV92jfc_22tensor4all_quanticstci12quantics_tci33quanticscrossinterpolate_discretedNCNvNtB4_5testss_29test_discrete_simple_function0Es_0B6_
FN:377,_RNCNCINvNtCscSOxaV92jfc_22tensor4all_quanticstci12quantics_tci33quanticscrossinterpolate_discretedNCNvNtB6_5testss_20test_size_validation0Es2_00B8_
FN:401,_RNCNCINvNtCscSOxaV92jfc_22tensor4all_quanticstci12quantics_tci33quanticscrossinterpolate_discretedNCNvNtB6_5testss_20test_size_validation0Es3_00B8_
FN:377,_RNCNCINvNtCscSOxaV92jfc_22tensor4all_quanticstci12quantics_tci33quanticscrossinterpolate_discretedNCNvNtB6_5testss_27test_discrete_tci_structure0Es2_00B8_
FN:401,_RNCNCINvNtCscSOxaV92jfc_22tensor4all_quanticstci12quantics_tci33quanticscrossinterpolate_discretedNCNvNtB6_5testss_27test_discrete_tci_structure0Es3_00B8_
FN:377,_RNCNCINvNtCscSOxaV92jfc_22tensor4all_quanticstci12quantics_tci33quanticscrossinterpolate_discretedNCNvNtB6_5testss_29test_discrete_simple_function0Es2_00B8_
FN:401,_RNCNCINvNtCscSOxaV92jfc_22tensor4all_quanticstci12quantics_tci33quanticscrossinterpolate_discretedNCNvNtB6_5testss_29test_discrete_simple_function0Es3_00B8_
FN:401,_RNCNCNCINvNtCscSOxaV92jfc_22tensor4all_quanticstci12quantics_tci33quanticscrossinterpolate_discretedNCNvNtB8_5testss_20test_size_validation0Es3_000Ba_
FN:401,_RNCNCNCINvNtCscSOxaV92jfc_22tensor4all_quanticstci12quantics_tci33quanticscrossinterpolate_discretedNCNvNtB8_5testss_27test_discrete_tci_structure0Es3_000Ba_
FN:401,_RNCNCNCINvNtCscSOxaV92jfc_22tensor4all_quanticstci12quantics_tci33quanticscrossinterpolate_discretedNCNvNtB8_5testss_29test_discrete_simple_function0Es3_000Ba_
FN:89,_RNCNvMNtCscSOxaV92jfc_22tensor4all_quanticstci12quantics_tciINtB4_17QuanticsTensorCI2dE19grididx_to_quantics0B6_
FN:92,_RNCNvMNtCscSOxaV92jfc_22tensor4all_quanticstci12quantics_tciINtB4_17QuanticsTensorCI2dE19grididx_to_quanticss_0B6_
FN:109,_RNCNvMNtCscSOxaV92jfc_22tensor4all_quanticstci12quantics_tciINtB4_17QuanticsTensorCI2dE8evaluate0B6_
FN:111,_RNCNvMNtCscSOxaV92jfc_22tensor4all_quanticstci12quantics_tciINtB4_17QuanticsTensorCI2dE8evaluates_0B6_
FN:47,_RNvMNtCscSOxaV92jfc_22tensor4all_quanticstci12quantics_tciINtB2_17QuanticsTensorCI2dE13from_inherentB4_
FN:86,_RNvMNtCscSOxaV92jfc_22tensor4all_quanticstci12quantics_tciINtB2_17QuanticsTensorCI2dE19grididx_to_quanticsB4_
FN:117,_RNvMNtCscSOxaV92jfc_22tensor4all_quanticstci12quantics_tciINtB2_17QuanticsTensorCI2dE3sumB4_
FN:76,_RNvMNtCscSOxaV92jfc_22tensor4all_quanticstci12quantics_tciINtB2_17QuanticsTensorCI2dE4rankB4_
FN:105,_RNvMNtCscSOxaV92jfc_22tensor4all_quanticstci12quantics_tciINtB2_17QuanticsTensorCI2dE8evaluateB4_
FN:148,_RNvMNtCscSOxaV92jfc_22tensor4all_quanticstci12quantics_tciINtB2_17QuanticsTensorCI2dE9cachedataB4_
FN:81,_RNvMNtCscSOxaV92jfc_22tensor4all_quanticstci12quantics_tciINtB2_17QuanticsTensorCI2dE9link_dimsB4_
FN:522,_RNvNtNtCscSOxaV92jfc_22tensor4all_quanticstci12quantics_tci5testss_20test_options_builder
FN:512,_RNvNtNtCscSOxaV92jfc_22tensor4all_quanticstci12quantics_tci5testss_20test_size_validation
FN:474,_RNvNtNtCscSOxaV92jfc_22tensor4all_quanticstci12quantics_tci5testss_27test_discrete_tci_structure
FN:445,_RNvNtNtCscSOxaV92jfc_22tensor4all_quanticstci12quantics_tci5testss_29test_discrete_simple_function
FN:478,_RNCNvNtNtCscSOxaV92jfc_22tensor4all_quanticstci12quantics_tci5testss_27test_discrete_tci_structure0B7_
FN:448,_RNCNvNtNtCscSOxaV92jfc_22tensor4all_quanticstci12quantics_tci5testss_29test_discrete_simple_function0B7_
FNDA:0,_RINvNtCscSOxaV92jfc_22tensor4all_quanticstci12quantics_tci24quanticscrossinterpolateppEB4_
FNDA:0,_RINvNtCscSOxaV92jfc_22tensor4all_quanticstci12quantics_tci36quanticscrossinterpolate_from_arraysppEB4_
FNDA:0,_RNCINvNtCscSOxaV92jfc_22tensor4all_quanticstci12quantics_tci24quanticscrossinterpolateppE0B6_
FNDA:0,_RNCINvNtCscSOxaV92jfc_22tensor4all_quanticstci12quantics_tci24quanticscrossinterpolateppEs0_0B6_
FNDA:0,_RNCINvNtCscSOxaV92jfc_22tensor4all_quanticstci12quantics_tci24quanticscrossinterpolateppEs1_0B6_
FNDA:0,_RNCINvNtCscSOxaV92jfc_22tensor4all_quanticstci12quantics_tci24quanticscrossinterpolateppEs_0B6_
FNDA:0,_RNCINvNtCscSOxaV92jfc_22tensor4all_quanticstci12quantics_tci36quanticscrossinterpolate_from_arraysppE0B6_
FNDA:0,_RNCINvNtCscSOxaV92jfc_22tensor4all_quanticstci12quantics_tci36quanticscrossinterpolate_from_arraysppEs0_0B6_
FNDA:0,_RNCINvNtCscSOxaV92jfc_22tensor4all_quanticstci12quantics_tci36quanticscrossinterpolate_from_arraysppEs1_0B6_
FNDA:0,_RNCINvNtCscSOxaV92jfc_22tensor4all_quanticstci12quantics_tci36quanticscrossinterpolate_from_arraysppEs2_0B6_
FNDA:0,_RNCINvNtCscSOxaV92jfc_22tensor4all_quanticstci12quantics_tci36quanticscrossinterpolate_from_arraysppEs3_0B6_
FNDA:0,_RNCINvNtCscSOxaV92jfc_22tensor4all_quanticstci12quantics_tci36quanticscrossinterpolate_from_arraysppEs4_0B6_
FNDA:0,_RNCINvNtCscSOxaV92jfc_22tensor4all_quanticstci12quantics_tci36quanticscrossinterpolate_from_arraysppEs_0B6_
FNDA:0,_RNCNCINvNtCscSOxaV92jfc_22tensor4all_quanticstci12quantics_tci24quanticscrossinterpolateppE00B8_
FNDA:0,_RNCNCINvNtCscSOxaV92jfc_22tensor4all_quanticstci12quantics_tci24quanticscrossinterpolateppEs_00B8_
FNDA:0,_RNCNCNCINvNtCscSOxaV92jfc_22tensor4all_quanticstci12quantics_tci24quanticscrossinterpolateppEs_000Ba_
FNDA:0,_RNCNvMNtCscSOxaV92jfc_22tensor4all_quanticstci12quantics_tciINtB4_17QuanticsTensorCI2pE19cachedata_origcoord0B6_
FNDA:0,_RNvMNtCscSOxaV92jfc_22tensor4all_quanticstci12quantics_tciINtB2_17QuanticsTensorCI2pE12tensor_trainB4_
FNDA:0,_RNvMNtCscSOxaV92jfc_22tensor4all_quanticstci12quantics_tciINtB2_17QuanticsTensorCI2pE13inherent_gridB4_
FNDA:0,_RNvMNtCscSOxaV92jfc_22tensor4all_quanticstci12quantics_tciINtB2_17QuanticsTensorCI2pE16discretized_gridB4_
FNDA:0,_RNvMNtCscSOxaV92jfc_22tensor4all_quanticstci12quantics_tciINtB2_17QuanticsTensorCI2pE16from_discretizedB4_
FNDA:0,_RNvMNtCscSOxaV92jfc_22tensor4all_quanticstci12quantics_tciINtB2_17QuanticsTensorCI2pE19cachedata_origcoordB4_
FNDA:0,_RNvMNtCscSOxaV92jfc_22tensor4all_quanticstci12quantics_tciINtB2_17QuanticsTensorCI2pE3tciB4_
FNDA:0,_RNvMNtCscSOxaV92jfc_22tensor4all_quanticstci12quantics_tciINtB2_17QuanticsTensorCI2pE8integralB4_
FNDA:1,_RINvNtCscSOxaV92jfc_22tensor4all_quanticstci12quantics_tci33quanticscrossinterpolate_discretedNCNvNtB2_5testss_20test_size_validation0EB4_
FNDA:1,_RINvNtCscSOxaV92jfc_22tensor4all_quanticstci12quantics_tci33quanticscrossinterpolate_discretedNCNvNtB2_5testss_27test_discrete_tci_structure0EB4_
