SF:/Users/ken/git_for_collab4/tensor4all-rs/crates/matrixci/src/matrixlu.rs
FN:123,_RNCNvMNtCshHGmKsBkduK_8matrixci8matrixluINtB4_4RrLUdE12pivot_errors0CslD6BJj2Z6b5_15tensor4all_capi
FN:115,_RNCNvMNtCshHGmKsBkduK_8matrixci8matrixluINtB4_4RrLUdE4diag0CslD6BJj2Z6b5_15tensor4all_capi
FN:117,_RNCNvMNtCshHGmKsBkduK_8matrixci8matrixluINtB4_4RrLUdE4diags_0CslD6BJj2Z6b5_15tensor4all_capi
FN:122,_RNvMNtCshHGmKsBkduK_8matrixci8matrixluINtB2_4RrLUdE12pivot_errorsCslD6BJj2Z6b5_15tensor4all_capi
FN:112,_RNvMNtCshHGmKsBkduK_8matrixci8matrixluINtB2_4RrLUdE4diagCslD6BJj2Z6b5_15tensor4all_capi
FN:177,_RINvNtCshHGmKsBkduK_8matrixci8matrixlu12rrlu_inplaceINtCsggbFOsTKhzv_11num_complex7ComplexdEECsbrO2ourfQV3_15tensor4all_core
FN:177,_RINvNtCshHGmKsBkduK_8matrixci8matrixlu12rrlu_inplacedECsbrO2ourfQV3_15tensor4all_core
FN:306,_RINvNtCshHGmKsBkduK_8matrixci8matrixlu4rrluINtCsggbFOsTKhzv_11num_complex7ComplexdEECsbrO2ourfQV3_15tensor4all_core
FN:306,_RINvNtCshHGmKsBkduK_8matrixci8matrixlu4rrludECsbrO2ourfQV3_15tensor4all_core
FN:67,_RNvMNtCshHGmKsBkduK_8matrixci8matrixluINtB2_4RrLUINtCsggbFOsTKhzv_11num_complex7ComplexdEE15col_permutationCsbrO2ourfQV3_15tensor4all_core
FN:62,_RNvMNtCshHGmKsBkduK_8matrixci8matrixluINtB2_4RrLUINtCsggbFOsTKhzv_11num_complex7ComplexdEE15row_permutationCsbrO2ourfQV3_15tensor4all_core
FN:147,_RNvMNtCshHGmKsBkduK_8matrixci8matrixluINtB2_4RrLUINtCsggbFOsTKhzv_11num_complex7ComplexdEE18is_left_orthogonalCsbrO2ourfQV3_15tensor4all_core
FN:34,_RNvMNtCshHGmKsBkduK_8matrixci8matrixluINtB2_4RrLUINtCsggbFOsTKhzv_11num_complex7ComplexdEE3newCsbrO2ourfQV3_15tensor4all_core
FN:82,_RNvMNtCshHGmKsBkduK_8matrixci8matrixluINtB2_4RrLUINtCsggbFOsTKhzv_11num_complex7ComplexdEE4leftCsbrO2ourfQV3_15tensor4all_core
FN:52,_RNvMNtCshHGmKsBkduK_8matrixci8matrixluINtB2_4RrLUINtCsggbFOsTKhzv_11num_complex7ComplexdEE5ncolsCsbrO2ourfQV3_15tensor4all_core
FN:47,_RNvMNtCshHGmKsBkduK_8matrixci8matrixluINtB2_4RrLUINtCsggbFOsTKhzv_11num_complex7ComplexdEE5nrowsCsbrO2ourfQV3_15tensor4all_core
FN:97,_RNvMNtCshHGmKsBkduK_8matrixci8matrixluINtB2_4RrLUINtCsggbFOsTKhzv_11num_complex7ComplexdEE5rightCsbrO2ourfQV3_15tensor4all_core
FN:57,_RNvMNtCshHGmKsBkduK_8matrixci8matrixluINtB2_4RrLUINtCsggbFOsTKhzv_11num_complex7ComplexdEE7npivotsCsbrO2ourfQV3_15tensor4all_core
FN:67,_RNvMNtCshHGmKsBkduK_8matrixci8matrixluINtB2_4RrLUdE15col_permutationCsbrO2ourfQV3_15tensor4all_core
FN:62,_RNvMNtCshHGmKsBkduK_8matrixci8matrixluINtB2_4RrLUdE15row_permutationCsbrO2ourfQV3_15tensor4all_core
FN:147,_RNvMNtCshHGmKsBkduK_8matrixci8matrixluINtB2_4RrLUdE18is_left_orthogonalCsbrO2ourfQV3_15tensor4all_core
FN:34,_RNvMNtCshHGmKsBkduK_8matrixci8matrixluINtB2_4RrLUdE3newCsbrO2ourfQV3_15tensor4all_core
FN:82,_RNvMNtCshHGmKsBkduK_8matrixci8matrixluINtB2_4RrLUdE4leftCsbrO2ourfQV3_15tensor4all_core
FN:52,_RNvMNtCshHGmKsBkduK_8matrixci8matrixluINtB2_4RrLUdE5ncolsCsbrO2ourfQV3_15tensor4all_core
FN:47,_RNvMNtCshHGmKsBkduK_8matrixci8matrixluINtB2_4RrLUdE5nrowsCsbrO2ourfQV3_15tensor4all_core
FN:97,_RNvMNtCshHGmKsBkduK_8matrixci8matrixluINtB2_4RrLUdE5rightCsbrO2ourfQV3_15tensor4all_core
FN:57,_RNvMNtCshHGmKsBkduK_8matrixci8matrixluINtB2_4RrLUdE7npivotsCsbrO2ourfQV3_15tensor4all_core
FN:166,_RNvXs_NtCshHGmKsBkduK_8matrixci8matrixluNtB4_11RrLUOptionsNtNtCskzPJi2J8k3N_4core7default7Default7default
FNDA:1,_RNCNvMNtCshHGmKsBkduK_8matrixci8matrixluINtB4_4RrLUdE12pivot_errors0CslD6BJj2Z6b5_15tensor4all_capi
FNDA:1,_RNCNvMNtCshHGmKsBkduK_8matrixci8matrixluINtB4_4RrLUdE4diag0CslD6BJj2Z6b5_15tensor4all_capi
FNDA:0,_RNCNvMNtCshHGmKsBkduK_8matrixci8matrixluINtB4_4RrLUdE4diags_0CslD6BJj2Z6b5_15tensor4all_capi
FNDA:1,_RNvMNtCshHGmKsBkduK_8matrixci8matrixluINtB2_4RrLUdE12pivot_errorsCslD6BJj2Z6b5_15tensor4all_capi
FNDA:1,_RNvMNtCshHGmKsBkduK_8matrixci8matrixluINtB2_4RrLUdE4diagCslD6BJj2Z6b5_15tensor4all_capi
FNDA:0,_RINvNtCshHGmKsBkduK_8matrixci8matrixlu12rrlu_inplaceINtCsggbFOsTKhzv_11num_complex7ComplexdEECsbrO2ourfQV3_15tensor4all_core
FNDA:3,_RINvNtCshHGmKsBkduK_8matrixci8matrixlu12rrlu_inplacedECsbrO2ourfQV3_15tensor4all_core
FNDA:0,_RINvNtCshHGmKsBkduK_8matrixci8matrixlu4rrluINtCsggbFOsTKhzv_11num_complex7ComplexdEECsbrO2ourfQV3_15tensor4all_core
FNDA:3,_RINvNtCshHGmKsBkduK_8matrixci8matrixlu4rrludECsbrO2ourfQV3_15tensor4all_core
FNDA:0,_RNvMNtCshHGmKsBkduK_8matrixci8matrixluINtB2_4RrLUINtCsggbFOsTKhzv_11num_complex7ComplexdEE15col_permutationCsbrO2ourfQV3_15tensor4all_core
FNDA:0,_RNvMNtCshHGmKsBkduK_8matrixci8matrixluINtB2_4RrLUINtCsggbFOsTKhzv_11num_complex7ComplexdEE15row_permutationCsbrO2ourfQV3_15tensor4all_core
FNDA:0,_RNvMNtCshHGmKsBkduK_8matrixci8matrixluINtB2_4RrLUINtCsggbFOsTKhzv_11num_complex7ComplexdEE18is_left_orthogonalCsbrO2ourfQV3_15tensor4all_core
FNDA:0,_RNvMNtCshHGmKsBkduK_8matrixci8matrixluINtB2_4RrLUINtCsggbFOsTKhzv_11num_complex7ComplexdEE3newCsbrO2ourfQV3_15tensor4all_core
FNDA:0,_RNvMNtCshHGmKsBkduK_8matrixci8matrixluINtB2_4RrLUINtCsggbFOsTKhzv_11num_complex7ComplexdEE4leftCsbrO2ourfQV3_15tensor4all_core
FNDA:0,_RNvMNtCshHGmKsBkduK_8matrixci8matrixluINtB2_4RrLUINtCsggbFOsTKhzv_11num_complex7ComplexdEE5ncolsCsbrO2ourfQV3_15tensor4all_core
FNDA:0,_RNvMNtCshHGmKsBkduK_8matrixci8matrixluINtB2_4RrLUINtCsggbFOsTKhzv_11num_complex7ComplexdEE5nrowsCsbrO2ourfQV3_15tensor4all_core
FNDA:0,_RNvMNtCshHGmKsBkduK_8matrixci8matrixluINtB2_4RrLUINtCsggbFOsTKhzv_11num_complex7ComplexdEE5rightCsbrO2ourfQV3_15tensor4all_core
FNDA:0,_RNvMNtCshHGmKsBkduK_8matrixci8matrixluINtB2_4RrLUINtCsggbFOsTKhzv_11num_complex7ComplexdEE7npivotsCsbrO2ourfQV3_15tensor4all_core
FNDA:1,_RNvMNtCshHGmKsBkduK_8matrixci8matrixluINtB2_4RrLUdE15col_permutationCsbrO2ourfQV3_15tensor4all_core
FNDA:3,_RNvMNtCshHGmKsBkduK_8matrixci8matrixluINtB2_4RrLUdE15row_permutationCsbrO2ourfQV3_15tensor4all_core
FNDA:4,_RNvMNtCshHGmKsBkduK_8matrixci8matrixluINtB2_4RrLUdE18is_left_orthogonalCsbrO2ourfQV3_15tensor4all_core
FNDA:3,_RNvMNtCshHGmKsBkduK_8matrixci8matrixluINtB2_4RrLUdE3newCsbrO2ourfQV3_15tensor4all_core
FNDA:4,_RNvMNtCshHGmKsBkduK_8matrixci8matrixluINtB2_4RrLUdE4leftCsbrO2ourfQV3_15tensor4all_core
FNDA:0,_RNvMNtCshHGmKsBkduK_8matrixci8matrixluINtB2_4RrLUdE5ncolsCsbrO2ourfQV3_15tensor4all_core
FNDA:2,_RNvMNtCshHGmKsBkduK_8matrixci8matrixluINtB2_4RrLUdE5nrowsCsbrO2ourfQV3_15tensor4all_core
FNDA:3,_RNvMNtCshHGmKsBkduK_8matrixci8matrixluINtB2_4RrLUdE5rightCsbrO2ourfQV3_15tensor4all_core
FNDA:9,_RNvMNtCshHGmKsBkduK_8matrixci8matrixluINtB2_4RrLUdE7npivotsCsbrO2ourfQV3_15tensor4all_core
FNDA:0,_RNvXs_NtCshHGmKsBkduK_8matrixci8matrixluNtB4_11RrLUOptionsNtNtCskzPJi2J8k3N_4core7default7Default7default
FNF:17
FNH:14
DA:34,3
DA:35,3
DA:36,3
DA:37,3
DA:38,3
DA:39,3
DA:40,3
DA:41,3
DA:42,3
DA:43,3
DA:44,3
DA:47,2
DA:48,2
DA:49,2
DA:52,0
DA:53,0
DA:54,0
DA:57,9
DA:58,9
DA:59,9
DA:62,3
DA:63,3
DA:64,3
DA:67,1
DA:68,1
DA:69,1
DA:82,4
DA:83,4
DA:84,1
DA:85,2
DA:86,4
DA:87,4
DA:88,4
DA:90,1
DA:92,3
DA:94,4
DA:97,3
DA:98,3
DA:99,3
DA:100,5
DA:101,16
DA:102,16
DA:103,16
DA:105,3
DA:107,0
DA:109,3
DA:112,1
DA:113,1
DA:114,1
DA:115,1
DA:117,0
DA:119,1
DA:122,1
DA:123,1
DA:124,1
DA:125,1
DA:126,1
DA:147,4
DA:148,4
DA:149,4
DA:166,0
DA:167,0
DA:168,0
DA:169,0
DA:170,0
DA:171,0
DA:172,0
DA:173,0
DA:177,3
DA:178,3
DA:179,3
DA:180,3
DA:182,3
DA:183,3
DA:184,3
DA:186,8
DA:187,6
DA:188,6
DA:189,6
DA:191,6
DA:192,0
DA:193,6
DA:196,6
DA:198,6
DA:199,6
DA:202,6
DA:203,1
DA:204,5
DA:206,5
DA:209,5
DA:210,2
DA:211,2
DA:212,3
DA:213,5
DA:214,4
DA:215,4
DA:216,4
DA:218,5
DA:221,5
DA:223,5
DA:224,4
DA:225,4
DA:226,4
DA:229,0
DA:230,0
DA:231,0
DA:232,0
DA:236,5
DA:237,10
DA:238,10
DA:239,10
DA:240,10
DA:241,10
DA:242,10
DA:245,5
DA:249,3
DA:252,3
DA:253,7
DA:254,9
DA:255,9
DA:256,9
DA:260,3
DA:261,5
DA:262,14
DA:263,14
DA:264,14
DA:268,3
DA:269,5
DA:270,5
DA:271,5
DA:273,0
DA:274,0
DA:275,0
DA:279,7
DA:280,11
DA:281,11
DA:282,0
DA:283,11
DA:286,5
DA:287,16
DA:288,16
DA:289,0
DA:290,16
DA:295,3
DA:296,2
DA:297,2
DA:299,3
DA:300,3
DA:302,3
DA:303,3
DA:306,3
DA:307,3
DA:308,3
DA:309,3
BRF:0
BRH:0
LF:157
LH:133
end_of_record
SF:/Users/ken/git_for_collab4/tensor4all-rs/crates/matrixci/src/matrixluci.rs
FN:181,_RNvMNtCshHGmKsBkduK_8matrixci10matrixluciINtB2_10MatrixLUCIdE12pivot_errorsCslD6BJj2Z6b5_15tensor4all_capi
FN:209,_RNvXs_NtCshHGmKsBkduK_8matrixci10matrixluciINtB4_10MatrixLUCIdEINtNtB6_6traits16AbstractMatrixCIdE11col_indicesCslD6BJj2Z6b5_15tensor4all_capi
FN:204,_RNvXs_NtCshHGmKsBkduK_8matrixci10matrixluciINtB4_10MatrixLUCIdEINtNtB6_6traits16AbstractMatrixCIdE11row_indicesCslD6BJj2Z6b5_15tensor4all_capi
FN:35,_RNvMNtCshHGmKsBkduK_8matrixci10matrixluciINtB2_10MatrixLUCIINtCsggbFOsTKhzv_11num_complex7ComplexdEE10col_matrixCsbrO2ourfQV3_15tensor4all_core
FN:48,_RNvMNtCshHGmKsBkduK_8matrixci10matrixluciINtB2_10MatrixLUCIINtCsggbFOsTKhzv_11num_complex7ComplexdEE10row_matrixCsbrO2ourfQV3_15tensor4all_core
FN:18,_RNvMNtCshHGmKsBkduK_8matrixci10matrixluciINtB2_10MatrixLUCIINtCsggbFOsTKhzv_11num_complex7ComplexdEE11from_matrixCsbrO2ourfQV3_15tensor4all_core
FN:61,_RNvMNtCshHGmKsBkduK_8matrixci10matrixluciINtB2_10MatrixLUCIINtCsggbFOsTKhzv_11num_complex7ComplexdEE20cols_times_pivot_invCsbrO2ourfQV3_15tensor4all_core
FN:112,_RNvMNtCshHGmKsBkduK_8matrixci10matrixluciINtB2_10MatrixLUCIINtCsggbFOsTKhzv_11num_complex7ComplexdEE20pivot_inv_times_rowsCsbrO2ourfQV3_15tensor4all_core
FN:163,_RNvMNtCshHGmKsBkduK_8matrixci10matrixluciINtB2_10MatrixLUCIINtCsggbFOsTKhzv_11num_complex7ComplexdEE4leftCsbrO2ourfQV3_15tensor4all_core
FN:172,_RNvMNtCshHGmKsBkduK_8matrixci10matrixluciINtB2_10MatrixLUCIINtCsggbFOsTKhzv_11num_complex7ComplexdEE5rightCsbrO2ourfQV3_15tensor4all_core
FN:35,_RNvMNtCshHGmKsBkduK_8matrixci10matrixluciINtB2_10MatrixLUCIdE10col_matrixCsbrO2ourfQV3_15tensor4all_core
FN:48,_RNvMNtCshHGmKsBkduK_8matrixci10matrixluciINtB2_10MatrixLUCIdE10row_matrixCsbrO2ourfQV3_15tensor4all_core
FN:18,_RNvMNtCshHGmKsBkduK_8matrixci10matrixluciINtB2_10MatrixLUCIdE11from_matrixCsbrO2ourfQV3_15tensor4all_core
FN:61,_RNvMNtCshHGmKsBkduK_8matrixci10matrixluciINtB2_10MatrixLUCIdE20cols_times_pivot_invCsbrO2ourfQV3_15tensor4all_core
FN:112,_RNvMNtCshHGmKsBkduK_8matrixci10matrixluciINtB2_10MatrixLUCIdE20pivot_inv_times_rowsCsbrO2ourfQV3_15tensor4all_core
FN:163,_RNvMNtCshHGmKsBkduK_8matrixci10matrixluciINtB2_10MatrixLUCIdE4leftCsbrO2ourfQV3_15tensor4all_core
FN:172,_RNvMNtCshHGmKsBkduK_8matrixci10matrixluciINtB2_10MatrixLUCIdE5rightCsbrO2ourfQV3_15tensor4all_core
FN:200,_RNvXs_NtCshHGmKsBkduK_8matrixci10matrixluciINtB4_10MatrixLUCIINtCsggbFOsTKhzv_11num_complex7ComplexdEEINtNtB6_6traits16AbstractMatrixCIBX_E4rankCsbrO2ourfQV3_15tensor4all_core
FN:196,_RNvXs_NtCshHGmKsBkduK_8matrixci10matrixluciINtB4_10MatrixLUCIINtCsggbFOsTKhzv_11num_complex7ComplexdEEINtNtB6_6traits16AbstractMatrixCIBX_E5ncolsCsbrO2ourfQV3_15tensor4all_core
FN:192,_RNvXs_NtCshHGmKsBkduK_8matrixci10matrixluciINtB4_10MatrixLUCIINtCsggbFOsTKhzv_11num_complex7ComplexdEEINtNtB6_6traits16AbstractMatrixCIBX_E5nrowsCsbrO2ourfQV3_15tensor4all_core
FN:200,_RNvXs_NtCshHGmKsBkduK_8matrixci10matrixluciINtB4_10MatrixLUCIdEINtNtB6_6traits16AbstractMatrixCIdE4rankCsbrO2ourfQV3_15tensor4all_core
FN:196,_RNvXs_NtCshHGmKsBkduK_8matrixci10matrixluciINtB4_10MatrixLUCIdEINtNtB6_6traits16AbstractMatrixCIdE5ncolsCsbrO2ourfQV3_15tensor4all_core
FN:192,_RNvXs_NtCshHGmKsBkduK_8matrixci10matrixluciINtB4_10MatrixLUCIdEINtNtB6_6traits16AbstractMatrixCIdE5nrowsCsbrO2ourfQV3_15tensor4all_core
FNDA:1,_RNvMNtCshHGmKsBkduK_8matrixci10matrixluciINtB2_10MatrixLUCIdE12pivot_errorsCslD6BJj2Z6b5_15tensor4all_capi
FNDA:1,_RNvXs_NtCshHGmKsBkduK_8matrixci10matrixluciINtB4_10MatrixLUCIdEINtNtB6_6traits16AbstractMatrixCIdE11col_indicesCslD6BJj2Z6b5_15tensor4all_capi
FNDA:1,_RNvXs_NtCshHGmKsBkduK_8matrixci10matrixluciINtB4_10MatrixLUCIdEINtNtB6_6traits16AbstractMatrixCIdE11row_indicesCslD6BJj2Z6b5_15tensor4all_capi
FNDA:0,_RNvMNtCshHGmKsBkduK_8matrixci10matrixluciINtB2_10MatrixLUCIINtCsggbFOsTKhzv_11num_complex7ComplexdEE10col_matrixCsbrO2ourfQV3_15tensor4all_core
FNDA:0,_RNvMNtCshHGmKsBkduK_8matrixci10matrixluciINtB2_10MatrixLUCIINtCsggbFOsTKhzv_11num_complex7ComplexdEE10row_matrixCsbrO2ourfQV3_15tensor4all_core
FNDA:0,_RNvMNtCshHGmKsBkduK_8matrixci10matrixluciINtB2_10MatrixLUCIINtCsggbFOsTKhzv_11num_complex7ComplexdEE11from_matrixCsbrO2ourfQV3_15tensor4all_core
FNDA:0,_RNvMNtCshHGmKsBkduK_8matrixci10matrixluciINtB2_10MatrixLUCIINtCsggbFOsTKhzv_11num_complex7ComplexdEE20cols_times_pivot_invCsbrO2ourfQV3_15tensor4all_core
FNDA:0,_RNvMNtCshHGmKsBkduK_8matrixci10matrixluciINtB2_10MatrixLUCIINtCsggbFOsTKhzv_11num_complex7ComplexdEE20pivot_inv_times_rowsCsbrO2ourfQV3_15tensor4all_core
FNDA:0,_RNvMNtCshHGmKsBkduK_8matrixci10matrixluciINtB2_10MatrixLUCIINtCsggbFOsTKhzv_11num_complex7ComplexdEE4leftCsbrO2ourfQV3_15tensor4all_core
FNDA:0,_RNvMNtCshHGmKsBkduK_8matrixci10matrixluciINtB2_10MatrixLUCIINtCsggbFOsTKhzv_11num_complex7ComplexdEE5rightCsbrO2ourfQV3_15tensor4all_core
FNDA:0,_RNvMNtCshHGmKsBkduK_8matrixci10matrixluciINtB2_10MatrixLUCIdE10col_matrixCsbrO2ourfQV3_15tensor4all_core
FNDA:2,_RNvMNtCshHGmKsBkduK_8matrixci10matrixluciINtB2_10MatrixLUCIdE10row_matrixCsbrO2ourfQV3_15tensor4all_core
FNDA:2,_RNvMNtCshHGmKsBkduK_8matrixci10matrixluciINtB2_10MatrixLUCIdE11from_matrixCsbrO2ourfQV3_15tensor4all_core
FNDA:2,_RNvMNtCshHGmKsBkduK_8matrixci10matrixluciINtB2_10MatrixLUCIdE20cols_times_pivot_invCsbrO2ourfQV3_15tensor4all_core
FNDA:0,_RNvMNtCshHGmKsBkduK_8matrixci10matrixluciINtB2_10MatrixLUCIdE20pivot_inv_times_rowsCsbrO2ourfQV3_15tensor4all_core
FNDA:2,_RNvMNtCshHGmKsBkduK_8matrixci10matrixluciINtB2_10MatrixLUCIdE4leftCsbrO2ourfQV3_15tensor4all_core
FNDA:2,_RNvMNtCshHGmKsBkduK_8matrixci10matrixluciINtB2_10MatrixLUCIdE5rightCsbrO2ourfQV3_15tensor4all_core
FNDA:0,_RNvXs_NtCshHGmKsBkduK_8matrixci10matrixluciINtB4_10MatrixLUCIINtCsggbFOsTKhzv_11num_complex7ComplexdEEINtNtB6_6traits16AbstractMatrixCIBX_E4rankCsbrO2ourfQV3_15tensor4all_core
FNDA:0,_RNvXs_NtCshHGmKsBkduK_8matrixci10matrixluciINtB4_10MatrixLUCIINtCsggbFOsTKhzv_11num_complex7ComplexdEEINtNtB6_6traits16AbstractMatrixCIBX_E5ncolsCsbrO2ourfQV3_15tensor4all_core
FNDA:0,_RNvXs_NtCshHGmKsBkduK_8matrixci10matrixluciINtB4_10MatrixLUCIINtCsggbFOsTKhzv_11num_complex7ComplexdEEINtNtB6_6traits16AbstractMatrixCIBX_E5nrowsCsbrO2ourfQV3_15tensor4all_core
FNDA:4,_RNvXs_NtCshHGmKsBkduK_8matrixci10matrixluciINtB4_10MatrixLUCIdEINtNtB6_6traits16AbstractMatrixCIdE4rankCsbrO2ourfQV3_15tensor4all_core
FNDA:0,_RNvXs_NtCshHGmKsBkduK_8matrixci10matrixluciINtB4_10MatrixLUCIdEINtNtB6_6traits16AbstractMatrixCIdE5ncolsCsbrO2ourfQV3_15tensor4all_core
FNDA:2,_RNvXs_NtCshHGmKsBkduK_8matrixci10matrixluciINtB4_10MatrixLUCIdEINtNtB6_6traits16AbstractMatrixCIdE5nrowsCsbrO2ourfQV3_15tensor4all_core
FNF:13
FNH:10
DA:18,2
DA:19,2
DA:20,2
DA:21,2
DA:22,2
DA:35,0
DA:36,0
DA:37,0
DA:38,0
DA:39,0
DA:40,0
DA:41,0
DA:42,0
DA:44,0
DA:45,0
DA:48,2
DA:49,2
DA:50,2
DA:51,2
DA:52,2
DA:53,2
DA:54,2
DA:56,2
DA:57,2
DA:58,2
DA:61,2
DA:62,2
DA:63,2
DA:65,2
DA:68,3
DA:69,3
DA:70,3
DA:72,2
DA:73,1
DA:74,1
DA:75,1
DA:76,1
DA:77,1
DA:79,1
DA:80,1
DA:81,1
DA:82,1
DA:87,2
DA:88,2
DA:89,2
DA:90,2
DA:91,0
DA:92,0
DA:93,2
DA:94,2
DA:97,1
DA:100,2
DA:101,2
DA:102,5
DA:103,7
DA:104,7
DA:105,7
DA:108,2
DA:109,2
DA:112,0
DA:113,0
DA:114,0
DA:116,0
DA:119,0
DA:120,0
DA:121,0
DA:123,0
DA:124,0
DA:125,0
DA:126,0
DA:127,0
DA:128,0
DA:130,0
DA:131,0
DA:132,0
DA:133,0
DA:138,0
DA:139,0
DA:140,0
DA:141,0
DA:142,0
DA:143,0
DA:144,0
DA:145,0
DA:148,0
DA:151,0
DA:152,0
DA:153,0
DA:154,0
DA:155,0
DA:156,0
DA:159,0
DA:160,0
DA:163,2
DA:164,2
DA:165,2
DA:167,0
DA:169,2
DA:172,2
DA:173,2
DA:174,2
DA:176,0
DA:178,2
DA:181,1
DA:182,1
DA:183,1
DA:192,2
DA:193,2
DA:194,2
DA:196,0
DA:197,0
DA:198,0
DA:200,4
DA:201,4
DA:202,4
DA:204,1
DA:206,1
DA:207,1
DA:209,1
DA:211,1
DA:212,1
BRF:0
BRH:0
LF:121
LH:70
end_of_record
SF:/Users/ken/git_for_collab4/tensor4all-rs/crates/matrixci/src/util.rs
FN:33,_RNvMNtCshHGmKsBkduK_8matrixci4utilINtB2_6MatrixdE5ncolsCslD6BJj2Z6b5_15tensor4all_capi
FN:28,_RNvMNtCshHGmKsBkduK_8matrixci4utilINtB2_6MatrixdE5nrowsCslD6BJj2Z6b5_15tensor4all_capi
FN:374,_RINvNtCshHGmKsBkduK_8matrixci4util16submatrix_argmaxINtCsggbFOsTKhzv_11num_complex7ComplexdEECsbrO2ourfQV3_15tensor4all_core
FN:374,_RINvNtCshHGmKsBkduK_8matrixci4util16submatrix_argmaxdECsbrO2ourfQV3_15tensor4all_core
FN:96,_RINvNtCshHGmKsBkduK_8matrixci4util5ncolsINtCsggbFOsTKhzv_11num_complex7ComplexdEECsbrO2ourfQV3_15tensor4all_core
FN:96,_RINvNtCshHGmKsBkduK_8matrixci4util5ncolsdECsbrO2ourfQV3_15tensor4all_core
FN:91,_RINvNtCshHGmKsBkduK_8matrixci4util5nrowsINtCsggbFOsTKhzv_11num_complex7ComplexdEECsbrO2ourfQV3_15tensor4all_core
FN:91,_RINvNtCshHGmKsBkduK_8matrixci4util5nrowsdECsbrO2ourfQV3_15tensor4all_core
FN:64,_RINvNtCshHGmKsBkduK_8matrixci4util5zerosINtCsggbFOsTKhzv_11num_complex7ComplexdEECsbrO2ourfQV3_15tensor4all_core
FN:64,_RINvNtCshHGmKsBkduK_8matrixci4util5zerosdECsbrO2ourfQV3_15tensor4all_core
FN:431,_RINvNtCshHGmKsBkduK_8matrixci4util7mat_mulINtCsggbFOsTKhzv_11num_complex7ComplexdEECsbrO2ourfQV3_15tensor4all_core
FN:431,_RINvNtCshHGmKsBkduK_8matrixci4util7mat_muldECsbrO2ourfQV3_15tensor4all_core
FN:111,_RINvNtCshHGmKsBkduK_8matrixci4util9submatrixINtCsggbFOsTKhzv_11num_complex7ComplexdEECsbrO2ourfQV3_15tensor4all_core
FN:111,_RINvNtCshHGmKsBkduK_8matrixci4util9submatrixdECsbrO2ourfQV3_15tensor4all_core
FN:170,_RINvNtCshHGmKsBkduK_8matrixci4util9swap_colsINtCsggbFOsTKhzv_11num_complex7ComplexdEECsbrO2ourfQV3_15tensor4all_core
FN:170,_RINvNtCshHGmKsBkduK_8matrixci4util9swap_colsdECsbrO2ourfQV3_15tensor4all_core
FN:156,_RINvNtCshHGmKsBkduK_8matrixci4util9swap_rowsINtCsggbFOsTKhzv_11num_complex7ComplexdEECsbrO2ourfQV3_15tensor4all_core
FN:156,_RINvNtCshHGmKsBkduK_8matrixci4util9swap_rowsdECsbrO2ourfQV3_15tensor4all_core
FN:40,_RNvMs_NtCshHGmKsBkduK_8matrixci4utilINtB4_6MatrixINtCsggbFOsTKhzv_11num_complex7ComplexdEE5zerosCsbrO2ourfQV3_15tensor4all_core
FN:40,_RNvMs_NtCshHGmKsBkduK_8matrixci4utilINtB4_6MatrixdE5zerosCsbrO2ourfQV3_15tensor4all_core
FN:52,_RNvXs0_NtCshHGmKsBkduK_8matrixci4utilINtB5_6MatrixINtCsggbFOsTKhzv_11num_complex7ComplexdEEINtNtNtCskzPJi2J8k3N_4core3ops5index5IndexAjj2_E5indexCsbrO2ourfQV3_15tensor4all_core
FN:52,_RNvXs0_NtCshHGmKsBkduK_8matrixci4utilINtB5_6MatrixdEINtNtNtCskzPJi2J8k3N_4core3ops5index5IndexAjj2_E5indexCsbrO2ourfQV3_15tensor4all_core
FN:58,_RNvXs1_NtCshHGmKsBkduK_8matrixci4utilINtB5_6MatrixINtCsggbFOsTKhzv_11num_complex7ComplexdEEINtNtNtCskzPJi2J8k3N_4core3ops5index8IndexMutAjj2_E9index_mutCsbrO2ourfQV3_15tensor4all_core
FN:58,_RNvXs1_NtCshHGmKsBkduK_8matrixci4utilINtB5_6MatrixdEINtNtNtCskzPJi2J8k3N_4core3ops5index8IndexMutAjj2_E9index_mutCsbrO2ourfQV3_15tensor4all_core
FN:414,_RNvNtCshHGmKsBkduK_8matrixci4util8set_diff
FN:225,_RNvXs2_NtCshHGmKsBkduK_8matrixci4utildNtB5_6Scalar3abs
FN:229,_RNvXs2_NtCshHGmKsBkduK_8matrixci4utildNtB5_6Scalar6abs_sq
FN:233,_RNvXs2_NtCshHGmKsBkduK_8matrixci4utildNtB5_6Scalar6is_nan
FN:239,_RNvXs3_NtCshHGmKsBkduK_8matrixci4utilfNtB5_6Scalar3abs
FN:243,_RNvXs3_NtCshHGmKsBkduK_8matrixci4utilfNtB5_6Scalar6abs_sq
FN:247,_RNvXs3_NtCshHGmKsBkduK_8matrixci4utilfNtB5_6Scalar6is_nan
FN:253,_RNvXs4_NtCshHGmKsBkduK_8matrixci4utilINtCsggbFOsTKhzv_11num_complex7ComplexdENtB5_6Scalar3abs
FN:257,_RNvXs4_NtCshHGmKsBkduK_8matrixci4utilINtCsggbFOsTKhzv_11num_complex7ComplexdENtB5_6Scalar6abs_sq
FN:261,_RNvXs4_NtCshHGmKsBkduK_8matrixci4utilINtCsggbFOsTKhzv_11num_complex7ComplexdENtB5_6Scalar6is_nan
FN:267,_RNvXs5_NtCshHGmKsBkduK_8matrixci4utilINtCsggbFOsTKhzv_11num_complex7ComplexfENtB5_6Scalar3abs
FN:271,_RNvXs5_NtCshHGmKsBkduK_8matrixci4utilINtCsggbFOsTKhzv_11num_complex7ComplexfENtB5_6Scalar6abs_sq
FN:275,_RNvXs5_NtCshHGmKsBkduK_8matrixci4utilINtCsggbFOsTKhzv_11num_complex7ComplexfENtB5_6Scalar6is_nan
FN:418,_RNCNvNtCshHGmKsBkduK_8matrixci4util8set_diff0B5_
FNDA:7,_RNvMNtCshHGmKsBkduK_8matrixci4utilINtB2_6MatrixdE5ncolsCslD6BJj2Z6b5_15tensor4all_capi
FNDA:7,_RNvMNtCshHGmKsBkduK_8matrixci4utilINtB2_6MatrixdE5nrowsCslD6BJj2Z6b5_15tensor4all_capi
FNDA:0,_RINvNtCshHGmKsBkduK_8matrixci4util16submatrix_argmaxINtCsggbFOsTKhzv_11num_complex7ComplexdEECsbrO2ourfQV3_15tensor4all_core
FNDA:6,_RINvNtCshHGmKsBkduK_8matrixci4util16submatrix_argmaxdECsbrO2ourfQV3_15tensor4all_core
FNDA:0,_RINvNtCshHGmKsBkduK_8matrixci4util5ncolsINtCsggbFOsTKhzv_11num_complex7ComplexdEECsbrO2ourfQV3_15tensor4all_core
FNDA:29,_RINvNtCshHGmKsBkduK_8matrixci4util5ncolsdECsbrO2ourfQV3_15tensor4all_core
FNDA:0,_RINvNtCshHGmKsBkduK_8matrixci4util5nrowsINtCsggbFOsTKhzv_11num_complex7ComplexdEECsbrO2ourfQV3_15tensor4all_core
FNDA:27,_RINvNtCshHGmKsBkduK_8matrixci4util5nrowsdECsbrO2ourfQV3_15tensor4all_core
FNDA:0,_RINvNtCshHGmKsBkduK_8matrixci4util5zerosINtCsggbFOsTKhzv_11num_complex7ComplexdEECsbrO2ourfQV3_15tensor4all_core
FNDA:29,_RINvNtCshHGmKsBkduK_8matrixci4util5zerosdECsbrO2ourfQV3_15tensor4all_core
FNDA:0,_RINvNtCshHGmKsBkduK_8matrixci4util7mat_mulINtCsggbFOsTKhzv_11num_complex7ComplexdEECsbrO2ourfQV3_15tensor4all_core
FNDA:2,_RINvNtCshHGmKsBkduK_8matrixci4util7mat_muldECsbrO2ourfQV3_15tensor4all_core
FNDA:0,_RINvNtCshHGmKsBkduK_8matrixci4util9submatrixINtCsggbFOsTKhzv_11num_complex7ComplexdEECsbrO2ourfQV3_15tensor4all_core
FNDA:4,_RINvNtCshHGmKsBkduK_8matrixci4util9submatrixdECsbrO2ourfQV3_15tensor4all_core
FNDA:0,_RINvNtCshHGmKsBkduK_8matrixci4util9swap_colsINtCsggbFOsTKhzv_11num_complex7ComplexdEECsbrO2ourfQV3_15tensor4all_core
FNDA:4,_RINvNtCshHGmKsBkduK_8matrixci4util9swap_colsdECsbrO2ourfQV3_15tensor4all_core
FNDA:0,_RINvNtCshHGmKsBkduK_8matrixci4util9swap_rowsINtCsggbFOsTKhzv_11num_complex7ComplexdEECsbrO2ourfQV3_15tensor4all_core
FNDA:2,_RINvNtCshHGmKsBkduK_8matrixci4util9swap_rowsdECsbrO2ourfQV3_15tensor4all_core
FNDA:0,_RNvMs_NtCshHGmKsBkduK_8matrixci4utilINtB4_6MatrixINtCsggbFOsTKhzv_11num_complex7ComplexdEE5zerosCsbrO2ourfQV3_15tensor4all_core
FNDA:29,_RNvMs_NtCshHGmKsBkduK_8matrixci4utilINtB4_6MatrixdE5zerosCsbrO2ourfQV3_15tensor4all_core
FNDA:0,_RNvXs0_NtCshHGmKsBkduK_8matrixci4utilINtB5_6MatrixINtCsggbFOsTKhzv_11num_complex7ComplexdEEINtNtNtCskzPJi2J8k3N_4core3ops5index5IndexAjj2_E5indexCsbrO2ourfQV3_15tensor4all_core
FNDA:262,_RNvXs0_NtCshHGmKsBkduK_8matrixci4utilINtB5_6MatrixdEINtNtNtCskzPJi2J8k3N_4core3ops5index5IndexAjj2_E5indexCsbrO2ourfQV3_15tensor4all_core
FNDA:0,_RNvXs1_NtCshHGmKsBkduK_8matrixci4utilINtB5_6MatrixINtCsggbFOsTKhzv_11num_complex7ComplexdEEINtNtNtCskzPJi2J8k3N_4core3ops5index8IndexMutAjj2_E9index_mutCsbrO2ourfQV3_15tensor4all_core
FNDA:144,_RNvXs1_NtCshHGmKsBkduK_8matrixci4utilINtB5_6MatrixdEINtNtNtCskzPJi2J8k3N_4core3ops5index8IndexMutAjj2_E9index_mutCsbrO2ourfQV3_15tensor4all_core
FNDA:0,_RNvNtCshHGmKsBkduK_8matrixci4util8set_diff
FNDA:0,_RNvXs2_NtCshHGmKsBkduK_8matrixci4utildNtB5_6Scalar3abs
FNDA:60,_RNvXs2_NtCshHGmKsBkduK_8matrixci4utildNtB5_6Scalar6abs_sq
FNDA:27,_RNvXs2_NtCshHGmKsBkduK_8matrixci4utildNtB5_6Scalar6is_nan
FNDA:0,_RNvXs3_NtCshHGmKsBkduK_8matrixci4utilfNtB5_6Scalar3abs
FNDA:0,_RNvXs3_NtCshHGmKsBkduK_8matrixci4utilfNtB5_6Scalar6abs_sq
FNDA:0,_RNvXs3_NtCshHGmKsBkduK_8matrixci4utilfNtB5_6Scalar6is_nan
FNDA:0,_RNvXs4_NtCshHGmKsBkduK_8matrixci4utilINtCsggbFOsTKhzv_11num_complex7ComplexdENtB5_6Scalar3abs
FNDA:0,_RNvXs4_NtCshHGmKsBkduK_8matrixci4utilINtCsggbFOsTKhzv_11num_complex7ComplexdENtB5_6Scalar6abs_sq
FNDA:0,_RNvXs4_NtCshHGmKsBkduK_8matrixci4utilINtCsggbFOsTKhzv_11num_complex7ComplexdENtB5_6Scalar6is_nan
FNDA:0,_RNvXs5_NtCshHGmKsBkduK_8matrixci4utilINtCsggbFOsTKhzv_11num_complex7ComplexfENtB5_6Scalar3abs
FNDA:0,_RNvXs5_NtCshHGmKsBkduK_8matrixci4utilINtCsggbFOsTKhzv_11num_complex7ComplexfENtB5_6Scalar6abs_sq
FNDA:0,_RNvXs5_NtCshHGmKsBkduK_8matrixci4utilINtCsggbFOsTKhzv_11num_complex7ComplexfENtB5_6Scalar6is_nan
FNDA:0,_RNCNvNtCshHGmKsBkduK_8matrixci4util8set_diff0B5_
FNF:27
FNH:15
DA:28,7
DA:29,7
DA:30,7
DA:33,7
DA:34,7
DA:35,7
DA:40,29
DA:41,29
DA:42,29
DA:43,29
DA:44,29
DA:45,29
DA:46,29
DA:52,262
DA:53,262
DA:54,262
DA:58,144
DA:59,144
DA:60,144
DA:64,29
DA:65,29
DA:66,29
DA:91,27
DA:92,27
DA:93,27
DA:96,29
DA:97,29
DA:98,29
DA:111,4
DA:112,4
DA:113,6
DA:114,8
DA:115,8
DA:116,8
DA:118,4
DA:119,4
DA:156,2
DA:157,2
DA:158,0
DA:159,2
DA:160,2
DA:161,6
DA:162,6
DA:163,6
DA:164,6
DA:165,6
DA:166,2
DA:167,2
DA:170,4
DA:171,4
DA:172,0
DA:173,4
DA:174,4
DA:175,8
DA:176,8
DA:177,8
DA:178,8
DA:179,8
DA:180,4
DA:181,4
DA:225,0
DA:226,0
DA:227,0
DA:229,60
DA:230,60
DA:231,60
DA:233,27
DA:234,27
DA:235,27
DA:239,0
DA:240,0
DA:241,0
DA:243,0
DA:244,0
DA:245,0
DA:247,0
DA:248,0
DA:249,0
DA:253,0
DA:254,0
DA:255,0
DA:257,0
DA:258,0
DA:259,0
DA:261,0
DA:262,0
DA:263,0
DA:267,0
DA:268,0
DA:269,0
DA:271,0
DA:272,0
DA:273,0
DA:275,0
DA:276,0
DA:277,0
DA:374,6
DA:375,6
DA:376,6
DA:377,6
DA:378,6
DA:379,6
DA:380,6
DA:382,6
DA:383,6
DA:384,6
DA:386,17
DA:387,45
DA:388,34
DA:389,34
DA:390,10
DA:391,10
DA:392,10
DA:393,24
DA:397,6
DA:398,6
DA:414,0
DA:415,0
DA:416,0
DA:417,0
DA:418,0
DA:419,0
DA:420,0
DA:431,2
DA:432,2
DA:433,2
DA:434,2
DA:435,2
DA:437,2
DA:438,3
DA:439,10
DA:440,10
DA:441,16
DA:442,16
DA:443,16
DA:444,10
DA:447,2
DA:448,2
BRF:0
BRH:0
LF:139
LH:99
end_of_record
SF:/Users/ken/git_for_collab4/tensor4all-rs/crates/tensor4all-capi/src/algorithm.rs
FN:189,t4a_compression_algorithm_default
FN:147,t4a_compression_algorithm_from_i32
FN:287,t4a_compression_algorithm_from_name
FN:177,t4a_compression_algorithm_name
FN:128,t4a_contraction_algorithm_default
FN:88,t4a_contraction_algorithm_from_i32
FN:248,t4a_contraction_algorithm_from_name
FN:117,t4a_contraction_algorithm_name
FN:69,t4a_factorize_algorithm_default
FN:27,t4a_factorize_algorithm_from_i32
FN:208,t4a_factorize_algorithm_from_name
FN:57,t4a_factorize_algorithm_name
FNDA:0,t4a_compression_algorithm_default
FNDA:0,t4a_compression_algorithm_from_i32
FNDA:0,t4a_compression_algorithm_from_name
FNDA:0,t4a_compression_algorithm_name
FNDA:0,t4a_contraction_algorithm_default
FNDA:0,t4a_contraction_algorithm_from_i32
FNDA:0,t4a_contraction_algorithm_from_name
FNDA:0,t4a_contraction_algorithm_name
FNDA:0,t4a_factorize_algorithm_default
FNDA:0,t4a_factorize_algorithm_from_i32
FNDA:0,t4a_factorize_algorithm_from_name
FNDA:0,t4a_factorize_algorithm_name
FNF:12
FNH:0
DA:27,0
DA:28,0
DA:29,0
DA:30,0
DA:31,0
DA:32,0
DA:33,0
DA:35,0
DA:36,0
DA:37,0
DA:38,0
DA:39,0
DA:40,0
DA:43,0
DA:44,0
DA:45,0
DA:46,0
DA:47,0
DA:57,0
DA:58,0
DA:59,0
DA:60,0
DA:61,0
DA:62,0
DA:64,0
DA:65,0
DA:69,0
DA:70,0
DA:71,0
DA:88,0
DA:89,0
DA:90,0
DA:91,0
DA:92,0
DA:93,0
DA:94,0
DA:96,0
DA:97,0
DA:98,0
DA:99,0
DA:100,0
DA:103,0
DA:104,0
DA:105,0
DA:106,0
DA:107,0
DA:117,0
DA:118,0
DA:119,0
DA:120,0
DA:121,0
DA:123,0
DA:124,0
DA:128,0
DA:129,0
DA:130,0
DA:147,0
DA:148,0
DA:149,0
DA:150,0
DA:151,0
DA:152,0
DA:153,0
DA:155,0
DA:156,0
DA:157,0
DA:158,0
DA:159,0
DA:160,0
DA:163,0
DA:164,0
DA:165,0
DA:166,0
DA:167,0
DA:177,0
DA:178,0
DA:179,0
DA:180,0
DA:181,0
DA:182,0
DA:184,0
DA:185,0
DA:189,0
DA:190,0
DA:191,0
DA:208,0
DA:209,0
DA:210,0
DA:211,0
DA:212,0
DA:213,0
DA:214,0
DA:216,0
DA:217,0
DA:218,0
DA:219,0
DA:223,0
DA:224,0
DA:225,0
DA:226,0
DA:227,0
DA:228,0
DA:231,0
DA:232,0
DA:233,0
DA:234,0
DA:235,0
DA:248,0
DA:249,0
DA:250,0
DA:251,0
DA:252,0
DA:253,0
DA:254,0
DA:256,0
DA:257,0
DA:258,0
DA:259,0
DA:263,0
DA:264,0
DA:265,0
DA:266,0
DA:267,0
DA:270,0
DA:271,0
DA:272,0
DA:273,0
DA:274,0
DA:287,0
DA:288,0
DA:289,0
DA:290,0
DA:291,0
DA:292,0
DA:293,0
DA:295,0
DA:296,0
DA:297,0
DA:298,0
DA:302,0
DA:303,0
DA:304,0
DA:305,0
DA:306,0
DA:307,0
DA:310,0
DA:311,0
DA:312,0
DA:313,0
DA:314,0
BRF:0
BRH:0
LF:150
LH:0
end_of_record
SF:/Users/ken/git_for_collab4/tensor4all-rs/crates/tensor4all-capi/src/index.rs
FN:248,t4a_index_add_tag
FN:138,t4a_index_dim
FN:196,t4a_index_get_tags
FN:328,t4a_index_has_tag
FN:162,t4a_index_id_u128
FN:29,t4a_index_new
FN:89,t4a_index_new_with_id
FN:51,t4a_index_new_with_tags
FN:285,t4a_index_set_tags_csv
FN:211,_RNCNCNvNtCslD6BJj2Z6b5_15tensor4all_capi5index18t4a_index_get_tags00B7_
FN:144,_RNCNvNtCslD6BJj2Z6b5_15tensor4all_capi5index13t4a_index_dim0B5_
FN:34,_RNCNvNtCslD6BJj2Z6b5_15tensor4all_capi5index13t4a_index_new0B5_
FN:256,_RNCNvNtCslD6BJj2Z6b5_15tensor4all_capi5index17t4a_index_add_tag0B5_
FN:334,_RNCNvNtCslD6BJj2Z6b5_15tensor4all_capi5index17t4a_index_has_tag0B5_
FN:172,_RNCNvNtCslD6BJj2Z6b5_15tensor4all_capi5index17t4a_index_id_u1280B5_
FN:207,_RNCNvNtCslD6BJj2Z6b5_15tensor4all_capi5index18t4a_index_get_tags0B5_
FN:99,_RNCNvNtCslD6BJj2Z6b5_15tensor4all_capi5index21t4a_index_new_with_id0B5_
FN:296,_RNCNvNtCslD6BJj2Z6b5_15tensor4all_capi5index22t4a_index_set_tags_csv0B5_
FN:56,_RNCNvNtCslD6BJj2Z6b5_15tensor4all_capi5index23t4a_index_new_with_tags0B5_
FN:424,_RNvNtNtCslD6BJj2Z6b5_15tensor4all_capi5index5testss_13test_index_id
FN:362,_RNvNtNtCslD6BJj2Z6b5_15tensor4all_capi5index5testss_14test_index_new
FN:440,_RNvNtNtCslD6BJj2Z6b5_15tensor4all_capi5index5testss_16test_index_clone
FN:400,_RNvNtNtCslD6BJj2Z6b5_15tensor4all_capi5index5testss_19test_index_get_tags
FN:381,_RNvNtNtCslD6BJj2Z6b5_15tensor4all_capi5index5testss_20test_index_with_tags
FN:467,_RNvNtNtCslD6BJj2Z6b5_15tensor4all_capi5index5testss_22test_index_new_with_id
FN:375,_RNvNtNtCslD6BJj2Z6b5_15tensor4all_capi5index5testss_23test_index_new_zero_dim
FNDA:0,t4a_index_add_tag
FNDA:6,t4a_index_dim
FNDA:2,t4a_index_get_tags
FNDA:3,t4a_index_has_tag
FNDA:4,t4a_index_id_u128
FNDA:14,t4a_index_new
FNDA:1,t4a_index_new_with_id
FNDA:2,t4a_index_new_with_tags
FNDA:0,t4a_index_set_tags_csv
FNDA:4,_RNCNCNvNtCslD6BJj2Z6b5_15tensor4all_capi5index18t4a_index_get_tags00B7_
FNDA:6,_RNCNvNtCslD6BJj2Z6b5_15tensor4all_capi5index13t4a_index_dim0B5_
FNDA:13,_RNCNvNtCslD6BJj2Z6b5_15tensor4all_capi5index13t4a_index_new0B5_
FNDA:0,_RNCNvNtCslD6BJj2Z6b5_15tensor4all_capi5index17t4a_index_add_tag0B5_
FNDA:3,_RNCNvNtCslD6BJj2Z6b5_15tensor4all_capi5index17t4a_index_has_tag0B5_
FNDA:4,_RNCNvNtCslD6BJj2Z6b5_15tensor4all_capi5index17t4a_index_id_u1280B5_
FNDA:2,_RNCNvNtCslD6BJj2Z6b5_15tensor4all_capi5index18t4a_index_get_tags0B5_
FNDA:1,_RNCNvNtCslD6BJj2Z6b5_15tensor4all_capi5index21t4a_index_new_with_id0B5_
FNDA:0,_RNCNvNtCslD6BJj2Z6b5_15tensor4all_capi5index22t4a_index_set_tags_csv0B5_
FNDA:2,_RNCNvNtCslD6BJj2Z6b5_15tensor4all_capi5index23t4a_index_new_with_tags0B5_
FNDA:1,_RNvNtNtCslD6BJj2Z6b5_15tensor4all_capi5index5testss_13test_index_id
FNDA:1,_RNvNtNtCslD6BJj2Z6b5_15tensor4all_capi5index5testss_14test_index_new
FNDA:1,_RNvNtNtCslD6BJj2Z6b5_15tensor4all_capi5index5testss_16test_index_clone
FNDA:1,_RNvNtNtCslD6BJj2Z6b5_15tensor4all_capi5index5testss_19test_index_get_tags
FNDA:1,_RNvNtNtCslD6BJj2Z6b5_15tensor4all_capi5index5testss_20test_index_with_tags
FNDA:1,_RNvNtNtCslD6BJj2Z6b5_15tensor4all_capi5index5testss_22test_index_new_with_id
FNDA:1,_RNvNtNtCslD6BJj2Z6b5_15tensor4all_capi5index5testss_23test_index_new_zero_dim
FNF:26
FNH:22
DA:29,14
DA:30,14
DA:31,1
DA:32,13
DA:34,13
DA:35,13
DA:36,13
DA:37,13
DA:39,13
DA:40,14
DA:51,2
DA:52,2
DA:53,0
DA:54,2
DA:56,2
DA:57,2
DA:58,0
DA:59,0
DA:60,2
DA:62,2
DA:63,2
DA:64,2
DA:65,0
DA:69,2
DA:70,2
DA:71,0
DA:73,2
DA:75,2
DA:76,2
DA:89,1
DA:90,1
DA:91,1
DA:92,1
DA:93,1
DA:94,1
DA:95,1
DA:96,0
DA:97,1
DA:99,1
DA:102,1
DA:104,1
DA:105,0
DA:107,1
DA:108,1
DA:109,1
DA:110,0
DA:112,1
DA:113,1
DA:114,0
DA:118,1
DA:119,1
DA:120,1
DA:122,1
DA:123,1
DA:138,6
DA:139,6
DA:140,0
DA:141,6
DA:143,6
DA:144,6
DA:145,6
DA:146,6
DA:147,6
DA:149,6
DA:150,6
DA:162,4
DA:163,4
DA:164,4
DA:165,4
DA:166,4
DA:167,4
DA:168,0
DA:169,4
DA:171,4
DA:172,4
DA:173,4
DA:174,4
DA:175,4
DA:176,4
DA:177,4
DA:179,4
DA:180,4
DA:196,2
DA:197,2
DA:198,2
DA:199,2
DA:200,2
DA:201,2
DA:202,2
DA:203,0
DA:204,2
DA:206,2
DA:207,2
DA:208,2
DA:211,4
DA:212,2
DA:213,2
DA:215,2
DA:217,2
DA:218,1
DA:219,1
DA:221,1
DA:222,0
DA:223,1
DA:226,1
DA:227,1
DA:229,1
DA:230,2
DA:232,2
DA:233,2
DA:248,0
DA:251,0
DA:252,0
DA:253,0
DA:255,0
DA:256,0
DA:257,0
DA:259,0
DA:260,0
DA:261,0
DA:265,0
DA:266,0
DA:267,0
DA:268,0
DA:269,0
DA:271,0
DA:273,0
DA:274,0
DA:285,0
DA:286,0
DA:287,0
DA:288,0
DA:291,0
DA:292,0
DA:293,0
DA:295,0
DA:296,0
DA:297,0
DA:299,0
DA:300,0
DA:301,0
DA:305,0
DA:306,0
DA:307,0
DA:308,0
DA:310,0
DA:311,0
DA:312,0
DA:314,0
DA:316,0
DA:317,0
DA:328,3
DA:329,3
DA:330,0
DA:331,3
DA:333,3
DA:334,3
DA:335,3
DA:337,3
DA:338,3
DA:339,0
DA:342,3
DA:343,2
DA:345,1
DA:347,3
DA:349,3
DA:350,3
DA:362,1
DA:363,1
DA:364,1
DA:366,1
DA:367,1
DA:368,1
DA:369,1
DA:371,1
DA:372,1
DA:375,1
DA:376,1
DA:377,1
DA:378,1
DA:381,1
DA:382,1
DA:383,1
DA:384,1
DA:387,1
DA:388,1
DA:390,1
DA:391,1
DA:393,1
DA:394,1
DA:396,1
DA:397,1
DA:400,1
DA:401,1
DA:402,1
DA:403,1
DA:406,1
DA:407,1
DA:408,1
DA:409,1
DA:412,1
DA:413,1
DA:414,1
DA:416,1
DA:417,1
DA:418,1
DA:420,1
DA:421,1
DA:424,1
DA:425,1
DA:426,1
DA:428,1
DA:429,1
DA:430,1
DA:431,1
DA:434,1
DA:436,1
DA:437,1
DA:440,1
DA:441,1
DA:442,1
DA:444,1
DA:445,1
DA:448,1
DA:449,1
DA:450,1
DA:451,1
DA:452,1
DA:455,1
DA:456,1
DA:457,1
DA:458,1
DA:459,1
DA:460,1
DA:462,1
DA:463,1
DA:464,1
DA:467,1
DA:468,1
DA:469,1
DA:470,1
DA:472,1
DA:473,1
DA:476,1
DA:477,1
DA:478,1
DA:479,1
DA:482,1
DA:483,1
DA:484,1
DA:486,1
DA:487,1
BRF:0
BRH:0
LF:256
LH:200
end_of_record
SF:/Users/ken/git_for_collab4/tensor4all-rs/crates/tensor4all-capi/src/macros.rs
FN:60,_RNCNvNtCslD6BJj2Z6b5_15tensor4all_capi11tensortrain21t4a_tensortrain_clone0B5_
FN:81,_RNCNvNtCslD6BJj2Z6b5_15tensor4all_capi11tensortrain27t4a_tensortrain_is_assigned0B5_
FN:52,t4a_tensortrain_clone
FN:73,t4a_tensortrain_is_assigned
FN:33,t4a_tensortrain_release
FN:52,t4a_index_clone
FN:73,t4a_index_is_assigned
FN:33,t4a_index_release
FN:60,_RNCNvNtCslD6BJj2Z6b5_15tensor4all_capi5index15t4a_index_clone0B5_
FN:81,_RNCNvNtCslD6BJj2Z6b5_15tensor4all_capi5index21t4a_index_is_assigned0B5_
FN:52,t4a_tensor_clone
FN:73,t4a_tensor_is_assigned
FN:33,t4a_tensor_release
FN:60,_RNCNvNtCslD6BJj2Z6b5_15tensor4all_capi6tensor16t4a_tensor_clone0B5_
FN:81,_RNCNvNtCslD6BJj2Z6b5_15tensor4all_capi6tensor22t4a_tensor_is_assigned0B5_
FNDA:1,_RNCNvNtCslD6BJj2Z6b5_15tensor4all_capi11tensortrain21t4a_tensortrain_clone0B5_
FNDA:0,_RNCNvNtCslD6BJj2Z6b5_15tensor4all_capi11tensortrain27t4a_tensortrain_is_assigned0B5_
FNDA:1,t4a_tensortrain_clone
FNDA:0,t4a_tensortrain_is_assigned
FNDA:6,t4a_tensortrain_release
FNDA:3,t4a_index_clone
FNDA:0,t4a_index_is_assigned
FNDA:21,t4a_index_release
FNDA:3,_RNCNvNtCslD6BJj2Z6b5_15tensor4all_capi5index15t4a_index_clone0B5_
FNDA:0,_RNCNvNtCslD6BJj2Z6b5_15tensor4all_capi5index21t4a_index_is_assigned0B5_
FNDA:1,t4a_tensor_clone
FNDA:1,t4a_tensor_is_assigned
FNDA:8,t4a_tensor_release
FNDA:1,_RNCNvNtCslD6BJj2Z6b5_15tensor4all_capi6tensor16t4a_tensor_clone0B5_
FNDA:1,_RNCNvNtCslD6BJj2Z6b5_15tensor4all_capi6tensor22t4a_tensor_is_assigned0B5_
FNF:5
FNH:5
DA:33,35
DA:34,35
DA:35,0
DA:36,35
DA:38,35
DA:39,35
DA:40,35
DA:41,35
DA:52,5
DA:53,5
DA:54,5
DA:55,5
DA:56,0
DA:57,5
DA:59,5
DA:60,5
DA:61,5
DA:62,5
DA:63,5
DA:65,5
DA:66,5
DA:73,1
DA:74,1
DA:75,1
DA:76,1
DA:77,0
DA:78,1
DA:80,1
DA:81,1
DA:82,1
DA:83,1
DA:85,1
DA:86,1
BRF:0
BRH:0
LF:33
LH:30
end_of_record
SF:/Users/ken/git_for_collab4/tensor4all-rs/crates/tensor4all-capi/src/simplett.rs
FN:47,_RNvXs_NtCslD6BJj2Z6b5_15tensor4all_capi8simplettNtB4_16t4a_simplett_f64NtNtNtCskzPJi2J8k3N_4core3ops4drop4Drop4drop
FN:395,_RNvNtNtCslD6BJj2Z6b5_15tensor4all_capi8simplett5testss_22test_simplett_constant
FN:414,_RNvNtNtCslD6BJj2Z6b5_15tensor4all_capi8simplett5testss_22test_simplett_evaluate
FN:39,_RNvMNtCslD6BJj2Z6b5_15tensor4all_capi8simplettNtB2_16t4a_simplett_f6410into_inner
FN:34,_RNvMNtCslD6BJj2Z6b5_15tensor4all_capi8simplettNtB2_16t4a_simplett_f649inner_mut
FN:135,_RNCNCNvNtCslD6BJj2Z6b5_15tensor4all_capi8simplett22t4a_simplett_f64_zeros00B7_
FN:109,_RNCNCNvNtCslD6BJj2Z6b5_15tensor4all_capi8simplett25t4a_simplett_f64_constant00B7_
FN:267,_RNCNCNvNtCslD6BJj2Z6b5_15tensor4all_capi8simplett25t4a_simplett_f64_evaluate00B7_
FN:157,_RNCNvNtCslD6BJj2Z6b5_15tensor4all_capi8simplett20t4a_simplett_f64_len0B5_
FN:291,_RNCNvNtCslD6BJj2Z6b5_15tensor4all_capi8simplett20t4a_simplett_f64_sum0B5_
FN:310,_RNCNvNtCslD6BJj2Z6b5_15tensor4all_capi8simplett21t4a_simplett_f64_norm0B5_
FN:238,_RNCNvNtCslD6BJj2Z6b5_15tensor4all_capi8simplett21t4a_simplett_f64_rank0B5_
FN:77,_RNCNvNtCslD6BJj2Z6b5_15tensor4all_capi8simplett22t4a_simplett_f64_clone0B5_
FN:134,_RNCNvNtCslD6BJj2Z6b5_15tensor4all_capi8simplett22t4a_simplett_f64_zeros0B5_
FN:108,_RNCNvNtCslD6BJj2Z6b5_15tensor4all_capi8simplett25t4a_simplett_f64_constant0B5_
FN:265,_RNCNvNtCslD6BJj2Z6b5_15tensor4all_capi8simplett25t4a_simplett_f64_evaluate0B5_
FN:213,_RNCNvNtCslD6BJj2Z6b5_15tensor4all_capi8simplett26t4a_simplett_f64_link_dims0B5_
FN:182,_RNCNvNtCslD6BJj2Z6b5_15tensor4all_capi8simplett26t4a_simplett_f64_site_dims0B5_
FN:347,_RNCNvNtCslD6BJj2Z6b5_15tensor4all_capi8simplett28t4a_simplett_f64_site_tensor0B5_
FN:23,_RNvMNtCslD6BJj2Z6b5_15tensor4all_capi8simplettNtB2_16t4a_simplett_f643new
FN:29,_RNvMNtCslD6BJj2Z6b5_15tensor4all_capi8simplettNtB2_16t4a_simplett_f645inner
FN:72,t4a_simplett_f64_clone
FN:99,t4a_simplett_f64_constant
FN:255,t4a_simplett_f64_evaluate
FN:149,t4a_simplett_f64_len
FN:204,t4a_simplett_f64_link_dims
FN:302,t4a_simplett_f64_norm
FN:230,t4a_simplett_f64_rank
FN:62,t4a_simplett_f64_release
FN:173,t4a_simplett_f64_site_dims
FN:332,t4a_simplett_f64_site_tensor
FN:283,t4a_simplett_f64_sum
FN:126,t4a_simplett_f64_zeros
FNDA:3,_RNvXs_NtCslD6BJj2Z6b5_15tensor4all_capi8simplettNtB4_16t4a_simplett_f64NtNtNtCskzPJi2J8k3N_4core3ops4drop4Drop4drop
FNDA:1,_RNvNtNtCslD6BJj2Z6b5_15tensor4all_capi8simplett5testss_22test_simplett_constant
FNDA:1,_RNvNtNtCslD6BJj2Z6b5_15tensor4all_capi8simplett5testss_22test_simplett_evaluate
FNDA:0,_RNvMNtCslD6BJj2Z6b5_15tensor4all_capi8simplettNtB2_16t4a_simplett_f6410into_inner
FNDA:0,_RNvMNtCslD6BJj2Z6b5_15tensor4all_capi8simplettNtB2_16t4a_simplett_f649inner_mut
FNDA:0,_RNCNCNvNtCslD6BJj2Z6b5_15tensor4all_capi8simplett22t4a_simplett_f64_zeros00B7_
FNDA:5,_RNCNCNvNtCslD6BJj2Z6b5_15tensor4all_capi8simplett25t4a_simplett_f64_constant00B7_
FNDA:2,_RNCNCNvNtCslD6BJj2Z6b5_15tensor4all_capi8simplett25t4a_simplett_f64_evaluate00B7_
FNDA:1,_RNCNvNtCslD6BJj2Z6b5_15tensor4all_capi8simplett20t4a_simplett_f64_len0B5_
FNDA:2,_RNCNvNtCslD6BJj2Z6b5_15tensor4all_capi8simplett20t4a_simplett_f64_sum0B5_
FNDA:0,_RNCNvNtCslD6BJj2Z6b5_15tensor4all_capi8simplett21t4a_simplett_f64_norm0B5_
FNDA:0,_RNCNvNtCslD6BJj2Z6b5_15tensor4all_capi8simplett21t4a_simplett_f64_rank0B5_
FNDA:0,_RNCNvNtCslD6BJj2Z6b5_15tensor4all_capi8simplett22t4a_simplett_f64_clone0B5_
FNDA:0,_RNCNvNtCslD6BJj2Z6b5_15tensor4all_capi8simplett22t4a_simplett_f64_zeros0B5_
FNDA:2,_RNCNvNtCslD6BJj2Z6b5_15tensor4all_capi8simplett25t4a_simplett_f64_constant0B5_
FNDA:1,_RNCNvNtCslD6BJj2Z6b5_15tensor4all_capi8simplett25t4a_simplett_f64_evaluate0B5_
FNDA:0,_RNCNvNtCslD6BJj2Z6b5_15tensor4all_capi8simplett26t4a_simplett_f64_link_dims0B5_
FNDA:0,_RNCNvNtCslD6BJj2Z6b5_15tensor4all_capi8simplett26t4a_simplett_f64_site_dims0B5_
FNDA:0,_RNCNvNtCslD6BJj2Z6b5_15tensor4all_capi8simplett28t4a_simplett_f64_site_tensor0B5_
FNDA:3,_RNvMNtCslD6BJj2Z6b5_15tensor4all_capi8simplettNtB2_16t4a_simplett_f643new
FNDA:4,_RNvMNtCslD6BJj2Z6b5_15tensor4all_capi8simplettNtB2_16t4a_simplett_f645inner
FNDA:0,t4a_simplett_f64_clone
FNDA:2,t4a_simplett_f64_constant
FNDA:1,t4a_simplett_f64_evaluate
FNDA:1,t4a_simplett_f64_len
FNDA:0,t4a_simplett_f64_link_dims
FNDA:0,t4a_simplett_f64_norm
FNDA:0,t4a_simplett_f64_rank
FNDA:3,t4a_simplett_f64_release
FNDA:0,t4a_simplett_f64_site_dims
FNDA:0,t4a_simplett_f64_site_tensor
FNDA:2,t4a_simplett_f64_sum
FNDA:0,t4a_simplett_f64_zeros
FNF:33
FNH:16
DA:23,3
DA:24,3
DA:25,3
DA:26,3
DA:27,3
DA:29,4
DA:30,4
DA:31,4
DA:34,0
DA:35,0
DA:36,0
DA:39,0
DA:40,0
DA:41,0
DA:42,0
DA:43,0
DA:47,3
DA:48,3
DA:49,3
DA:50,3
DA:51,3
DA:52,0
DA:53,3
DA:62,3
DA:63,3
DA:64,3
DA:65,3
DA:66,3
DA:67,0
DA:68,3
DA:72,0
DA:73,0
DA:74,0
DA:75,0
DA:77,0
DA:78,0
DA:79,0
DA:80,0
DA:82,0
DA:83,0
DA:99,2
DA:100,2
DA:101,2
DA:102,2
DA:103,2
DA:104,2
DA:105,0
DA:106,2
DA:108,2
DA:109,5
DA:110,2
DA:111,2
DA:112,2
DA:114,2
DA:115,2
DA:126,0
DA:127,0
DA:128,0
DA:129,0
DA:130,0
DA:131,0
DA:132,0
DA:134,0
DA:135,0
DA:136,0
DA:137,0
DA:138,0
DA:140,0
DA:141,0
DA:149,1
DA:150,1
DA:151,1
DA:152,1
DA:153,1
DA:154,0
DA:155,1
DA:157,1
DA:158,1
DA:159,1
DA:160,1
DA:161,1
DA:163,1
DA:164,1
DA:173,0
DA:174,0
DA:175,0
DA:176,0
DA:177,0
DA:178,0
DA:179,0
DA:180,0
DA:182,0
DA:183,0
DA:184,0
DA:185,0
DA:186,0
DA:187,0
DA:188,0
DA:189,0
DA:190,0
DA:191,0
DA:192,0
DA:194,0
DA:195,0
DA:204,0
DA:205,0
DA:206,0
DA:207,0
DA:208,0
DA:209,0
DA:210,0
DA:211,0
DA:213,0
DA:214,0
DA:215,0
DA:216,0
DA:217,0
DA:218,0
DA:219,0
DA:220,0
DA:221,0
DA:222,0
DA:223,0
DA:225,0
DA:226,0
DA:230,0
DA:231,0
DA:232,0
DA:233,0
DA:234,0
DA:235,0
DA:236,0
DA:238,0
DA:239,0
DA:240,0
DA:241,0
DA:242,0
DA:244,0
DA:245,0
DA:255,1
DA:256,1
DA:257,1
DA:258,1
DA:259,1
DA:260,1
DA:261,1
DA:262,0
DA:263,1
DA:265,1
DA:266,1
DA:267,2
DA:269,1
DA:270,1
DA:271,1
DA:272,1
DA:274,0
DA:276,1
DA:278,1
DA:279,1
DA:283,2
DA:284,2
DA:285,2
DA:286,2
DA:287,2
DA:288,0
DA:289,2
DA:291,2
DA:292,2
DA:293,2
DA:294,2
DA:295,2
DA:297,2
DA:298,2
DA:302,0
DA:303,0
DA:304,0
DA:305,0
DA:306,0
DA:307,0
DA:308,0
DA:310,0
DA:311,0
DA:312,0
DA:313,0
DA:314,0
DA:316,0
DA:317,0
DA:332,0
DA:333,0
DA:334,0
DA:335,0
DA:336,0
DA:337,0
DA:338,0
DA:339,0
DA:340,0
DA:343,0
DA:344,0
DA:345,0
DA:347,0
DA:348,0
DA:349,0
DA:350,0
DA:351,0
DA:353,0
DA:354,0
DA:355,0
DA:356,0
DA:357,0
DA:359,0
DA:360,0
DA:361,0
DA:364,0
DA:365,0
DA:366,0
DA:367,0
DA:368,0
DA:369,0
DA:370,0
DA:374,0
DA:375,0
DA:376,0
DA:377,0
DA:378,0
DA:379,0
DA:380,0
DA:381,0
DA:382,0
DA:384,0
DA:385,0
DA:387,0
DA:388,0
DA:395,1
DA:396,1
DA:397,1
DA:398,1
DA:400,1
DA:401,1
DA:402,1
DA:403,1
DA:405,1
DA:406,1
DA:407,1
DA:408,1
DA:410,1
DA:411,1
DA:414,1
DA:415,1
DA:416,1
DA:417,1
DA:419,1
DA:420,1
DA:421,1
DA:422,1
DA:423,1
DA:425,1
DA:426,1
BRF:0
BRH:0
LF:271
LH:109
end_of_record
SF:/Users/ken/git_for_collab4/tensor4all-rs/crates/tensor4all-capi/src/tensor.rs
FN:513,_RNvNtNtCslD6BJj2Z6b5_15tensor4all_capi6tensor5testss_15test_tensor_c64
FN:434,_RNvNtNtCslD6BJj2Z6b5_15tensor4all_capi6tensor5testss_21test_tensor_accessors
FN:403,_RNvNtNtCslD6BJj2Z6b5_15tensor4all_capi6tensor5testss_21test_tensor_lifecycle
FN:224,t4a_tensor_get_data_c64
FN:168,t4a_tensor_get_data_f64
FN:57,t4a_tensor_get_dims
FN:97,t4a_tensor_get_indices
FN:28,t4a_tensor_get_rank
FN:132,t4a_tensor_get_storage_kind
FN:347,t4a_tensor_new_dense_c64
FN:282,t4a_tensor_new_dense_f64
FN:372,_RNCNCNvNtCslD6BJj2Z6b5_15tensor4all_capi6tensor24t4a_tensor_new_dense_c6400B7_
FN:382,_RNCNCNvNtCslD6BJj2Z6b5_15tensor4all_capi6tensor24t4a_tensor_new_dense_c640s_0B7_
FN:306,_RNCNCNvNtCslD6BJj2Z6b5_15tensor4all_capi6tensor24t4a_tensor_new_dense_f6400B7_
FN:66,_RNCNvNtCslD6BJj2Z6b5_15tensor4all_capi6tensor19t4a_tensor_get_dims0B5_
FN:36,_RNCNvNtCslD6BJj2Z6b5_15tensor4all_capi6tensor19t4a_tensor_get_rank0B5_
FN:106,_RNCNvNtCslD6BJj2Z6b5_15tensor4all_capi6tensor22t4a_tensor_get_indices0B5_
FN:235,_RNCNvNtCslD6BJj2Z6b5_15tensor4all_capi6tensor23t4a_tensor_get_data_c640B5_
FN:178,_RNCNvNtCslD6BJj2Z6b5_15tensor4all_capi6tensor23t4a_tensor_get_data_f640B5_
FN:359,_RNCNvNtCslD6BJj2Z6b5_15tensor4all_capi6tensor24t4a_tensor_new_dense_c640B5_
FN:293,_RNCNvNtCslD6BJj2Z6b5_15tensor4all_capi6tensor24t4a_tensor_new_dense_f640B5_
FN:140,_RNCNvNtCslD6BJj2Z6b5_15tensor4all_capi6tensor27t4a_tensor_get_storage_kind0B5_
FNDA:1,_RNvNtNtCslD6BJj2Z6b5_15tensor4all_capi6tensor5testss_15test_tensor_c64
FNDA:1,_RNvNtNtCslD6BJj2Z6b5_15tensor4all_capi6tensor5testss_21test_tensor_accessors
FNDA:1,_RNvNtNtCslD6BJj2Z6b5_15tensor4all_capi6tensor5testss_21test_tensor_lifecycle
FNDA:1,t4a_tensor_get_data_c64
FNDA:2,t4a_tensor_get_data_f64
FNDA:1,t4a_tensor_get_dims
FNDA:1,t4a_tensor_get_indices
FNDA:1,t4a_tensor_get_rank
FNDA:2,t4a_tensor_get_storage_kind
FNDA:1,t4a_tensor_new_dense_c64
FNDA:6,t4a_tensor_new_dense_f64
FNDA:2,_RNCNCNvNtCslD6BJj2Z6b5_15tensor4all_capi6tensor24t4a_tensor_new_dense_c6400B7_
FNDA:4,_RNCNCNvNtCslD6BJj2Z6b5_15tensor4all_capi6tensor24t4a_tensor_new_dense_c640s_0B7_
FNDA:10,_RNCNCNvNtCslD6BJj2Z6b5_15tensor4all_capi6tensor24t4a_tensor_new_dense_f6400B7_
FNDA:1,_RNCNvNtCslD6BJj2Z6b5_15tensor4all_capi6tensor19t4a_tensor_get_dims0B5_
FNDA:1,_RNCNvNtCslD6BJj2Z6b5_15tensor4all_capi6tensor19t4a_tensor_get_rank0B5_
FNDA:1,_RNCNvNtCslD6BJj2Z6b5_15tensor4all_capi6tensor22t4a_tensor_get_indices0B5_
FNDA:1,_RNCNvNtCslD6BJj2Z6b5_15tensor4all_capi6tensor23t4a_tensor_get_data_c640B5_
FNDA:2,_RNCNvNtCslD6BJj2Z6b5_15tensor4all_capi6tensor23t4a_tensor_get_data_f640B5_
FNDA:1,_RNCNvNtCslD6BJj2Z6b5_15tensor4all_capi6tensor24t4a_tensor_new_dense_c640B5_
FNDA:6,_RNCNvNtCslD6BJj2Z6b5_15tensor4all_capi6tensor24t4a_tensor_new_dense_f640B5_
FNDA:2,_RNCNvNtCslD6BJj2Z6b5_15tensor4all_capi6tensor27t4a_tensor_get_storage_kind0B5_
FNF:22
FNH:22
DA:28,1
DA:29,1
DA:30,1
DA:31,1
DA:32,1
DA:33,0
DA:34,1
DA:36,1
DA:37,1
DA:38,1
DA:39,1
DA:40,1
DA:41,1
DA:43,1
DA:44,1
DA:57,1
DA:58,1
DA:59,1
DA:60,1
DA:61,1
DA:62,1
DA:63,0
DA:64,1
DA:66,1
DA:67,1
DA:68,1
DA:70,1
DA:71,0
DA:72,1
DA:75,2
DA:76,2
DA:77,2
DA:79,1
DA:80,1
DA:82,1
DA:83,1
DA:97,1
DA:98,1
DA:99,1
DA:100,1
DA:101,1
DA:102,1
DA:103,0
DA:104,1
DA:106,1
DA:107,1
DA:108,1
DA:110,1
DA:111,0
DA:112,1
DA:115,2
DA:116,2
DA:117,2
DA:118,2
DA:120,1
DA:121,1
DA:123,1
DA:124,1
DA:132,2
DA:133,2
DA:134,2
DA:135,2
DA:136,2
DA:137,0
DA:138,2
DA:140,2
DA:141,2
DA:142,2
DA:143,2
DA:144,2
DA:145,2
DA:147,2
DA:148,2
DA:168,2
DA:169,2
DA:170,2
DA:171,2
DA:172,2
DA:173,2
DA:174,2
DA:175,0
DA:176,2
DA:178,2
DA:179,2
DA:181,2
DA:182,2
DA:183,0
DA:186,2
DA:188,2
DA:189,1
DA:190,1
DA:192,1
DA:193,0
DA:194,1
DA:196,1
DA:197,1
DA:198,1
DA:199,1
DA:200,2
DA:202,2
DA:203,2
DA:224,1
DA:225,1
DA:226,1
DA:227,1
DA:228,1
DA:229,1
DA:230,1
DA:231,1
DA:232,0
DA:233,1
DA:235,1
DA:236,1
DA:238,1
DA:239,1
DA:240,0
DA:243,1
DA:245,1
DA:246,0
DA:247,1
DA:249,1
DA:250,0
DA:251,1
DA:254,4
DA:255,4
DA:256,4
DA:257,4
DA:259,1
DA:260,1
DA:262,1
DA:263,1
DA:282,6
DA:283,6
DA:284,6
DA:285,6
DA:286,6
DA:287,6
DA:288,6
DA:289,6
DA:290,0
DA:291,6
DA:293,6
DA:295,6
DA:296,10
DA:297,10
DA:298,10
DA:299,0
DA:300,10
DA:301,10
DA:302,10
DA:306,10
DA:309,6
DA:310,6
DA:311,0
DA:312,6
DA:315,6
DA:318,6
DA:321,6
DA:323,6
DA:324,6
DA:326,6
DA:327,6
DA:347,1
DA:348,1
DA:349,1
DA:350,1
DA:351,1
DA:352,1
DA:353,1
DA:354,1
DA:355,1
DA:356,0
DA:357,1
DA:359,1
DA:361,1
DA:362,2
DA:363,2
DA:364,2
DA:365,0
DA:366,2
DA:367,2
DA:368,2
DA:372,2
DA:375,1
DA:376,1
DA:377,0
DA:378,1
DA:381,1
DA:382,4
DA:383,1
DA:386,1
DA:389,1
DA:391,1
DA:392,1
DA:394,1
DA:395,1
DA:403,1
DA:405,1
DA:406,1
DA:407,1
DA:408,1
DA:411,1
DA:412,1
DA:413,1
DA:415,1
DA:416,1
DA:417,1
DA:420,1
DA:423,1
DA:424,1
DA:427,1
DA:428,1
DA:429,1
DA:430,1
DA:431,1
DA:434,1
DA:436,1
DA:437,1
DA:440,1
DA:441,1
DA:442,1
DA:444,1
DA:445,1
DA:448,1
DA:449,1
DA:450,1
DA:453,1
DA:456,1
DA:457,1
DA:458,1
DA:461,1
DA:464,1
DA:465,1
DA:466,1
DA:469,1
DA:472,1
DA:473,1
DA:474,1
DA:477,1
DA:479,1
DA:480,1
DA:481,1
DA:484,1
DA:487,1
DA:488,1
DA:489,1
DA:494,1
DA:495,1
DA:496,1
DA:497,1
DA:498,1
DA:499,1
DA:502,3
DA:503,2
DA:504,2
DA:507,1
DA:508,1
DA:509,1
DA:510,1
DA:513,1
DA:515,1
DA:516,1
DA:519,1
DA:520,1
DA:521,1
DA:522,1
DA:524,1
DA:526,1
DA:527,1
DA:528,1
DA:529,1
DA:532,1
DA:535,1
DA:536,1
DA:537,1
DA:540,1
DA:543,1
DA:544,1
DA:545,1
DA:546,1
DA:547,1
DA:548,1
DA:549,1
DA:550,1
DA:552,1
DA:556,1
DA:557,1
DA:558,1
DA:561,1
DA:562,1
DA:563,1
DA:564,1
BRF:0
BRH:0
LF:303
LH:284
end_of_record
SF:/Users/ken/git_for_collab4/tensor4all-rs/crates/tensor4all-capi/src/tensorci.rs
FN:61,_RNvXs_NtCslD6BJj2Z6b5_15tensor4all_capi8tensorciNtB4_12t4a_tci2_f64NtNtNtCskzPJi2J8k3N_4core3ops4drop4Drop4drop
FN:504,_RNvNtNtCslD6BJj2Z6b5_15tensor4all_capi8tensorci5testss_13test_tci2_new
FN:518,_RNvNtNtCslD6BJj2Z6b5_15tensor4all_capi8tensorci5testss_31test_crossinterpolate2_constant
FN:520,_RNvNvNtNtCslD6BJj2Z6b5_15tensor4all_capi8tensorci5testss_31test_crossinterpolate2_constant14const_callback
FN:429,_RNCNCNCNvNtCslD6BJj2Z6b5_15tensor4all_capi8tensorci25t4a_crossinterpolate2_f640s0_00B9_
FN:420,_RNCNCNCNvNtCslD6BJj2Z6b5_15tensor4all_capi8tensorci25t4a_crossinterpolate2_f640s_00B9_
FN:107,_RNCNCNvNtCslD6BJj2Z6b5_15tensor4all_capi8tensorci16t4a_tci2_f64_new00B7_
FN:410,_RNCNCNvNtCslD6BJj2Z6b5_15tensor4all_capi8tensorci25t4a_crossinterpolate2_f6400B7_
FN:428,_RNCNCNvNtCslD6BJj2Z6b5_15tensor4all_capi8tensorci25t4a_crossinterpolate2_f640s0_0B7_
FN:418,_RNCNCNvNtCslD6BJj2Z6b5_15tensor4all_capi8tensorci25t4a_crossinterpolate2_f640s_0B7_
FN:133,_RNCNvNtCslD6BJj2Z6b5_15tensor4all_capi8tensorci16t4a_tci2_f64_len0B5_
FN:105,_RNCNvNtCslD6BJj2Z6b5_15tensor4all_capi8tensorci16t4a_tci2_f64_new0B5_
FN:152,_RNCNvNtCslD6BJj2Z6b5_15tensor4all_capi8tensorci17t4a_tci2_f64_rank0B5_
FN:303,_RNCNvNtCslD6BJj2Z6b5_15tensor4all_capi8tensorci18t4a_tci2_f64_sweep0B5_
FN:172,_RNCNvNtCslD6BJj2Z6b5_15tensor4all_capi8tensorci22t4a_tci2_f64_link_dims0B5_
FN:407,_RNCNvNtCslD6BJj2Z6b5_15tensor4all_capi8tensorci25t4a_crossinterpolate2_f640B5_
FN:216,_RNCNvNtCslD6BJj2Z6b5_15tensor4all_capi8tensorci27t4a_tci2_f64_max_bond_error0B5_
FN:354,_RNCNvNtCslD6BJj2Z6b5_15tensor4all_capi8tensorci28t4a_tci2_f64_to_tensor_train0B5_
FN:197,_RNCNvNtCslD6BJj2Z6b5_15tensor4all_capi8tensorci29t4a_tci2_f64_max_sample_value0B5_
FN:247,_RNCNvNtCslD6BJj2Z6b5_15tensor4all_capi8tensorci30t4a_tci2_f64_add_global_pivots0B5_
FN:45,_RNvMNtCslD6BJj2Z6b5_15tensor4all_capi8tensorciNtB2_12t4a_tci2_f643new
FN:51,_RNvMNtCslD6BJj2Z6b5_15tensor4all_capi8tensorciNtB2_12t4a_tci2_f645inner
FN:55,_RNvMNtCslD6BJj2Z6b5_15tensor4all_capi8tensorciNtB2_12t4a_tci2_f649inner_mut
FN:390,t4a_crossinterpolate2_f64
FN:237,t4a_tci2_f64_add_global_pivots
FN:125,t4a_tci2_f64_len
FN:163,t4a_tci2_f64_link_dims
FN:208,t4a_tci2_f64_max_bond_error
FN:189,t4a_tci2_f64_max_sample_value
FN:97,t4a_tci2_f64_new
FN:144,t4a_tci2_f64_rank
FN:76,t4a_tci2_f64_release
FN:290,t4a_tci2_f64_sweep
FN:349,t4a_tci2_f64_to_tensor_train
FN:497,_RNCNvNtNtCslD6BJj2Z6b5_15tensor4all_capi8tensorci5tests12sum_callback0B7_
FN:490,_RNvNtNtCslD6BJj2Z6b5_15tensor4all_capi8tensorci5tests12sum_callback
FNDA:2,_RNvXs_NtCslD6BJj2Z6b5_15tensor4all_capi8tensorciNtB4_12t4a_tci2_f64NtNtNtCskzPJi2J8k3N_4core3ops4drop4Drop4drop
FNDA:1,_RNvNtNtCslD6BJj2Z6b5_15tensor4all_capi8tensorci5testss_13test_tci2_new
FNDA:1,_RNvNtNtCslD6BJj2Z6b5_15tensor4all_capi8tensorci5testss_31test_crossinterpolate2_constant
FNDA:13,_RNvNvNtNtCslD6BJj2Z6b5_15tensor4all_capi8tensorci5testss_31test_crossinterpolate2_constant14const_callback
FNDA:26,_RNCNCNCNvNtCslD6BJj2Z6b5_15tensor4all_capi8tensorci25t4a_crossinterpolate2_f640s0_00B9_
FNDA:0,_RNCNCNCNvNtCslD6BJj2Z6b5_15tensor4all_capi8tensorci25t4a_crossinterpolate2_f640s_00B9_
FNDA:3,_RNCNCNvNtCslD6BJj2Z6b5_15tensor4all_capi8tensorci16t4a_tci2_f64_new00B7_
FNDA:2,_RNCNCNvNtCslD6BJj2Z6b5_15tensor4all_capi8tensorci25t4a_crossinterpolate2_f6400B7_
FNDA:13,_RNCNCNvNtCslD6BJj2Z6b5_15tensor4all_capi8tensorci25t4a_crossinterpolate2_f640s0_0B7_
FNDA:0,_RNCNCNvNtCslD6BJj2Z6b5_15tensor4all_capi8tensorci25t4a_crossinterpolate2_f640s_0B7_
FNDA:1,_RNCNvNtCslD6BJj2Z6b5_15tensor4all_capi8tensorci16t4a_tci2_f64_len0B5_
FNDA:1,_RNCNvNtCslD6BJj2Z6b5_15tensor4all_capi8tensorci16t4a_tci2_f64_new0B5_
FNDA:1,_RNCNvNtCslD6BJj2Z6b5_15tensor4all_capi8tensorci17t4a_tci2_f64_rank0B5_
FNDA:0,_RNCNvNtCslD6BJj2Z6b5_15tensor4all_capi8tensorci18t4a_tci2_f64_sweep0B5_
FNDA:0,_RNCNvNtCslD6BJj2Z6b5_15tensor4all_capi8tensorci22t4a_tci2_f64_link_dims0B5_
FNDA:1,_RNCNvNtCslD6BJj2Z6b5_15tensor4all_capi8tensorci25t4a_crossinterpolate2_f640B5_
FNDA:0,_RNCNvNtCslD6BJj2Z6b5_15tensor4all_capi8tensorci27t4a_tci2_f64_max_bond_error0B5_
FNDA:1,_RNCNvNtCslD6BJj2Z6b5_15tensor4all_capi8tensorci28t4a_tci2_f64_to_tensor_train0B5_
FNDA:0,_RNCNvNtCslD6BJj2Z6b5_15tensor4all_capi8tensorci29t4a_tci2_f64_max_sample_value0B5_
FNDA:0,_RNCNvNtCslD6BJj2Z6b5_15tensor4all_capi8tensorci30t4a_tci2_f64_add_global_pivots0B5_
FNDA:2,_RNvMNtCslD6BJj2Z6b5_15tensor4all_capi8tensorciNtB2_12t4a_tci2_f643new
FNDA:3,_RNvMNtCslD6BJj2Z6b5_15tensor4all_capi8tensorciNtB2_12t4a_tci2_f645inner
FNDA:0,_RNvMNtCslD6BJj2Z6b5_15tensor4all_capi8tensorciNtB2_12t4a_tci2_f649inner_mut
FNDA:1,t4a_crossinterpolate2_f64
FNDA:0,t4a_tci2_f64_add_global_pivots
FNDA:1,t4a_tci2_f64_len
FNDA:0,t4a_tci2_f64_link_dims
FNDA:0,t4a_tci2_f64_max_bond_error
FNDA:0,t4a_tci2_f64_max_sample_value
FNDA:1,t4a_tci2_f64_new
FNDA:1,t4a_tci2_f64_rank
FNDA:2,t4a_tci2_f64_release
FNDA:0,t4a_tci2_f64_sweep
FNDA:1,t4a_tci2_f64_to_tensor_train
FNDA:0,_RNCNvNtNtCslD6BJj2Z6b5_15tensor4all_capi8tensorci5tests12sum_callback0B7_
FNDA:0,_RNvNtNtCslD6BJj2Z6b5_15tensor4all_capi8tensorci5tests12sum_callback
FNF:36
FNH:21
DA:45,2
DA:46,2
DA:47,2
DA:48,2
DA:49,2
DA:51,3
DA:52,3
DA:53,3
DA:55,0
DA:56,0
DA:57,0
DA:61,2
DA:62,2
DA:63,2
DA:64,2
DA:65,2
DA:66,0
DA:67,2
DA:76,2
DA:77,2
DA:78,2
DA:79,2
DA:80,2
DA:81,0
DA:82,2
DA:97,1
DA:98,1
DA:99,1
DA:100,1
DA:101,1
DA:102,0
DA:103,1
DA:105,1
DA:106,1
DA:107,3
DA:108,1
DA:110,1
DA:111,1
DA:112,0
DA:114,1
DA:116,1
DA:117,1
DA:125,1
DA:126,1
DA:127,1
DA:128,1
DA:129,1
DA:130,0
DA:131,1
DA:133,1
DA:134,1
DA:135,1
DA:136,1
DA:137,1
DA:139,1
DA:140,1
DA:144,1
DA:145,1
DA:146,1
DA:147,1
DA:148,1
DA:149,0
DA:150,1
DA:152,1
DA:153,1
DA:154,1
DA:155,1
DA:156,1
DA:158,1
DA:159,1
DA:163,0
DA:164,0
DA:165,0
DA:166,0
DA:167,0
DA:168,0
DA:169,0
DA:170,0
DA:172,0
DA:173,0
DA:174,0
DA:175,0
DA:176,0
DA:177,0
DA:178,0
DA:179,0
DA:180,0
DA:181,0
DA:182,0
DA:184,0
DA:185,0
DA:189,0
DA:190,0
DA:191,0
DA:192,0
DA:193,0
DA:194,0
DA:195,0
DA:197,0
DA:198,0
DA:199,0
DA:200,0
DA:201,0
DA:203,0
DA:204,0
DA:208,0
DA:209,0
DA:210,0
DA:211,0
DA:212,0
DA:213,0
DA:214,0
DA:216,0
DA:217,0
DA:218,0
DA:219,0
DA:220,0
DA:222,0
DA:223,0
DA:237,0
DA:238,0
DA:239,0
DA:240,0
DA:241,0
DA:242,0
DA:243,0
DA:244,0
DA:245,0
DA:247,0
DA:248,0
DA:251,0
DA:252,0
DA:253,0
DA:254,0
DA:255,0
DA:256,0
DA:257,0
DA:260,0
DA:261,0
DA:262,0
DA:264,0
DA:266,0
DA:267,0
DA:290,0
DA:291,0
DA:292,0
DA:293,0
DA:294,0
DA:295,0
DA:296,0
DA:297,0
DA:298,0
DA:299,0
DA:300,0
DA:301,0
DA:303,0
DA:304,0
DA:305,0
DA:318,0
DA:321,0
DA:322,0
DA:323,0
DA:324,0
DA:327,0
DA:328,0
DA:329,0
DA:331,0
DA:332,0
DA:334,0
DA:335,0
DA:349,1
DA:350,1
DA:351,0
DA:352,1
DA:354,1
DA:355,1
DA:356,1
DA:357,1
DA:358,0
DA:360,1
DA:362,1
DA:363,1
DA:390,1
DA:391,1
DA:392,1
DA:393,1
DA:394,1
DA:395,1
DA:396,1
DA:397,1
DA:398,1
DA:399,1
DA:400,1
DA:401,1
DA:402,1
DA:403,1
DA:404,0
DA:405,1
DA:407,1
DA:409,1
DA:410,2
DA:411,1
DA:414,1
DA:415,1
DA:417,0
DA:418,0
DA:419,0
DA:420,0
DA:421,0
DA:422,0
DA:423,0
DA:428,13
DA:429,26
DA:430,13
DA:432,13
DA:433,13
DA:434,13
DA:435,13
DA:436,13
DA:437,13
DA:439,13
DA:440,0
DA:442,13
DA:444,13
DA:447,1
DA:448,1
DA:449,1
DA:450,1
DA:452,0
DA:454,1
DA:455,1
DA:461,1
DA:462,1
DA:463,1
DA:464,1
DA:465,1
DA:467,1
DA:470,1
DA:471,1
DA:472,1
DA:473,1
DA:475,1
DA:477,0
DA:479,1
DA:481,1
DA:482,1
DA:490,0
DA:491,0
DA:492,0
DA:493,0
DA:494,0
DA:495,0
DA:497,0
DA:498,0
DA:500,0
DA:501,0
DA:504,1
DA:505,1
DA:506,1
DA:507,1
DA:509,1
DA:510,1
DA:511,1
DA:512,1
DA:514,1
DA:515,1
DA:518,1
DA:520,13
DA:521,13
DA:522,13
DA:523,13
DA:524,13
DA:525,13
DA:526,13
DA:527,13
DA:528,13
DA:530,1
DA:531,1
DA:532,1
DA:534,1
DA:535,1
DA:537,1
DA:539,1
DA:540,1
DA:544,1
DA:545,1
DA:548,1
DA:549,1
DA:552,1
DA:553,1
DA:554,1
DA:557,1
DA:558,1
DA:560,1
DA:561,1
DA:562,1
DA:564,1
DA:565,1
DA:566,1
BRF:0
BRH:0
LF:316
LH:176
end_of_record
SF:/Users/ken/git_for_collab4/tensor4all-rs/crates/tensor4all-capi/src/tensortrain.rs
FN:48,_RNCNCNvNtCslD6BJj2Z6b5_15tensor4all_capi11tensortrain10t4a_tt_new00B7_
FN:100,_RNCNvNtCslD6BJj2Z6b5_15tensor4all_capi11tensortrain10t4a_tt_len0B5_
FN:44,_RNCNvNtCslD6BJj2Z6b5_15tensor4all_capi11tensortrain10t4a_tt_new0B5_
FN:374,_RNCNvNtCslD6BJj2Z6b5_15tensor4all_capi11tensortrain11t4a_tt_llim0B5_
FN:564,_RNCNvNtCslD6BJj2Z6b5_15tensor4all_capi11tensortrain11t4a_tt_norm0B5_
FN:403,_RNCNvNtCslD6BJj2Z6b5_15tensor4all_capi11tensortrain11t4a_tt_rlim0B5_
FN:596,_RNCNvNtCslD6BJj2Z6b5_15tensor4all_capi11tensortrain12t4a_tt_inner0B5_
FN:151,_RNCNvNtCslD6BJj2Z6b5_15tensor4all_capi11tensortrain13t4a_tt_tensor0B5_
FN:311,_RNCNvNtCslD6BJj2Z6b5_15tensor4all_capi11tensortrain14t4a_tt_isortho0B5_
FN:283,_RNCNvNtCslD6BJj2Z6b5_15tensor4all_capi11tensortrain14t4a_tt_linkind0B5_
FN:648,_RNCNvNtCslD6BJj2Z6b5_15tensor4all_capi11tensortrain15t4a_tt_contract0B5_
FN:122,_RNCNvNtCslD6BJj2Z6b5_15tensor4all_capi11tensortrain15t4a_tt_is_empty0B5_
FN:527,_RNCNvNtCslD6BJj2Z6b5_15tensor4all_capi11tensortrain15t4a_tt_truncate0B5_
FN:223,_RNCNvNtCslD6BJj2Z6b5_15tensor4all_capi11tensortrain16t4a_tt_bond_dims0B5_
FN:69,_RNCNvNtCslD6BJj2Z6b5_15tensor4all_capi11tensortrain16t4a_tt_new_empty0B5_
FN:257,_RNCNvNtCslD6BJj2Z6b5_15tensor4all_capi11tensortrain17t4a_tt_maxbonddim0B5_
FN:188,_RNCNvNtCslD6BJj2Z6b5_15tensor4all_capi11tensortrain17t4a_tt_set_tensor0B5_
FN:340,_RNCNvNtCslD6BJj2Z6b5_15tensor4all_capi11tensortrain18t4a_tt_orthocenter0B5_
FN:466,_RNCNvNtCslD6BJj2Z6b5_15tensor4all_capi11tensortrain20t4a_tt_orthogonalize0B5_
FN:429,_RNCNvNtCslD6BJj2Z6b5_15tensor4all_capi11tensortrain21t4a_tt_canonical_form0B5_
FN:496,_RNCNvNtCslD6BJj2Z6b5_15tensor4all_capi11tensortrain25t4a_tt_orthogonalize_with0B5_
FN:214,t4a_tt_bond_dims
FN:421,t4a_tt_canonical_form
FN:636,t4a_tt_contract
FN:586,t4a_tt_inner
FN:117,t4a_tt_is_empty
FN:306,t4a_tt_isortho
FN:92,t4a_tt_len
FN:275,t4a_tt_linkind
FN:366,t4a_tt_llim
FN:249,t4a_tt_maxbonddim
FN:36,t4a_tt_new
FN:68,t4a_tt_new_empty
FN:556,t4a_tt_norm
FN:332,t4a_tt_orthocenter
FN:458,t4a_tt_orthogonalize
FN:487,t4a_tt_orthogonalize_with
FN:395,t4a_tt_rlim
FN:179,t4a_tt_set_tensor
FN:143,t4a_tt_tensor
FN:518,t4a_tt_truncate
FN:727,_RNCNvNtNtCslD6BJj2Z6b5_15tensor4all_capi11tensortrain5testss_20test_tt_from_tensors0B7_
FN:728,_RNCNvNtNtCslD6BJj2Z6b5_15tensor4all_capi11tensortrain5testss_20test_tt_from_tensorss_0B7_
FN:693,_RNvNtNtCslD6BJj2Z6b5_15tensor4all_capi11tensortrain5testss_17test_tt_lifecycle
FN:718,_RNvNtNtCslD6BJj2Z6b5_15tensor4all_capi11tensortrain5testss_20test_tt_from_tensors
FN:766,_RNvNtNtCslD6BJj2Z6b5_15tensor4all_capi11tensortrain5testss_42test_tt_contract_rounds_up_odd_nhalfsweeps
FNDA:4,_RNCNCNvNtCslD6BJj2Z6b5_15tensor4all_capi11tensortrain10t4a_tt_new00B7_
FNDA:2,_RNCNvNtCslD6BJj2Z6b5_15tensor4all_capi11tensortrain10t4a_tt_len0B5_
FNDA:3,_RNCNvNtCslD6BJj2Z6b5_15tensor4all_capi11tensortrain10t4a_tt_new0B5_
FNDA:0,_RNCNvNtCslD6BJj2Z6b5_15tensor4all_capi11tensortrain11t4a_tt_llim0B5_
FNDA:0,_RNCNvNtCslD6BJj2Z6b5_15tensor4all_capi11tensortrain11t4a_tt_norm0B5_
FNDA:0,_RNCNvNtCslD6BJj2Z6b5_15tensor4all_capi11tensortrain11t4a_tt_rlim0B5_
FNDA:0,_RNCNvNtCslD6BJj2Z6b5_15tensor4all_capi11tensortrain12t4a_tt_inner0B5_
FNDA:0,_RNCNvNtCslD6BJj2Z6b5_15tensor4all_capi11tensortrain13t4a_tt_tensor0B5_
FNDA:0,_RNCNvNtCslD6BJj2Z6b5_15tensor4all_capi11tensortrain14t4a_tt_isortho0B5_
FNDA:0,_RNCNvNtCslD6BJj2Z6b5_15tensor4all_capi11tensortrain14t4a_tt_linkind0B5_
FNDA:1,_RNCNvNtCslD6BJj2Z6b5_15tensor4all_capi11tensortrain15t4a_tt_contract0B5_
FNDA:1,_RNCNvNtCslD6BJj2Z6b5_15tensor4all_capi11tensortrain15t4a_tt_is_empty0B5_
FNDA:0,_RNCNvNtCslD6BJj2Z6b5_15tensor4all_capi11tensortrain15t4a_tt_truncate0B5_
FNDA:0,_RNCNvNtCslD6BJj2Z6b5_15tensor4all_capi11tensortrain16t4a_tt_bond_dims0B5_
FNDA:1,_RNCNvNtCslD6BJj2Z6b5_15tensor4all_capi11tensortrain16t4a_tt_new_empty0B5_
FNDA:1,_RNCNvNtCslD6BJj2Z6b5_15tensor4all_capi11tensortrain17t4a_tt_maxbonddim0B5_
FNDA:0,_RNCNvNtCslD6BJj2Z6b5_15tensor4all_capi11tensortrain17t4a_tt_set_tensor0B5_
FNDA:0,_RNCNvNtCslD6BJj2Z6b5_15tensor4all_capi11tensortrain18t4a_tt_orthocenter0B5_
FNDA:0,_RNCNvNtCslD6BJj2Z6b5_15tensor4all_capi11tensortrain20t4a_tt_orthogonalize0B5_
FNDA:0,_RNCNvNtCslD6BJj2Z6b5_15tensor4all_capi11tensortrain21t4a_tt_canonical_form0B5_
FNDA:0,_RNCNvNtCslD6BJj2Z6b5_15tensor4all_capi11tensortrain25t4a_tt_orthogonalize_with0B5_
FNDA:0,t4a_tt_bond_dims
FNDA:0,t4a_tt_canonical_form
FNDA:1,t4a_tt_contract
FNDA:0,t4a_tt_inner
FNDA:1,t4a_tt_is_empty
FNDA:0,t4a_tt_isortho
FNDA:2,t4a_tt_len
FNDA:0,t4a_tt_linkind
FNDA:0,t4a_tt_llim
FNDA:1,t4a_tt_maxbonddim
FNDA:3,t4a_tt_new
FNDA:1,t4a_tt_new_empty
FNDA:0,t4a_tt_norm
FNDA:0,t4a_tt_orthocenter
FNDA:0,t4a_tt_orthogonalize
FNDA:0,t4a_tt_orthogonalize_with
FNDA:0,t4a_tt_rlim
FNDA:0,t4a_tt_set_tensor
FNDA:0,t4a_tt_tensor
FNDA:0,t4a_tt_truncate
FNDA:6,_RNCNvNtNtCslD6BJj2Z6b5_15tensor4all_capi11tensortrain5testss_20test_tt_from_tensors0B7_
FNDA:6,_RNCNvNtNtCslD6BJj2Z6b5_15tensor4all_capi11tensortrain5testss_20test_tt_from_tensorss_0B7_
FNDA:1,_RNvNtNtCslD6BJj2Z6b5_15tensor4all_capi11tensortrain5testss_17test_tt_lifecycle
FNDA:1,_RNvNtNtCslD6BJj2Z6b5_15tensor4all_capi11tensortrain5testss_20test_tt_from_tensors
FNDA:1,_RNvNtNtCslD6BJj2Z6b5_15tensor4all_capi11tensortrain5testss_42test_tt_contract_rounds_up_odd_nhalfsweeps
FNF:46
FNH:18
DA:36,3
DA:37,3
DA:38,3
DA:39,3
DA:40,3
DA:41,0
DA:42,3
DA:44,3
DA:46,3
DA:47,3
DA:48,4
DA:49,4
DA:50,4
DA:51,3
DA:54,3
DA:55,3
DA:56,0
DA:58,3
DA:60,3
DA:61,3
DA:68,1
DA:69,1
DA:70,1
DA:71,1
DA:72,0
DA:74,1
DA:76,1
DA:77,1
DA:92,2
DA:93,2
DA:94,2
DA:95,2
DA:96,2
DA:97,0
DA:98,2
DA:100,2
DA:101,2
DA:102,2
DA:103,2
DA:104,2
DA:106,2
DA:107,2
DA:117,1
DA:118,1
DA:119,0
DA:120,1
DA:122,1
DA:123,1
DA:124,1
DA:125,1
DA:127,0
DA:129,1
DA:131,1
DA:132,1
DA:143,0
DA:144,0
DA:145,0
DA:146,0
DA:147,0
DA:148,0
DA:149,0
DA:151,0
DA:152,0
DA:153,0
DA:154,0
DA:155,0
DA:156,0
DA:157,0
DA:158,0
DA:160,0
DA:161,0
DA:179,0
DA:180,0
DA:181,0
DA:182,0
DA:183,0
DA:184,0
DA:185,0
DA:186,0
DA:188,0
DA:189,0
DA:190,0
DA:192,0
DA:193,0
DA:194,0
DA:196,0
DA:197,0
DA:198,0
DA:199,0
DA:201,0
DA:202,0
DA:214,0
DA:215,0
DA:216,0
DA:217,0
DA:218,0
DA:219,0
DA:220,0
DA:221,0
DA:223,0
DA:224,0
DA:225,0
DA:227,0
DA:228,0
DA:229,0
DA:231,0
DA:232,0
DA:233,0
DA:234,0
DA:235,0
DA:237,0
DA:238,0
DA:249,1
DA:250,1
DA:251,1
DA:252,1
DA:253,1
DA:254,0
DA:255,1
DA:257,1
DA:258,1
DA:259,1
DA:260,1
DA:261,1
DA:263,1
DA:264,1
DA:275,0
DA:276,0
DA:277,0
DA:278,0
DA:279,0
DA:280,0
DA:281,0
DA:283,0
DA:284,0
DA:285,0
DA:286,0
DA:287,0
DA:289,0
DA:291,0
DA:292,0
DA:306,0
DA:307,0
DA:308,0
DA:309,0
DA:311,0
DA:312,0
DA:313,0
DA:314,0
DA:316,0
DA:318,0
DA:320,0
DA:321,0
DA:332,0
DA:333,0
DA:334,0
DA:335,0
DA:336,0
DA:337,0
DA:338,0
DA:340,0
DA:341,0
DA:342,0
DA:343,0
DA:344,0
DA:345,0
DA:347,0
DA:349,0
DA:351,0
DA:352,0
DA:366,0
DA:367,0
DA:368,0
DA:369,0
DA:370,0
DA:371,0
DA:372,0
DA:374,0
DA:375,0
DA:376,0
DA:377,0
DA:378,0
DA:380,0
DA:381,0
DA:395,0
DA:396,0
DA:397,0
DA:398,0
DA:399,0
DA:400,0
DA:401,0
DA:403,0
DA:404,0
DA:405,0
DA:406,0
DA:407,0
DA:409,0
DA:410,0
DA:421,0
DA:422,0
DA:423,0
DA:424,0
DA:425,0
DA:426,0
DA:427,0
DA:429,0
DA:430,0
DA:431,0
DA:432,0
DA:433,0
DA:434,0
DA:436,0
DA:438,0
DA:440,0
DA:441,0
DA:458,0
DA:459,0
DA:460,0
DA:461,0
DA:462,0
DA:463,0
DA:464,0
DA:466,0
DA:467,0
DA:468,0
DA:469,0
DA:470,0
DA:472,0
DA:474,0
DA:475,0
DA:487,0
DA:488,0
DA:489,0
DA:490,0
DA:491,0
DA:492,0
DA:493,0
DA:494,0
DA:496,0
DA:497,0
DA:498,0
DA:499,0
DA:500,0
DA:501,0
DA:503,0
DA:505,0
DA:506,0
DA:518,0
DA:519,0
DA:520,0
DA:521,0
DA:522,0
DA:523,0
DA:524,0
DA:525,0
DA:527,0
DA:528,0
DA:530,0
DA:531,0
DA:532,0
DA:533,0
DA:534,0
DA:535,0
DA:536,0
DA:538,0
DA:539,0
DA:540,0
DA:542,0
DA:544,0
DA:545,0
DA:556,0
DA:557,0
DA:558,0
DA:559,0
DA:560,0
DA:561,0
DA:562,0
DA:564,0
DA:565,0
DA:566,0
DA:567,0
DA:568,0
DA:570,0
DA:571,0
DA:586,0
DA:587,0
DA:588,0
DA:589,0
DA:590,0
DA:591,0
DA:592,0
DA:593,0
DA:594,0
DA:596,0
DA:599,0
DA:600,0
DA:602,0
DA:604,0
DA:605,0
DA:606,0
DA:607,0
DA:608,0
DA:609,0
DA:610,0
DA:611,0
DA:612,0
DA:615,0
DA:616,0
DA:618,0
DA:619,0
DA:636,1
DA:637,1
DA:638,1
DA:639,1
DA:640,1
DA:641,1
DA:642,1
DA:643,1
DA:644,1
DA:645,0
DA:646,1
DA:648,1
DA:651,1
DA:652,1
DA:655,1
DA:656,1
DA:657,1
DA:658,0
DA:659,0
DA:662,1
DA:663,0
DA:664,1
DA:665,1
DA:666,0
DA:667,1
DA:668,1
DA:671,1
DA:672,0
DA:674,1
DA:676,1
DA:677,0
DA:679,1
DA:680,1
DA:681,0
DA:683,1
DA:685,1
DA:686,1
DA:693,1
DA:695,1
DA:696,1
DA:699,1
DA:700,1
DA:703,1
DA:704,1
DA:705,1
DA:706,1
DA:709,1
DA:710,1
DA:713,1
DA:714,1
DA:715,1
DA:718,1
DA:722,1
DA:723,1
DA:724,1
DA:727,6
DA:728,6
DA:731,1
DA:732,1
DA:733,1
DA:735,1
DA:736,1
DA:737,1
DA:738,1
DA:741,1
DA:742,1
DA:743,1
DA:746,1
DA:747,1
DA:748,1
DA:751,1
DA:752,1
DA:753,1
DA:756,1
DA:757,1
DA:758,1
DA:759,1
DA:760,1
DA:761,1
DA:762,1
DA:763,1
DA:766,1
DA:770,1
DA:771,1
DA:773,1
DA:774,1
DA:776,1
DA:777,1
DA:778,1
DA:780,1
DA:781,1
DA:782,1
DA:784,1
DA:785,1
DA:786,1
DA:787,1
DA:788,1
DA:789,1
DA:792,1
DA:793,1
DA:794,1
DA:795,1
DA:800,1
DA:803,1
DA:804,1
DA:805,1
DA:806,1
DA:807,1
DA:808,1
DA:809,1
DA:810,1
BRF:0
BRH:0
LF:443
LH:172
end_of_record
SF:/Users/ken/git_for_collab4/tensor4all-rs/crates/tensor4all-capi/src/types.rs
FN:227,_RNvXsf_NtCslD6BJj2Z6b5_15tensor4all_capi5typesNtNtCsaogGgQeyHx_17tensor4all_treetn9algorithm13CanonicalFormINtNtCskzPJi2J8k3N_4core7convert4FromNtB5_18t4a_canonical_formE4from
FN:53,_RNvXs0_NtCslD6BJj2Z6b5_15tensor4all_capi5typesNtB5_9t4a_indexNtNtNtCskzPJi2J8k3N_4core3ops4drop4Drop4drop
FN:132,_RNvXs6_NtCslD6BJj2Z6b5_15tensor4all_capi5typesNtB5_10t4a_tensorNtNtNtCskzPJi2J8k3N_4core3ops4drop4Drop4drop
FN:189,_RNvXsb_NtCslD6BJj2Z6b5_15tensor4all_capi5typesNtB5_15t4a_tensortrainNtNtNtCskzPJi2J8k3N_4core3ops4drop4Drop4drop
FN:28,_RNvMNtCslD6BJj2Z6b5_15tensor4all_capi5typesNtB2_9t4a_index3new
FN:35,_RNvMNtCslD6BJj2Z6b5_15tensor4all_capi5typesNtB2_9t4a_index5inner
FN:40,_RNvMNtCslD6BJj2Z6b5_15tensor4all_capi5typesNtB2_9t4a_index9inner_mut
FN:84,_RNvMs3_NtCslD6BJj2Z6b5_15tensor4all_capi5typesNtB5_16t4a_storage_kind12from_storage
FN:106,_RNvMs4_NtCslD6BJj2Z6b5_15tensor4all_capi5typesNtB5_10t4a_tensor3new
FN:113,_RNvMs4_NtCslD6BJj2Z6b5_15tensor4all_capi5typesNtB5_10t4a_tensor5inner
FN:164,_RNvMs9_NtCslD6BJj2Z6b5_15tensor4all_capi5typesNtB5_15t4a_tensortrain3new
FN:171,_RNvMs9_NtCslD6BJj2Z6b5_15tensor4all_capi5typesNtB5_15t4a_tensortrain5inner
FN:176,_RNvMs9_NtCslD6BJj2Z6b5_15tensor4all_capi5typesNtB5_15t4a_tensortrain9inner_mut
FN:125,_RNvXs5_NtCslD6BJj2Z6b5_15tensor4all_capi5typesNtB5_10t4a_tensorNtNtCskzPJi2J8k3N_4core5clone5Clone5clone
FN:46,_RNvXs_NtCslD6BJj2Z6b5_15tensor4all_capi5typesNtB4_9t4a_indexNtNtCskzPJi2J8k3N_4core5clone5Clone5clone
FN:182,_RNvXsa_NtCslD6BJj2Z6b5_15tensor4all_capi5typesNtB5_15t4a_tensortrainNtNtCskzPJi2J8k3N_4core5clone5Clone5clone
FN:217,_RNvXse_NtCslD6BJj2Z6b5_15tensor4all_capi5typesNtB5_18t4a_canonical_formINtNtCskzPJi2J8k3N_4core7convert4FromNtNtCsaogGgQeyHx_17tensor4all_treetn9algorithm13CanonicalFormE4from
FN:119,_RNvMs4_NtCslD6BJj2Z6b5_15tensor4all_capi5typesNtB5_10t4a_tensor9inner_mut
FN:260,_RNvXsg_NtCslD6BJj2Z6b5_15tensor4all_capi5typesNtB5_23t4a_factorize_algorithmINtNtCskzPJi2J8k3N_4core7convert4FromNtNtCsbrO2ourfQV3_15tensor4all_core11tensor_like12FactorizeAlgE4from
FN:271,_RNvXsh_NtCslD6BJj2Z6b5_15tensor4all_capi5typesNtNtCsbrO2ourfQV3_15tensor4all_core11tensor_like12FactorizeAlgINtNtCskzPJi2J8k3N_4core7convert4FromNtB5_23t4a_factorize_algorithmE4from
FN:334,_RNvXsi_NtCslD6BJj2Z6b5_15tensor4all_capi5typesNtB5_19t4a_contract_methodINtNtCskzPJi2J8k3N_4core7convert4FromNtNtCsaRfSWFUMrL5_22tensor4all_itensorlike7options14ContractMethodE4from
FN:344,_RNvXsj_NtCslD6BJj2Z6b5_15tensor4all_capi5typesNtNtCsaRfSWFUMrL5_22tensor4all_itensorlike7options14ContractMethodINtNtCskzPJi2J8k3N_4core7convert4FromNtB5_19t4a_contract_methodE4from
FNDA:0,_RNvXsf_NtCslD6BJj2Z6b5_15tensor4all_capi5typesNtNtCsaogGgQeyHx_17tensor4all_treetn9algorithm13CanonicalFormINtNtCskzPJi2J8k3N_4core7convert4FromNtB5_18t4a_canonical_formE4from
FNDA:21,_RNvXs0_NtCslD6BJj2Z6b5_15tensor4all_capi5typesNtB5_9t4a_indexNtNtNtCskzPJi2J8k3N_4core3ops4drop4Drop4drop
FNDA:8,_RNvXs6_NtCslD6BJj2Z6b5_15tensor4all_capi5typesNtB5_10t4a_tensorNtNtNtCskzPJi2J8k3N_4core3ops4drop4Drop4drop
FNDA:6,_RNvXsb_NtCslD6BJj2Z6b5_15tensor4all_capi5typesNtB5_15t4a_tensortrainNtNtNtCskzPJi2J8k3N_4core3ops4drop4Drop4drop
FNDA:21,_RNvMNtCslD6BJj2Z6b5_15tensor4all_capi5typesNtB2_9t4a_index3new
FNDA:30,_RNvMNtCslD6BJj2Z6b5_15tensor4all_capi5typesNtB2_9t4a_index5inner
FNDA:0,_RNvMNtCslD6BJj2Z6b5_15tensor4all_capi5typesNtB2_9t4a_index9inner_mut
FNDA:2,_RNvMs3_NtCslD6BJj2Z6b5_15tensor4all_capi5typesNtB5_16t4a_storage_kind12from_storage
FNDA:8,_RNvMs4_NtCslD6BJj2Z6b5_15tensor4all_capi5typesNtB5_10t4a_tensor3new
FNDA:13,_RNvMs4_NtCslD6BJj2Z6b5_15tensor4all_capi5typesNtB5_10t4a_tensor5inner
FNDA:6,_RNvMs9_NtCslD6BJj2Z6b5_15tensor4all_capi5typesNtB5_15t4a_tensortrain3new
FNDA:7,_RNvMs9_NtCslD6BJj2Z6b5_15tensor4all_capi5typesNtB5_15t4a_tensortrain5inner
FNDA:0,_RNvMs9_NtCslD6BJj2Z6b5_15tensor4all_capi5typesNtB5_15t4a_tensortrain9inner_mut
FNDA:1,_RNvXs5_NtCslD6BJj2Z6b5_15tensor4all_capi5typesNtB5_10t4a_tensorNtNtCskzPJi2J8k3N_4core5clone5Clone5clone
FNDA:3,_RNvXs_NtCslD6BJj2Z6b5_15tensor4all_capi5typesNtB4_9t4a_indexNtNtCskzPJi2J8k3N_4core5clone5Clone5clone
FNDA:1,_RNvXsa_NtCslD6BJj2Z6b5_15tensor4all_capi5typesNtB5_15t4a_tensortrainNtNtCskzPJi2J8k3N_4core5clone5Clone5clone
FNDA:0,_RNvXse_NtCslD6BJj2Z6b5_15tensor4all_capi5typesNtB5_18t4a_canonical_formINtNtCskzPJi2J8k3N_4core7convert4FromNtNtCsaogGgQeyHx_17tensor4all_treetn9algorithm13CanonicalFormE4from
FNDA:0,_RNvMs4_NtCslD6BJj2Z6b5_15tensor4all_capi5typesNtB5_10t4a_tensor9inner_mut
FNDA:0,_RNvXsg_NtCslD6BJj2Z6b5_15tensor4all_capi5typesNtB5_23t4a_factorize_algorithmINtNtCskzPJi2J8k3N_4core7convert4FromNtNtCsbrO2ourfQV3_15tensor4all_core11tensor_like12FactorizeAlgE4from
FNDA:0,_RNvXsh_NtCslD6BJj2Z6b5_15tensor4all_capi5typesNtNtCsbrO2ourfQV3_15tensor4all_core11tensor_like12FactorizeAlgINtNtCskzPJi2J8k3N_4core7convert4FromNtB5_23t4a_factorize_algorithmE4from
FNDA:0,_RNvXsi_NtCslD6BJj2Z6b5_15tensor4all_capi5typesNtB5_19t4a_contract_methodINtNtCskzPJi2J8k3N_4core7convert4FromNtNtCsaRfSWFUMrL5_22tensor4all_itensorlike7options14ContractMethodE4from
FNDA:1,_RNvXsj_NtCslD6BJj2Z6b5_15tensor4all_capi5typesNtNtCsaRfSWFUMrL5_22tensor4all_itensorlike7options14ContractMethodINtNtCskzPJi2J8k3N_4core7convert4FromNtB5_19t4a_contract_methodE4from
FNF:22
FNH:14
DA:28,21
DA:29,21
DA:30,21
DA:31,21
DA:32,21
DA:35,30
DA:36,30
DA:37,30
DA:40,0
DA:41,0
DA:42,0
DA:46,3
DA:47,3
DA:48,3
DA:49,3
DA:53,21
DA:55,21
DA:56,21
DA:57,21
DA:59,21
DA:84,2
DA:85,2
DA:86,1
DA:87,1
DA:88,0
DA:89,0
DA:91,2
DA:106,8
DA:107,8
DA:108,8
DA:109,8
DA:110,8
DA:113,13
DA:114,13
DA:115,13
DA:119,0
DA:120,0
DA:121,0
DA:125,1
DA:126,1
DA:127,1
DA:128,1
DA:132,8
DA:134,8
DA:135,8
DA:136,8
DA:138,8
DA:164,6
DA:165,6
DA:166,6
DA:167,6
DA:168,6
DA:171,7
DA:172,7
DA:173,7
DA:176,0
DA:177,0
DA:178,0
DA:182,1
DA:183,1
DA:184,1
DA:185,1
DA:189,6
DA:191,6
DA:192,6
DA:193,6
DA:195,6
DA:217,0
DA:218,0
DA:219,0
DA:220,0
DA:221,0
DA:223,0
DA:227,0
DA:228,0
DA:229,0
DA:230,0
DA:231,0
DA:233,0
DA:260,0
DA:261,0
DA:262,0
DA:263,0
DA:264,0
DA:265,0
DA:267,0
DA:271,0
DA:272,0
DA:273,0
DA:274,0
DA:275,0
DA:276,0
DA:278,0
DA:334,0
DA:335,0
DA:336,0
DA:337,0
DA:338,0
DA:340,0
DA:344,1
DA:345,1
DA:346,1
DA:347,0
DA:348,0
DA:350,1
BRF:0
BRH:0
LF:105
LH:60
end_of_record
SF:/Users/ken/git_for_collab4/tensor4all-rs/crates/tensor4all-core/src/defaults/contract.rs
FN:280,_RNvMNtNtCsbrO2ourfQV3_15tensor4all_core8defaults8contractNtB2_20RemappedAllowedPairs6as_ref
FN:294,_RNvNtNtCsbrO2ourfQV3_15tensor4all_core8defaults8contract13contract_pair
FN:57,_RNvNtNtCsbrO2ourfQV3_15tensor4all_core8defaults8contract14contract_multi
FN:437,_RNvNtNtCsbrO2ourfQV3_15tensor4all_core8defaults8contract18build_internal_ids
FN:136,_RNvNtNtCsbrO2ourfQV3_15tensor4all_core8defaults8contract18contract_connected
FN:246,_RNvNtNtCsbrO2ourfQV3_15tensor4all_core8defaults8contract19remap_allowed_pairs
FN:588,_RNvNtNtCsbrO2ourfQV3_15tensor4all_core8defaults8contract24execute_contraction_tree
FN:152,_RNvNtNtCsbrO2ourfQV3_15tensor4all_core8defaults8contract24has_contractable_indices
FN:531,_RNvNtNtCsbrO2ourfQV3_15tensor4all_core8defaults8contract24validate_connected_graph
FN:317,_RNvNtNtCsbrO2ourfQV3_15tensor4all_core8defaults8contract28contract_connected_optimized
FN:169,_RNvNtNtCsbrO2ourfQV3_15tensor4all_core8defaults8contract32find_tensor_connected_components
FN:301,_RNCNCNvNtNtCsbrO2ourfQV3_15tensor4all_core8defaults8contract13contract_pair00B9_
FN:302,_RNCNCNvNtNtCsbrO2ourfQV3_15tensor4all_core8defaults8contract13contract_pair0s_0B9_
FN:520,_RNCNCNvNtNtCsbrO2ourfQV3_15tensor4all_core8defaults8contract18build_internal_idss_00B9_
FN:155,_RNCNCNvNtNtCsbrO2ourfQV3_15tensor4all_core8defaults8contract24has_contractable_indices00B9_
FN:390,_RNCNCNvNtNtCsbrO2ourfQV3_15tensor4all_core8defaults8contract28contract_connected_optimizeds1_00B9_
FN:298,_RNCNvNtNtCsbrO2ourfQV3_15tensor4all_core8defaults8contract13contract_pair0B7_
FN:86,_RNCNvNtNtCsbrO2ourfQV3_15tensor4all_core8defaults8contract14contract_multi0B7_
FN:449,_RNCNvNtNtCsbrO2ourfQV3_15tensor4all_core8defaults8contract18build_internal_ids0B7_
FN:518,_RNCNvNtNtCsbrO2ourfQV3_15tensor4all_core8defaults8contract18build_internal_idss_0B7_
FN:254,_RNCNvNtNtCsbrO2ourfQV3_15tensor4all_core8defaults8contract19remap_allowed_pairs0B7_
FN:260,_RNCNvNtNtCsbrO2ourfQV3_15tensor4all_core8defaults8contract19remap_allowed_pairss_0B7_
FN:598,_RNCNvNtNtCsbrO2ourfQV3_15tensor4all_core8defaults8contract24execute_contraction_tree0B7_
FN:155,_RNCNvNtNtCsbrO2ourfQV3_15tensor4all_core8defaults8contract24has_contractable_indices0B7_
FN:351,_RNCNvNtNtCsbrO2ourfQV3_15tensor4all_core8defaults8contract28contract_connected_optimized0B7_
FN:368,_RNCNvNtNtCsbrO2ourfQV3_15tensor4all_core8defaults8contract28contract_connected_optimizeds0_0B7_
FN:386,_RNCNvNtNtCsbrO2ourfQV3_15tensor4all_core8defaults8contract28contract_connected_optimizeds1_0B7_
FN:407,_RNCNvNtNtCsbrO2ourfQV3_15tensor4all_core8defaults8contract28contract_connected_optimizeds2_0B7_
FN:183,_RNCNvNtNtCsbrO2ourfQV3_15tensor4all_core8defaults8contract32find_tensor_connected_components0B7_
FN:238,_RNCNvNtNtCsbrO2ourfQV3_15tensor4all_core8defaults8contract32find_tensor_connected_componentss_0B7_
FNDA:6,_RNvMNtNtCsbrO2ourfQV3_15tensor4all_core8defaults8contractNtB2_20RemappedAllowedPairs6as_ref
FNDA:17,_RNvNtNtCsbrO2ourfQV3_15tensor4all_core8defaults8contract13contract_pair
FNDA:20,_RNvNtNtCsbrO2ourfQV3_15tensor4all_core8defaults8contract14contract_multi
FNDA:17,_RNvNtNtCsbrO2ourfQV3_15tensor4all_core8defaults8contract18build_internal_ids
FNDA:23,_RNvNtNtCsbrO2ourfQV3_15tensor4all_core8defaults8contract18contract_connected
FNDA:6,_RNvNtNtCsbrO2ourfQV3_15tensor4all_core8defaults8contract19remap_allowed_pairs
FNDA:51,_RNvNtNtCsbrO2ourfQV3_15tensor4all_core8defaults8contract24execute_contraction_tree
FNDA:20,_RNvNtNtCsbrO2ourfQV3_15tensor4all_core8defaults8contract24has_contractable_indices
FNDA:0,_RNvNtNtCsbrO2ourfQV3_15tensor4all_core8defaults8contract24validate_connected_graph
FNDA:17,_RNvNtNtCsbrO2ourfQV3_15tensor4all_core8defaults8contract28contract_connected_optimized
FNDA:20,_RNvNtNtCsbrO2ourfQV3_15tensor4all_core8defaults8contract32find_tensor_connected_components
FNDA:83,_RNCNCNvNtNtCsbrO2ourfQV3_15tensor4all_core8defaults8contract13contract_pair00B9_
FNDA:17,_RNCNCNvNtNtCsbrO2ourfQV3_15tensor4all_core8defaults8contract13contract_pair0s_0B9_
FNDA:75,_RNCNCNvNtNtCsbrO2ourfQV3_15tensor4all_core8defaults8contract18build_internal_idss_00B9_
FNDA:67,_RNCNCNvNtNtCsbrO2ourfQV3_15tensor4all_core8defaults8contract24has_contractable_indices00B9_
FNDA:75,_RNCNCNvNtNtCsbrO2ourfQV3_15tensor4all_core8defaults8contract28contract_connected_optimizeds1_00B9_
FNDA:40,_RNCNvNtNtCsbrO2ourfQV3_15tensor4all_core8defaults8contract13contract_pair0B7_
FNDA:6,_RNCNvNtNtCsbrO2ourfQV3_15tensor4all_core8defaults8contract14contract_multi0B7_
FNDA:17,_RNCNvNtNtCsbrO2ourfQV3_15tensor4all_core8defaults8contract18build_internal_ids0B7_
FNDA:34,_RNCNvNtNtCsbrO2ourfQV3_15tensor4all_core8defaults8contract18build_internal_idss_0B7_
FNDA:0,_RNCNvNtNtCsbrO2ourfQV3_15tensor4all_core8defaults8contract19remap_allowed_pairs0B7_
FNDA:0,_RNCNvNtNtCsbrO2ourfQV3_15tensor4all_core8defaults8contract19remap_allowed_pairss_0B7_
FNDA:34,_RNCNvNtNtCsbrO2ourfQV3_15tensor4all_core8defaults8contract24execute_contraction_tree0B7_
FNDA:34,_RNCNvNtNtCsbrO2ourfQV3_15tensor4all_core8defaults8contract24has_contractable_indices0B7_
FNDA:58,_RNCNvNtNtCsbrO2ourfQV3_15tensor4all_core8defaults8contract28contract_connected_optimized0B7_
FNDA:0,_RNCNvNtNtCsbrO2ourfQV3_15tensor4all_core8defaults8contract28contract_connected_optimizeds0_0B7_
FNDA:34,_RNCNvNtNtCsbrO2ourfQV3_15tensor4all_core8defaults8contract28contract_connected_optimizeds1_0B7_
FNDA:41,_RNCNvNtNtCsbrO2ourfQV3_15tensor4all_core8defaults8contract28contract_connected_optimizeds2_0B7_
FNDA:40,_RNCNvNtNtCsbrO2ourfQV3_15tensor4all_core8defaults8contract32find_tensor_connected_components0B7_
FNDA:6,_RNCNvNtNtCsbrO2ourfQV3_15tensor4all_core8defaults8contract32find_tensor_connected_componentss_0B7_
FNF:30
FNH:26
DA:57,20
DA:58,20
DA:59,0
DA:60,0
DA:63,20
DA:64,0
DA:65,0
DA:66,0
DA:67,0
DA:68,0
DA:69,0
DA:70,0
DA:71,0
DA:73,20
DA:76,20
DA:78,20
DA:80,17
DA:83,3
DA:84,9
DA:85,6
DA:86,6
DA:89,6
DA:90,6
DA:91,6
DA:92,6
DA:96,3
DA:97,3
DA:98,3
DA:100,3
DA:104,20
DA:136,23
DA:137,23
DA:138,23
DA:139,23
DA:140,23
DA:141,0
DA:142,6
DA:143,17
DA:145,23
DA:152,20
DA:153,20
DA:154,20
DA:155,67
DA:156,20
DA:169,20
DA:170,20
DA:171,20
DA:172,20
DA:173,20
DA:174,20
DA:175,0
DA:176,20
DA:177,20
DA:178,0
DA:179,20
DA:182,20
DA:183,40
DA:186,20
DA:189,40
DA:190,40
DA:191,20
DA:192,17
DA:193,17
DA:197,0
DA:199,0
DA:200,0
DA:201,0
DA:202,0
DA:208,20
DA:210,20
DA:212,17
DA:213,3
DA:218,3
DA:219,3
DA:221,6
DA:222,6
DA:223,6
DA:224,6
DA:225,12
DA:226,6
DA:227,6
DA:228,6
DA:229,6
DA:230,6
DA:232,6
DA:233,6
DA:234,0
DA:238,6
DA:239,3
DA:240,20
DA:246,6
DA:247,6
DA:248,6
DA:249,0
DA:251,0
DA:252,0
DA:253,0
DA:254,0
DA:255,0
DA:258,0
DA:259,0
DA:260,0
DA:261,0
DA:262,0
DA:263,0
DA:265,0
DA:266,0
DA:268,0
DA:271,6
DA:280,6
DA:281,6
DA:282,6
DA:283,0
DA:285,6
DA:294,17
DA:295,17
DA:296,17
DA:297,17
DA:298,40
DA:299,40
DA:300,40
DA:301,83
DA:302,40
DA:303,40
DA:304,17
DA:306,17
DA:308,0
DA:310,17
DA:312,17
DA:317,17
DA:318,17
DA:319,17
DA:320,17
DA:322,17
DA:324,0
DA:325,0
DA:326,0
DA:327,0
DA:328,0
DA:329,0
DA:330,0
DA:331,0
DA:334,0
DA:335,17
DA:340,17
DA:343,17
DA:344,51
DA:345,109
DA:346,75
DA:347,75
DA:349,17
DA:350,17
DA:351,58
DA:352,17
DA:353,17
DA:354,17
DA:357,17
DA:358,34
DA:359,75
DA:360,75
DA:361,75
DA:362,75
DA:366,17
DA:367,17
DA:368,17
DA:372,17
DA:373,0
DA:374,0
DA:375,0
DA:376,0
DA:377,0
DA:378,0
DA:379,17
DA:383,17
DA:384,17
DA:385,17
DA:386,34
DA:387,34
DA:388,34
DA:389,34
DA:390,75
DA:392,75
DA:393,75
DA:394,34
DA:395,34
DA:396,34
DA:397,17
DA:400,17
DA:404,17
DA:405,17
DA:406,17
DA:407,41
DA:409,41
DA:410,41
DA:411,41
DA:412,41
DA:413,17
DA:415,17
DA:416,17
DA:417,17
DA:418,17
DA:419,17
DA:420,17
DA:437,17
DA:438,17
DA:439,17
DA:440,17
DA:441,17
DA:443,17
DA:445,17
DA:449,17
DA:450,40
DA:451,83
DA:452,83
DA:453,17
DA:454,17
DA:455,17
DA:456,17
DA:457,17
DA:458,17
DA:459,17
DA:460,17
DA:461,17
DA:462,17
DA:463,0
DA:464,0
DA:465,0
DA:466,0
DA:467,0
DA:468,0
DA:469,0
DA:470,0
DA:471,0
DA:474,0
DA:476,0
DA:480,66
DA:483,17
DA:485,17
DA:488,34
DA:489,34
DA:490,17
DA:491,17
DA:494,0
DA:496,0
DA:497,0
DA:498,0
DA:503,34
DA:504,75
DA:505,75
DA:506,75
DA:507,41
DA:508,41
DA:509,41
DA:510,41
DA:515,17
DA:516,17
DA:517,17
DA:518,34
DA:519,34
DA:520,75
DA:521,34
DA:522,34
DA:523,17
DA:525,17
DA:526,17
DA:531,0
DA:532,0
DA:533,0
DA:534,0
DA:535,0
DA:536,0
DA:537,0
DA:538,0
DA:539,0
DA:540,0
DA:541,0
DA:542,0
DA:545,0
DA:546,0
DA:547,0
DA:548,0
DA:549,0
DA:550,0
DA:551,0
DA:552,0
DA:553,0
DA:554,0
DA:555,0
DA:556,0
DA:560,0
DA:561,0
DA:562,0
DA:563,0
DA:564,0
DA:566,0
DA:567,0
DA:568,0
DA:569,0
DA:570,0
DA:571,0
DA:572,0
DA:576,0
DA:577,0
DA:578,0
DA:579,0
DA:580,0
DA:581,0
DA:582,0
DA:584,0
DA:585,0
DA:588,51
DA:589,51
DA:590,51
DA:591,51
DA:592,51
DA:593,34
DA:594,17
DA:596,17
DA:597,17
DA:598,34
DA:599,17
DA:602,17
DA:603,17
DA:604,17
DA:606,17
DA:609,51
BRF:0
BRH:0
LF:345
LH:231
end_of_record
SF:/Users/ken/git_for_collab4/tensor4all-rs/crates/tensor4all-core/src/defaults/direct_sum.rs
FN:45,_RNvNtNtCsbrO2ourfQV3_15tensor4all_core8defaults10direct_sum10direct_sum
FN:299,_RNvNtNtCsbrO2ourfQV3_15tensor4all_core8defaults10direct_sum14direct_sum_c64
FN:237,_RNvNtNtCsbrO2ourfQV3_15tensor4all_core8defaults10direct_sum14direct_sum_f64
FN:223,_RNvNtNtCsbrO2ourfQV3_15tensor4all_core8defaults10direct_sum15linear_to_multi
FN:233,_RNvNtNtCsbrO2ourfQV3_15tensor4all_core8defaults10direct_sum15multi_to_linear
FN:79,_RNvNtNtCsbrO2ourfQV3_15tensor4all_core8defaults10direct_sum16setup_direct_sum
FN:326,_RNCNvNtNtCsbrO2ourfQV3_15tensor4all_core8defaults10direct_sum14direct_sum_c640B7_
FN:330,_RNCNvNtNtCsbrO2ourfQV3_15tensor4all_core8defaults10direct_sum14direct_sum_c64s_0B7_
FN:264,_RNCNvNtNtCsbrO2ourfQV3_15tensor4all_core8defaults10direct_sum14direct_sum_f640B7_
FN:268,_RNCNvNtNtCsbrO2ourfQV3_15tensor4all_core8defaults10direct_sum14direct_sum_f64s_0B7_
FN:234,_RNCNvNtNtCsbrO2ourfQV3_15tensor4all_core8defaults10direct_sum15multi_to_linear0B7_
FN:98,_RNCNvNtNtCsbrO2ourfQV3_15tensor4all_core8defaults10direct_sum16setup_direct_sum0B7_
FN:152,_RNCNvNtNtCsbrO2ourfQV3_15tensor4all_core8defaults10direct_sum16setup_direct_sums0_0B7_
FN:156,_RNCNvNtNtCsbrO2ourfQV3_15tensor4all_core8defaults10direct_sum16setup_direct_sums1_0B7_
FN:158,_RNCNvNtNtCsbrO2ourfQV3_15tensor4all_core8defaults10direct_sum16setup_direct_sums2_0B7_
FN:159,_RNCNvNtNtCsbrO2ourfQV3_15tensor4all_core8defaults10direct_sum16setup_direct_sums3_0B7_
FN:166,_RNCNvNtNtCsbrO2ourfQV3_15tensor4all_core8defaults10direct_sum16setup_direct_sums4_0B7_
FN:104,_RNCNvNtNtCsbrO2ourfQV3_15tensor4all_core8defaults10direct_sum16setup_direct_sums_0B7_
FNDA:0,_RNvNtNtCsbrO2ourfQV3_15tensor4all_core8defaults10direct_sum10direct_sum
FNDA:0,_RNvNtNtCsbrO2ourfQV3_15tensor4all_core8defaults10direct_sum14direct_sum_c64
FNDA:0,_RNvNtNtCsbrO2ourfQV3_15tensor4all_core8defaults10direct_sum14direct_sum_f64
FNDA:0,_RNvNtNtCsbrO2ourfQV3_15tensor4all_core8defaults10direct_sum15linear_to_multi
FNDA:0,_RNvNtNtCsbrO2ourfQV3_15tensor4all_core8defaults10direct_sum15multi_to_linear
FNDA:0,_RNvNtNtCsbrO2ourfQV3_15tensor4all_core8defaults10direct_sum16setup_direct_sum
FNDA:0,_RNCNvNtNtCsbrO2ourfQV3_15tensor4all_core8defaults10direct_sum14direct_sum_c640B7_
FNDA:0,_RNCNvNtNtCsbrO2ourfQV3_15tensor4all_core8defaults10direct_sum14direct_sum_c64s_0B7_
FNDA:0,_RNCNvNtNtCsbrO2ourfQV3_15tensor4all_core8defaults10direct_sum14direct_sum_f640B7_
FNDA:0,_RNCNvNtNtCsbrO2ourfQV3_15tensor4all_core8defaults10direct_sum14direct_sum_f64s_0B7_
FNDA:0,_RNCNvNtNtCsbrO2ourfQV3_15tensor4all_core8defaults10direct_sum15multi_to_linear0B7_
FNDA:0,_RNCNvNtNtCsbrO2ourfQV3_15tensor4all_core8defaults10direct_sum16setup_direct_sum0B7_
FNDA:0,_RNCNvNtNtCsbrO2ourfQV3_15tensor4all_core8defaults10direct_sum16setup_direct_sums0_0B7_
FNDA:0,_RNCNvNtNtCsbrO2ourfQV3_15tensor4all_core8defaults10direct_sum16setup_direct_sums1_0B7_
FNDA:0,_RNCNvNtNtCsbrO2ourfQV3_15tensor4all_core8defaults10direct_sum16setup_direct_sums2_0B7_
FNDA:0,_RNCNvNtNtCsbrO2ourfQV3_15tensor4all_core8defaults10direct_sum16setup_direct_sums3_0B7_
FNDA:0,_RNCNvNtNtCsbrO2ourfQV3_15tensor4all_core8defaults10direct_sum16setup_direct_sums4_0B7_
FNDA:0,_RNCNvNtNtCsbrO2ourfQV3_15tensor4all_core8defaults10direct_sum16setup_direct_sums_0B7_
FNF:18
FNH:0
DA:45,0
DA:46,0
DA:47,0
DA:48,0
DA:49,0
DA:51,0
DA:52,0
DA:53,0
DA:54,0
DA:55,0
DA:56,0
DA:58,0
DA:79,0
DA:80,0
DA:81,0
DA:82,0
DA:83,0
DA:87,0
DA:88,0
DA:89,0
DA:90,0
DA:91,0
DA:94,0
DA:95,0
DA:96,0
DA:97,0
DA:98,0
DA:99,0
DA:100,0
DA:101,0
DA:102,0
DA:103,0
DA:104,0
DA:105,0
DA:108,0
DA:109,0
DA:111,0
DA:112,0
DA:113,0
DA:114,0
DA:115,0
DA:116,0
DA:117,0
DA:118,0
DA:119,0
DA:120,0
DA:121,0
DA:122,0
DA:123,0
DA:127,0
DA:128,0
DA:129,0
DA:130,0
DA:131,0
DA:132,0
DA:133,0
DA:134,0
DA:135,0
DA:136,0
DA:137,0
DA:138,0
DA:139,0
DA:140,0
DA:141,0
DA:142,0
DA:143,0
DA:144,0
DA:145,0
DA:146,0
DA:150,0
DA:151,0
DA:152,0
DA:153,0
DA:154,0
DA:155,0
DA:156,0
DA:157,0
DA:158,0
DA:159,0
DA:162,0
DA:163,0
DA:164,0
DA:165,0
DA:166,0
DA:167,0
DA:171,0
DA:172,0
DA:175,0
DA:176,0
DA:177,0
DA:178,0
DA:181,0
DA:182,0
DA:183,0
DA:184,0
DA:187,0
DA:188,0
DA:189,0
DA:190,0
DA:191,0
DA:193,0
DA:194,0
DA:195,0
DA:196,0
DA:198,0
DA:199,0
DA:200,0
DA:201,0
DA:203,0
DA:205,0
DA:206,0
DA:207,0
DA:208,0
DA:209,0
DA:210,0
DA:211,0
DA:212,0
DA:213,0
DA:214,0
DA:215,0
DA:216,0
DA:217,0
DA:218,0
DA:219,0
DA:220,0
DA:221,0
DA:223,0
DA:224,0
DA:225,0
DA:226,0
DA:227,0
DA:228,0
DA:229,0
DA:230,0
DA:231,0
DA:233,0
DA:234,0
DA:235,0
DA:237,0
DA:238,0
DA:239,0
DA:240,0
DA:241,0
DA:242,0
DA:244,0
DA:245,0
DA:246,0
DA:248,0
DA:249,0
DA:250,0
DA:253,0
DA:256,0
DA:257,0
DA:258,0
DA:259,0
DA:261,0
DA:262,0
DA:263,0
DA:264,0
DA:265,0
DA:266,0
DA:267,0
DA:268,0
DA:270,0
DA:271,0
DA:272,0
DA:273,0
DA:274,0
DA:275,0
DA:276,0
DA:277,0
DA:278,0
DA:279,0
DA:280,0
DA:281,0
DA:282,0
DA:283,0
DA:284,0
DA:285,0
DA:286,0
DA:287,0
DA:288,0
DA:289,0
DA:290,0
DA:294,0
DA:295,0
DA:296,0
DA:297,0
DA:299,0
DA:300,0
DA:301,0
DA:302,0
DA:303,0
DA:304,0
DA:306,0
DA:307,0
DA:308,0
DA:310,0
DA:311,0
DA:312,0
DA:315,0
DA:318,0
DA:319,0
DA:320,0
DA:321,0
DA:323,0
DA:324,0
DA:325,0
DA:326,0
DA:327,0
DA:328,0
DA:329,0
DA:330,0
DA:332,0
DA:333,0
DA:334,0
DA:335,0
DA:336,0
DA:337,0
DA:338,0
DA:339,0
DA:340,0
DA:341,0
DA:342,0
DA:343,0
DA:344,0
DA:345,0
DA:346,0
DA:347,0
DA:348,0
DA:349,0
DA:350,0
DA:351,0
DA:352,0
DA:356,0
DA:357,0
DA:358,0
DA:359,0
BRF:0
BRH:0
LF:250
LH:0
end_of_record
SF:/Users/ken/git_for_collab4/tensor4all-rs/crates/tensor4all-core/src/defaults/factorize.rs
FN:338,_RNvNtNtCsbrO2ourfQV3_15tensor4all_core8defaults9factorize23extract_singular_values
FN:60,_RNvNtNtCsbrO2ourfQV3_15tensor4all_core8defaults9factorize9factorize
FN:272,_RINvNtNtCsbrO2ourfQV3_15tensor4all_core8defaults9factorize12factorize_ciINtCsggbFOsTKhzv_11num_complex7ComplexdEEB6_
FN:272,_RINvNtNtCsbrO2ourfQV3_15tensor4all_core8defaults9factorize12factorize_cidEB6_
FN:206,_RINvNtNtCsbrO2ourfQV3_15tensor4all_core8defaults9factorize12factorize_luINtCsggbFOsTKhzv_11num_complex7ComplexdEEB6_
FN:206,_RINvNtNtCsbrO2ourfQV3_15tensor4all_core8defaults9factorize12factorize_ludEB6_
FN:164,_RINvNtNtCsbrO2ourfQV3_15tensor4all_core8defaults9factorize12factorize_qrINtCsggbFOsTKhzv_11num_complex7ComplexdEEB6_
FN:164,_RINvNtNtCsbrO2ourfQV3_15tensor4all_core8defaults9factorize12factorize_qrdEB6_
FN:99,_RINvNtNtCsbrO2ourfQV3_15tensor4all_core8defaults9factorize13factorize_svdINtCsggbFOsTKhzv_11num_complex7ComplexdEEB6_
FN:99,_RINvNtNtCsbrO2ourfQV3_15tensor4all_core8defaults9factorize13factorize_svddEB6_
FN:376,_RINvNtNtCsbrO2ourfQV3_15tensor4all_core8defaults9factorize13matrix_to_vecINtCsggbFOsTKhzv_11num_complex7ComplexdEEB6_
FN:376,_RINvNtNtCsbrO2ourfQV3_15tensor4all_core8defaults9factorize13matrix_to_vecdEB6_
FN:76,_RINvNtNtCsbrO2ourfQV3_15tensor4all_core8defaults9factorize14factorize_implINtCsggbFOsTKhzv_11num_complex7ComplexdEEB6_
FN:76,_RINvNtNtCsbrO2ourfQV3_15tensor4all_core8defaults9factorize14factorize_impldEB6_
FN:358,_RINvNtNtCsbrO2ourfQV3_15tensor4all_core8defaults9factorize17dtensor_to_matrixINtCsggbFOsTKhzv_11num_complex7ComplexdEEB6_
FN:358,_RINvNtNtCsbrO2ourfQV3_15tensor4all_core8defaults9factorize17dtensor_to_matrixdEB6_
FN:288,_RNCINvNtNtCsbrO2ourfQV3_15tensor4all_core8defaults9factorize12factorize_ciINtCsggbFOsTKhzv_11num_complex7ComplexdEE0B8_
FN:312,_RNCINvNtNtCsbrO2ourfQV3_15tensor4all_core8defaults9factorize12factorize_ciINtCsggbFOsTKhzv_11num_complex7ComplexdEEs_0B8_
FN:288,_RNCINvNtNtCsbrO2ourfQV3_15tensor4all_core8defaults9factorize12factorize_cidE0B8_
FN:312,_RNCINvNtNtCsbrO2ourfQV3_15tensor4all_core8defaults9factorize12factorize_cidEs_0B8_
FN:222,_RNCINvNtNtCsbrO2ourfQV3_15tensor4all_core8defaults9factorize12factorize_luINtCsggbFOsTKhzv_11num_complex7ComplexdEE0B8_
FN:246,_RNCINvNtNtCsbrO2ourfQV3_15tensor4all_core8defaults9factorize12factorize_luINtCsggbFOsTKhzv_11num_complex7ComplexdEEs_0B8_
FN:222,_RNCINvNtNtCsbrO2ourfQV3_15tensor4all_core8defaults9factorize12factorize_ludE0B8_
FN:246,_RNCINvNtNtCsbrO2ourfQV3_15tensor4all_core8defaults9factorize12factorize_ludEs_0B8_
FN:352,_RNCNvNtNtCsbrO2ourfQV3_15tensor4all_core8defaults9factorize23extract_singular_valuess0_0B7_
FN:348,_RNCNvNtNtCsbrO2ourfQV3_15tensor4all_core8defaults9factorize23extract_singular_valuess_0B7_
FNDA:4,_RNvNtNtCsbrO2ourfQV3_15tensor4all_core8defaults9factorize23extract_singular_values
FNDA:16,_RNvNtNtCsbrO2ourfQV3_15tensor4all_core8defaults9factorize9factorize
FNDA:0,_RINvNtNtCsbrO2ourfQV3_15tensor4all_core8defaults9factorize12factorize_ciINtCsggbFOsTKhzv_11num_complex7ComplexdEEB6_
FNDA:1,_RINvNtNtCsbrO2ourfQV3_15tensor4all_core8defaults9factorize12factorize_cidEB6_
FNDA:0,_RINvNtNtCsbrO2ourfQV3_15tensor4all_core8defaults9factorize12factorize_luINtCsggbFOsTKhzv_11num_complex7ComplexdEEB6_
FNDA:1,_RINvNtNtCsbrO2ourfQV3_15tensor4all_core8defaults9factorize12factorize_ludEB6_
FNDA:0,_RINvNtNtCsbrO2ourfQV3_15tensor4all_core8defaults9factorize12factorize_qrINtCsggbFOsTKhzv_11num_complex7ComplexdEEB6_
FNDA:10,_RINvNtNtCsbrO2ourfQV3_15tensor4all_core8defaults9factorize12factorize_qrdEB6_
FNDA:0,_RINvNtNtCsbrO2ourfQV3_15tensor4all_core8defaults9factorize13factorize_svdINtCsggbFOsTKhzv_11num_complex7ComplexdEEB6_
FNDA:4,_RINvNtNtCsbrO2ourfQV3_15tensor4all_core8defaults9factorize13factorize_svddEB6_
FNDA:0,_RINvNtNtCsbrO2ourfQV3_15tensor4all_core8defaults9factorize13matrix_to_vecINtCsggbFOsTKhzv_11num_complex7ComplexdEEB6_
FNDA:4,_RINvNtNtCsbrO2ourfQV3_15tensor4all_core8defaults9factorize13matrix_to_vecdEB6_
FNDA:0,_RINvNtNtCsbrO2ourfQV3_15tensor4all_core8defaults9factorize14factorize_implINtCsggbFOsTKhzv_11num_complex7ComplexdEEB6_
FNDA:16,_RINvNtNtCsbrO2ourfQV3_15tensor4all_core8defaults9factorize14factorize_impldEB6_
FNDA:0,_RINvNtNtCsbrO2ourfQV3_15tensor4all_core8defaults9factorize17dtensor_to_matrixINtCsggbFOsTKhzv_11num_complex7ComplexdEEB6_
FNDA:2,_RINvNtNtCsbrO2ourfQV3_15tensor4all_core8defaults9factorize17dtensor_to_matrixdEB6_
FNDA:0,_RNCINvNtNtCsbrO2ourfQV3_15tensor4all_core8defaults9factorize12factorize_ciINtCsggbFOsTKhzv_11num_complex7ComplexdEE0B8_
FNDA:0,_RNCINvNtNtCsbrO2ourfQV3_15tensor4all_core8defaults9factorize12factorize_ciINtCsggbFOsTKhzv_11num_complex7ComplexdEEs_0B8_
FNDA:0,_RNCINvNtNtCsbrO2ourfQV3_15tensor4all_core8defaults9factorize12factorize_cidE0B8_
FNDA:0,_RNCINvNtNtCsbrO2ourfQV3_15tensor4all_core8defaults9factorize12factorize_cidEs_0B8_
FNDA:0,_RNCINvNtNtCsbrO2ourfQV3_15tensor4all_core8defaults9factorize12factorize_luINtCsggbFOsTKhzv_11num_complex7ComplexdEE0B8_
FNDA:0,_RNCINvNtNtCsbrO2ourfQV3_15tensor4all_core8defaults9factorize12factorize_luINtCsggbFOsTKhzv_11num_complex7ComplexdEEs_0B8_
FNDA:0,_RNCINvNtNtCsbrO2ourfQV3_15tensor4all_core8defaults9factorize12factorize_ludE0B8_
FNDA:0,_RNCINvNtNtCsbrO2ourfQV3_15tensor4all_core8defaults9factorize12factorize_ludEs_0B8_
FNDA:0,_RNCNvNtNtCsbrO2ourfQV3_15tensor4all_core8defaults9factorize23extract_singular_valuess0_0B7_
FNDA:0,_RNCNvNtNtCsbrO2ourfQV3_15tensor4all_core8defaults9factorize23extract_singular_valuess_0B7_
FNF:15
FNH:9
DA:60,16
DA:61,16
DA:62,16
DA:63,16
DA:64,16
DA:66,16
DA:67,16
DA:68,0
DA:69,0
DA:70,0
DA:71,0
DA:73,16
DA:76,16
DA:77,16
DA:78,16
DA:79,16
DA:80,16
DA:81,16
DA:82,16
DA:83,16
DA:84,16
DA:85,16
DA:86,16
DA:87,16
DA:88,16
DA:90,16
DA:91,4
DA:92,10
DA:93,1
DA:94,1
DA:96,16
DA:99,4
DA:100,4
DA:101,4
DA:102,4
DA:103,4
DA:104,4
DA:105,4
DA:106,4
DA:107,4
DA:108,4
DA:109,4
DA:110,4
DA:111,4
DA:113,4
DA:114,4
DA:115,0
DA:116,4
DA:117,4
DA:118,4
DA:119,4
DA:121,4
DA:124,4
DA:125,4
DA:132,4
DA:133,4
DA:135,4
DA:138,4
DA:139,4
DA:140,4
DA:141,4
DA:142,4
DA:143,4
DA:144,4
DA:145,4
DA:146,4
DA:150,0
DA:151,0
DA:152,0
DA:153,0
DA:154,0
DA:155,0
DA:156,0
DA:157,0
DA:158,0
DA:161,4
DA:164,10
DA:165,10
DA:166,10
DA:167,10
DA:168,10
DA:169,10
DA:170,10
DA:171,10
DA:172,10
DA:173,10
DA:174,10
DA:175,10
DA:176,10
DA:178,10
DA:179,0
DA:180,0
DA:181,0
DA:182,10
DA:184,10
DA:185,10
DA:186,0
DA:187,10
DA:189,10
DA:192,10
DA:194,10
DA:196,10
DA:197,10
DA:198,10
DA:199,10
DA:200,10
DA:201,10
DA:202,10
DA:203,10
DA:206,1
DA:207,1
DA:208,1
DA:209,1
DA:210,1
DA:211,1
DA:212,1
DA:213,1
DA:214,1
DA:215,1
DA:216,1
DA:217,1
DA:218,1
DA:221,1
DA:222,1
DA:225,1
DA:228,1
DA:229,1
DA:230,1
DA:231,1
DA:232,1
DA:233,1
DA:234,1
DA:237,1
DA:238,1
DA:241,1
DA:242,1
DA:245,1
DA:246,1
DA:249,1
DA:250,1
DA:251,1
DA:252,1
DA:253,1
DA:256,1
DA:257,1
DA:258,1
DA:259,1
DA:260,1
DA:262,1
DA:263,1
DA:264,1
DA:265,1
DA:266,1
DA:267,1
DA:268,1
DA:269,1
DA:272,1
DA:273,1
DA:274,1
DA:275,1
DA:276,1
DA:277,1
DA:278,1
DA:279,1
DA:280,1
DA:281,1
DA:282,1
DA:283,1
DA:284,1
DA:287,1
DA:288,1
DA:291,1
DA:294,1
DA:295,1
DA:296,1
DA:297,1
DA:298,1
DA:299,1
DA:300,1
DA:303,1
DA:304,1
DA:307,1
DA:308,1
DA:311,1
DA:312,1
DA:315,1
DA:316,1
DA:317,1
DA:318,1
DA:319,1
DA:322,1
DA:323,1
DA:324,1
DA:325,1
DA:326,1
DA:328,1
DA:329,1
DA:330,1
DA:331,1
DA:332,1
DA:333,1
DA:334,1
DA:335,1
DA:338,4
DA:339,4
DA:340,4
DA:341,0
DA:343,0
DA:345,0
DA:347,0
DA:348,0
DA:350,0
DA:351,0
DA:352,0
DA:355,4
DA:358,2
DA:359,2
DA:360,2
DA:361,2
DA:362,2
DA:363,2
DA:364,2
DA:366,2
DA:367,4
DA:368,12
DA:369,12
DA:370,12
DA:372,2
DA:373,2
DA:376,4
DA:377,4
DA:378,4
DA:380,4
DA:381,4
DA:382,4
DA:383,8
DA:384,20
DA:385,20
DA:386,20
DA:388,4
DA:389,4
BRF:0
BRH:0
LF:247
LH:215
end_of_record
SF:/Users/ken/git_for_collab4/tensor4all-rs/crates/tensor4all-core/src/defaults/index.rs
FN:219,_RNvMs1_NtNtCsbrO2ourfQV3_15tensor4all_core8defaults5indexINtB5_5IndexNtB5_5DynIdE4tagsCslD6BJj2Z6b5_15tensor4all_capi
FN:238,_RNvMs2_NtNtCsbrO2ourfQV3_15tensor4all_core8defaults5indexINtB5_5IndexNtB5_5DynIdE22new_with_size_and_tagsCslD6BJj2Z6b5_15tensor4all_capi
FN:311,_RINvXs6_NtNtCsbrO2ourfQV3_15tensor4all_core8defaults5indexINtB6_5IndexNtB6_5DynIdENtNtCskzPJi2J8k3N_4core4hash4Hash4hashNtNtNtCsiThrkg7suPy_3std4hash6random13DefaultHasherEBa_
FN:415,_RNCNvMs9_NtNtCsbrO2ourfQV3_15tensor4all_core8defaults5indexINtB7_5IndexNtB7_5DynIdE8new_bond0Bb_
FN:332,_RNCNvNtNtCsbrO2ourfQV3_15tensor4all_core8defaults5index11generate_id0B7_
FN:200,_RNvMs1_NtNtCsbrO2ourfQV3_15tensor4all_core8defaults5indexINtB5_5IndexNtB5_5DynIdE3newB9_
FN:214,_RNvMs1_NtNtCsbrO2ourfQV3_15tensor4all_core8defaults5indexINtB5_5IndexNtB5_5DynIdE4sizeB9_
FN:303,_RNvXs4_NtNtCsbrO2ourfQV3_15tensor4all_core8defaults5indexINtB5_5IndexNtB5_5DynIdENtNtCskzPJi2J8k3N_4core3cmp9PartialEq2eqB9_
FN:209,_RNvMs1_NtNtCsbrO2ourfQV3_15tensor4all_core8defaults5indexINtB5_5IndexppE13new_with_tagsB9_
FN:219,_RNvMs1_NtNtCsbrO2ourfQV3_15tensor4all_core8defaults5indexINtB5_5IndexppE4tagsB9_
FN:229,_RNvMs2_NtNtCsbrO2ourfQV3_15tensor4all_core8defaults5indexINtB5_5IndexppE13new_with_sizeB9_
FN:238,_RNvMs2_NtNtCsbrO2ourfQV3_15tensor4all_core8defaults5indexINtB5_5IndexppE22new_with_size_and_tagsB9_
FN:96,_RNvMNtNtCsbrO2ourfQV3_15tensor4all_core8defaults5indexNtB2_6TagSet3len
FN:51,_RNvMNtNtCsbrO2ourfQV3_15tensor4all_core8defaults5indexNtB2_6TagSet3new
FN:106,_RNvMNtNtCsbrO2ourfQV3_15tensor4all_core8defaults5indexNtB2_6TagSet5inner
FN:91,_RNvMNtNtCsbrO2ourfQV3_15tensor4all_core8defaults5indexNtB2_6TagSet7has_tag
FN:57,_RNvMNtNtCsbrO2ourfQV3_15tensor4all_core8defaults5indexNtB2_6TagSet8from_str
FN:101,_RNvMNtNtCsbrO2ourfQV3_15tensor4all_core8defaults5indexNtB2_6TagSet8is_empty
FN:77,_RNvMNtNtCsbrO2ourfQV3_15tensor4all_core8defaults5indexNtB2_6TagSet9from_tags
FN:284,_RNvMs3_NtNtCsbrO2ourfQV3_15tensor4all_core8defaults5indexINtB5_5IndexNtB5_5DynIdE16new_dyn_with_tag
FN:271,_RNvMs3_NtNtCsbrO2ourfQV3_15tensor4all_core8defaults5indexINtB5_5IndexNtB5_5DynIdE17new_dyn_with_tags
FN:250,_RNvMs3_NtNtCsbrO2ourfQV3_15tensor4all_core8defaults5indexINtB5_5IndexNtB5_5DynIdE7new_dyn
FN:296,_RNvMs3_NtNtCsbrO2ourfQV3_15tensor4all_core8defaults5indexINtB5_5IndexNtB5_5DynIdE8new_link
FN:414,_RNvMs9_NtNtCsbrO2ourfQV3_15tensor4all_core8defaults5indexINtB5_5IndexNtB5_5DynIdE8new_bond
FN:331,_RNvNtNtCsbrO2ourfQV3_15tensor4all_core8defaults5index11generate_id
FN:148,_RNvXs0_NtNtCsbrO2ourfQV3_15tensor4all_core8defaults5indexNtB5_6TagSetNtNtB9_6tagset10TagSetLike10remove_tag
FN:128,_RNvXs0_NtNtCsbrO2ourfQV3_15tensor4all_core8defaults5indexNtB5_6TagSetNtNtB9_6tagset10TagSetLike3get
FN:120,_RNvXs0_NtNtCsbrO2ourfQV3_15tensor4all_core8defaults5indexNtB5_6TagSetNtNtB9_6tagset10TagSetLike3len
FN:132,_RNvXs0_NtNtCsbrO2ourfQV3_15tensor4all_core8defaults5indexNtB5_6TagSetNtNtB9_6tagset10TagSetLike4iter
FN:140,_RNvXs0_NtNtCsbrO2ourfQV3_15tensor4all_core8defaults5indexNtB5_6TagSetNtNtB9_6tagset10TagSetLike7add_tag
FN:136,_RNvXs0_NtNtCsbrO2ourfQV3_15tensor4all_core8defaults5indexNtB5_6TagSetNtNtB9_6tagset10TagSetLike7has_tag
FN:124,_RNvXs0_NtNtCsbrO2ourfQV3_15tensor4all_core8defaults5indexNtB5_6TagSetNtNtB9_6tagset10TagSetLike8capacity
FN:369,_RNvXs8_NtNtCsbrO2ourfQV3_15tensor4all_core8defaults5indexINtB5_5IndexNtB5_5DynIdENtNtB9_10index_like9IndexLike10conj_state
FN:387,_RNvXs8_NtNtCsbrO2ourfQV3_15tensor4all_core8defaults5indexINtB5_5IndexNtB5_5DynIdENtNtB9_10index_like9IndexLike22create_dummy_link_pair
FN:361,_RNvXs8_NtNtCsbrO2ourfQV3_15tensor4all_core8defaults5indexINtB5_5IndexNtB5_5DynIdENtNtB9_10index_like9IndexLike2id
FN:365,_RNvXs8_NtNtCsbrO2ourfQV3_15tensor4all_core8defaults5indexINtB5_5IndexNtB5_5DynIdENtNtB9_10index_like9IndexLike3dim
FN:379,_RNvXs8_NtNtCsbrO2ourfQV3_15tensor4all_core8defaults5indexINtB5_5IndexNtB5_5DynIdENtNtB9_10index_like9IndexLike3sim
FN:374,_RNvXs8_NtNtCsbrO2ourfQV3_15tensor4all_core8defaults5indexINtB5_5IndexNtB5_5DynIdENtNtB9_10index_like9IndexLike4conj
FN:114,_RNvXs_NtNtCsbrO2ourfQV3_15tensor4all_core8defaults5indexNtB4_6TagSetNtNtNtCskzPJi2J8k3N_4core3ops5deref5Deref5deref
FN:229,_RNvMs2_NtNtCsbrO2ourfQV3_15tensor4all_core8defaults5indexINtB5_5IndexNtB5_5DynIdE13new_with_sizeCsk8nCQTNnVi9_22tensor4all_itensorlike
FNDA:5,_RNvMs1_NtNtCsbrO2ourfQV3_15tensor4all_core8defaults5indexINtB5_5IndexNtB5_5DynIdE4tagsCslD6BJj2Z6b5_15tensor4all_capi
FNDA:1,_RNvMs2_NtNtCsbrO2ourfQV3_15tensor4all_core8defaults5indexINtB5_5IndexNtB5_5DynIdE22new_with_size_and_tagsCslD6BJj2Z6b5_15tensor4all_capi
FNDA:1336,_RINvXs6_NtNtCsbrO2ourfQV3_15tensor4all_core8defaults5indexINtB6_5IndexNtB6_5DynIdENtNtCskzPJi2J8k3N_4core4hash4Hash4hashNtNtNtCsiThrkg7suPy_3std4hash6random13DefaultHasherEBa_
FNDA:0,_RNCNvMs9_NtNtCsbrO2ourfQV3_15tensor4all_core8defaults5indexINtB7_5IndexNtB7_5DynIdE8new_bond0Bb_
FNDA:37,_RNCNvNtNtCsbrO2ourfQV3_15tensor4all_core8defaults5index11generate_id0B7_
FNDA:75,_RNvMs1_NtNtCsbrO2ourfQV3_15tensor4all_core8defaults5indexINtB5_5IndexNtB5_5DynIdE3newB9_
FNDA:75,_RNvMs1_NtNtCsbrO2ourfQV3_15tensor4all_core8defaults5indexINtB5_5IndexNtB5_5DynIdE4sizeB9_
FNDA:540,_RNvXs4_NtNtCsbrO2ourfQV3_15tensor4all_core8defaults5indexINtB5_5IndexNtB5_5DynIdENtNtCskzPJi2J8k3N_4core3cmp9PartialEq2eqB9_
FNDA:0,_RNvMs1_NtNtCsbrO2ourfQV3_15tensor4all_core8defaults5indexINtB5_5IndexppE13new_with_tagsB9_
FNDA:0,_RNvMs1_NtNtCsbrO2ourfQV3_15tensor4all_core8defaults5indexINtB5_5IndexppE4tagsB9_
FNDA:0,_RNvMs2_NtNtCsbrO2ourfQV3_15tensor4all_core8defaults5indexINtB5_5IndexppE13new_with_sizeB9_
FNDA:0,_RNvMs2_NtNtCsbrO2ourfQV3_15tensor4all_core8defaults5indexINtB5_5IndexppE22new_with_size_and_tagsB9_
FNDA:0,_RNvMNtNtCsbrO2ourfQV3_15tensor4all_core8defaults5indexNtB2_6TagSet3len
FNDA:13,_RNvMNtNtCsbrO2ourfQV3_15tensor4all_core8defaults5indexNtB2_6TagSet3new
FNDA:0,_RNvMNtNtCsbrO2ourfQV3_15tensor4all_core8defaults5indexNtB2_6TagSet5inner
FNDA:3,_RNvMNtNtCsbrO2ourfQV3_15tensor4all_core8defaults5indexNtB2_6TagSet7has_tag
FNDA:19,_RNvMNtNtCsbrO2ourfQV3_15tensor4all_core8defaults5indexNtB2_6TagSet8from_str
FNDA:0,_RNvMNtNtCsbrO2ourfQV3_15tensor4all_core8defaults5indexNtB2_6TagSet8is_empty
FNDA:0,_RNvMNtNtCsbrO2ourfQV3_15tensor4all_core8defaults5indexNtB2_6TagSet9from_tags
FNDA:18,_RNvMs3_NtNtCsbrO2ourfQV3_15tensor4all_core8defaults5indexINtB5_5IndexNtB5_5DynIdE16new_dyn_with_tag
FNDA:0,_RNvMs3_NtNtCsbrO2ourfQV3_15tensor4all_core8defaults5indexINtB5_5IndexNtB5_5DynIdE17new_dyn_with_tags
FNDA:13,_RNvMs3_NtNtCsbrO2ourfQV3_15tensor4all_core8defaults5indexINtB5_5IndexNtB5_5DynIdE7new_dyn
FNDA:16,_RNvMs3_NtNtCsbrO2ourfQV3_15tensor4all_core8defaults5indexINtB5_5IndexNtB5_5DynIdE8new_link
FNDA:16,_RNvMs9_NtNtCsbrO2ourfQV3_15tensor4all_core8defaults5indexINtB5_5IndexNtB5_5DynIdE8new_bond
FNDA:37,_RNvNtNtCsbrO2ourfQV3_15tensor4all_core8defaults5index11generate_id
FNDA:0,_RNvXs0_NtNtCsbrO2ourfQV3_15tensor4all_core8defaults5indexNtB5_6TagSetNtNtB9_6tagset10TagSetLike10remove_tag
FNDA:0,_RNvXs0_NtNtCsbrO2ourfQV3_15tensor4all_core8defaults5indexNtB5_6TagSetNtNtB9_6tagset10TagSetLike3get
FNDA:0,_RNvXs0_NtNtCsbrO2ourfQV3_15tensor4all_core8defaults5indexNtB5_6TagSetNtNtB9_6tagset10TagSetLike3len
FNDA:0,_RNvXs0_NtNtCsbrO2ourfQV3_15tensor4all_core8defaults5indexNtB5_6TagSetNtNtB9_6tagset10TagSetLike4iter
FNDA:0,_RNvXs0_NtNtCsbrO2ourfQV3_15tensor4all_core8defaults5indexNtB5_6TagSetNtNtB9_6tagset10TagSetLike7add_tag
FNDA:0,_RNvXs0_NtNtCsbrO2ourfQV3_15tensor4all_core8defaults5indexNtB5_6TagSetNtNtB9_6tagset10TagSetLike7has_tag
FNDA:0,_RNvXs0_NtNtCsbrO2ourfQV3_15tensor4all_core8defaults5indexNtB5_6TagSetNtNtB9_6tagset10TagSetLike8capacity
FNDA:160,_RNvXs8_NtNtCsbrO2ourfQV3_15tensor4all_core8defaults5indexINtB5_5IndexNtB5_5DynIdENtNtB9_10index_like9IndexLike10conj_state
FNDA:0,_RNvXs8_NtNtCsbrO2ourfQV3_15tensor4all_core8defaults5indexINtB5_5IndexNtB5_5DynIdENtNtB9_10index_like9IndexLike22create_dummy_link_pair
FNDA:2533,_RNvXs8_NtNtCsbrO2ourfQV3_15tensor4all_core8defaults5indexINtB5_5IndexNtB5_5DynIdENtNtB9_10index_like9IndexLike2id
FNDA:278,_RNvXs8_NtNtCsbrO2ourfQV3_15tensor4all_core8defaults5indexINtB5_5IndexNtB5_5DynIdENtNtB9_10index_like9IndexLike3dim
FNDA:6,_RNvXs8_NtNtCsbrO2ourfQV3_15tensor4all_core8defaults5indexINtB5_5IndexNtB5_5DynIdENtNtB9_10index_like9IndexLike3sim
FNDA:8,_RNvXs8_NtNtCsbrO2ourfQV3_15tensor4all_core8defaults5indexINtB5_5IndexNtB5_5DynIdENtNtB9_10index_like9IndexLike4conj
FNDA:2,_RNvXs_NtNtCsbrO2ourfQV3_15tensor4all_core8defaults5indexNtB4_6TagSetNtNtNtCskzPJi2J8k3N_4core3ops5deref5Deref5deref
FNDA:46,_RNvMs2_NtNtCsbrO2ourfQV3_15tensor4all_core8defaults5indexINtB5_5IndexNtB5_5DynIdE13new_with_sizeCsk8nCQTNnVi9_22tensor4all_itensorlike
FNF:37
FNH:22
DA:51,13
DA:52,13
DA:53,13
DA:57,19
DA:58,19
DA:59,19
DA:77,0
DA:78,0
DA:79,0
DA:80,0
DA:81,0
DA:82,0
DA:83,0
DA:84,0
DA:85,0
DA:87,0
DA:88,0
DA:91,3
DA:92,3
DA:93,3
DA:96,0
DA:97,0
DA:98,0
DA:101,0
DA:102,0
DA:103,0
DA:106,0
DA:107,0
DA:108,0
DA:114,2
DA:115,2
DA:116,2
DA:120,0
DA:121,0
DA:122,0
DA:124,0
DA:125,0
DA:126,0
DA:128,0
DA:129,0
DA:130,0
DA:132,0
DA:133,0
DA:134,0
DA:136,0
DA:137,0
DA:138,0
DA:140,0
DA:142,0
DA:143,0
DA:144,0
DA:145,0
DA:146,0
DA:148,0
DA:150,0
DA:151,0
DA:152,0
DA:153,0
DA:154,0
DA:155,0
DA:156,0
DA:200,75
DA:201,75
DA:202,75
DA:203,75
DA:204,75
DA:205,75
DA:206,75
DA:209,0
DA:210,0
DA:211,0
DA:214,75
DA:215,75
DA:216,75
DA:219,5
DA:220,5
DA:221,5
DA:229,46
DA:230,46
DA:231,46
DA:232,46
DA:233,46
DA:234,46
DA:235,46
DA:238,1
DA:239,1
DA:240,1
DA:241,1
DA:242,1
DA:243,1
DA:244,1
DA:250,13
DA:251,13
DA:252,13
DA:253,13
DA:254,13
DA:255,13
DA:256,13
DA:271,0
DA:272,0
DA:273,0
DA:274,0
DA:275,0
DA:276,0
DA:277,0
DA:284,18
DA:286,18
DA:287,18
DA:288,18
DA:290,18
DA:296,16
DA:297,16
DA:298,16
DA:303,540
DA:304,540
DA:305,540
DA:311,1336
DA:312,1336
DA:313,1336
DA:331,37
DA:332,37
DA:333,37
DA:361,2533
DA:362,2533
DA:363,2533
DA:365,278
DA:366,278
DA:367,278
DA:369,160
DA:371,160
DA:372,160
DA:374,8
DA:376,8
DA:377,8
DA:379,6
DA:380,6
DA:381,6
DA:382,6
DA:383,6
DA:384,6
DA:385,6
DA:387,0
DA:388,0
DA:389,0
DA:390,0
DA:391,0
DA:392,0
DA:393,0
DA:394,0
DA:395,0
DA:396,0
DA:397,0
DA:398,0
DA:399,0
DA:400,0
DA:414,16
DA:415,16
DA:416,16
BRF:0
BRH:0
LF:160
LH:86
end_of_record
SF:/Users/ken/git_for_collab4/tensor4all-rs/crates/tensor4all-core/src/defaults/qr.rs
FN:81,_RINvNtNtCsbrO2ourfQV3_15tensor4all_core8defaults2qr24compute_retained_rank_qrINtCsggbFOsTKhzv_11num_complex7ComplexdEEB6_
FN:81,_RINvNtNtCsbrO2ourfQV3_15tensor4all_core8defaults2qr24compute_retained_rank_qrdEB6_
FN:191,_RINvNtNtCsbrO2ourfQV3_15tensor4all_core8defaults2qr7qr_withINtCsggbFOsTKhzv_11num_complex7ComplexdEEB6_
FN:191,_RINvNtNtCsbrO2ourfQV3_15tensor4all_core8defaults2qr7qr_withdEB6_
FN:208,_RNCINvNtNtCsbrO2ourfQV3_15tensor4all_core8defaults2qr7qr_withINtCsggbFOsTKhzv_11num_complex7ComplexdEE0B8_
FN:239,_RNCINvNtNtCsbrO2ourfQV3_15tensor4all_core8defaults2qr7qr_withINtCsggbFOsTKhzv_11num_complex7ComplexdEEs_0B8_
FN:208,_RNCINvNtNtCsbrO2ourfQV3_15tensor4all_core8defaults2qr7qr_withdE0B8_
FN:239,_RNCINvNtNtCsbrO2ourfQV3_15tensor4all_core8defaults2qr7qr_withdEs_0B8_
FN:66,_RNCNvNtNtCsbrO2ourfQV3_15tensor4all_core8defaults2qr19set_default_qr_rtol0B7_
FN:143,_RINvNtNtCsbrO2ourfQV3_15tensor4all_core8defaults2qr2qrpEB6_
FN:268,_RNvNtNtCsbrO2ourfQV3_15tensor4all_core8defaults2qr6qr_c64B5_
FN:40,_RNvMNtNtCsbrO2ourfQV3_15tensor4all_core8defaults2qrNtB2_9QrOptions4rtol
FN:33,_RNvMNtNtCsbrO2ourfQV3_15tensor4all_core8defaults2qrNtB2_9QrOptions9with_rtol
FN:52,_RNvNtNtCsbrO2ourfQV3_15tensor4all_core8defaults2qr15default_qr_rtol
FN:63,_RNvNtNtCsbrO2ourfQV3_15tensor4all_core8defaults2qr19set_default_qr_rtol
FNDA:0,_RINvNtNtCsbrO2ourfQV3_15tensor4all_core8defaults2qr24compute_retained_rank_qrINtCsggbFOsTKhzv_11num_complex7ComplexdEEB6_
FNDA:10,_RINvNtNtCsbrO2ourfQV3_15tensor4all_core8defaults2qr24compute_retained_rank_qrdEB6_
FNDA:0,_RINvNtNtCsbrO2ourfQV3_15tensor4all_core8defaults2qr7qr_withINtCsggbFOsTKhzv_11num_complex7ComplexdEEB6_
FNDA:10,_RINvNtNtCsbrO2ourfQV3_15tensor4all_core8defaults2qr7qr_withdEB6_
FNDA:0,_RNCINvNtNtCsbrO2ourfQV3_15tensor4all_core8defaults2qr7qr_withINtCsggbFOsTKhzv_11num_complex7ComplexdEE0B8_
FNDA:0,_RNCINvNtNtCsbrO2ourfQV3_15tensor4all_core8defaults2qr7qr_withINtCsggbFOsTKhzv_11num_complex7ComplexdEEs_0B8_
FNDA:0,_RNCINvNtNtCsbrO2ourfQV3_15tensor4all_core8defaults2qr7qr_withdE0B8_
FNDA:0,_RNCINvNtNtCsbrO2ourfQV3_15tensor4all_core8defaults2qr7qr_withdEs_0B8_
FNDA:0,_RNCNvNtNtCsbrO2ourfQV3_15tensor4all_core8defaults2qr19set_default_qr_rtol0B7_
FNDA:0,_RINvNtNtCsbrO2ourfQV3_15tensor4all_core8defaults2qr2qrpEB6_
FNDA:0,_RNvNtNtCsbrO2ourfQV3_15tensor4all_core8defaults2qr6qr_c64B5_
FNDA:0,_RNvMNtNtCsbrO2ourfQV3_15tensor4all_core8defaults2qrNtB2_9QrOptions4rtol
FNDA:0,_RNvMNtNtCsbrO2ourfQV3_15tensor4all_core8defaults2qrNtB2_9QrOptions9with_rtol
FNDA:10,_RNvNtNtCsbrO2ourfQV3_15tensor4all_core8defaults2qr15default_qr_rtol
FNDA:0,_RNvNtNtCsbrO2ourfQV3_15tensor4all_core8defaults2qr19set_default_qr_rtol
FNF:11
FNH:3
DA:33,0
DA:34,0
DA:35,0
DA:36,0
DA:37,0
DA:40,0
DA:41,0
DA:42,0
DA:52,10
DA:53,10
DA:54,10
DA:63,0
DA:64,0
DA:65,0
DA:66,0
DA:67,0
DA:81,10
DA:82,10
DA:83,10
DA:84,10
DA:86,10
DA:87,0
DA:88,10
DA:92,10
DA:93,10
DA:95,24
DA:96,24
DA:97,24
DA:98,24
DA:99,2
DA:100,2
DA:101,22
DA:105,10
DA:106,10
DA:143,0
DA:144,0
DA:145,0
DA:146,0
DA:147,0
DA:148,0
DA:149,0
DA:151,0
DA:152,0
DA:191,10
DA:192,10
DA:193,10
DA:194,10
DA:195,10
DA:196,10
DA:197,10
DA:198,10
DA:201,10
DA:202,10
DA:203,0
DA:204,10
DA:207,10
DA:208,10
DA:209,10
DA:210,10
DA:214,10
DA:215,10
DA:218,10
DA:222,10
DA:223,36
DA:224,88
DA:225,88
DA:226,88
DA:230,10
DA:231,22
DA:232,86
DA:233,86
DA:234,86
DA:238,10
DA:239,10
DA:240,10
DA:243,10
DA:244,10
DA:245,10
DA:246,10
DA:249,10
DA:250,10
DA:251,10
DA:252,10
DA:254,10
DA:255,10
DA:268,0
DA:269,0
DA:270,0
DA:271,0
DA:272,0
DA:273,0
BRF:0
BRH:0
LF:94
LH:61
end_of_record
SF:/Users/ken/git_for_collab4/tensor4all-rs/crates/tensor4all-core/src/defaults/svd.rs
FN:260,_RINvNtNtCsbrO2ourfQV3_15tensor4all_core8defaults3svd3svdpEB6_
FN:412,_RNvNtNtCsbrO2ourfQV3_15tensor4all_core8defaults3svd7svd_c64B5_
FN:42,_RNvMNtNtCsbrO2ourfQV3_15tensor4all_core8defaults3svdNtB2_10SvdOptions13with_max_rank
FN:49,_RNvMNtNtCsbrO2ourfQV3_15tensor4all_core8defaults3svdNtB2_10SvdOptions4rtol
FN:54,_RNvMNtNtCsbrO2ourfQV3_15tensor4all_core8defaults3svdNtB2_10SvdOptions8max_rank
FN:35,_RNvMNtNtCsbrO2ourfQV3_15tensor4all_core8defaults3svdNtB2_10SvdOptions9with_rtol
FN:76,_RNvNtNtCsbrO2ourfQV3_15tensor4all_core8defaults3svd16default_svd_rtol
FN:87,_RNvNtNtCsbrO2ourfQV3_15tensor4all_core8defaults3svd20set_default_svd_rtol
FN:104,_RNvNtNtCsbrO2ourfQV3_15tensor4all_core8defaults3svd21compute_retained_rank
FN:60,_RNvXs_NtNtCsbrO2ourfQV3_15tensor4all_core8defaults3svdNtB4_10SvdOptionsNtNtB8_10truncation19HasTruncationParams17truncation_params
FN:64,_RNvXs_NtNtCsbrO2ourfQV3_15tensor4all_core8defaults3svdNtB4_10SvdOptionsNtNtB8_10truncation19HasTruncationParams21truncation_params_mut
FN:160,_RINvNtNtCsbrO2ourfQV3_15tensor4all_core8defaults3svd27extract_usv_from_svd_resultINtCsggbFOsTKhzv_11num_complex7ComplexdEEB6_
FN:160,_RINvNtNtCsbrO2ourfQV3_15tensor4all_core8defaults3svd27extract_usv_from_svd_resultdEB6_
FN:313,_RINvNtNtCsbrO2ourfQV3_15tensor4all_core8defaults3svd8svd_withINtCsggbFOsTKhzv_11num_complex7ComplexdEEB6_
FN:313,_RINvNtNtCsbrO2ourfQV3_15tensor4all_core8defaults3svd8svd_withdEB6_
FN:330,_RNCINvNtNtCsbrO2ourfQV3_15tensor4all_core8defaults3svd8svd_withINtCsggbFOsTKhzv_11num_complex7ComplexdEE0B8_
FN:371,_RNCINvNtNtCsbrO2ourfQV3_15tensor4all_core8defaults3svd8svd_withINtCsggbFOsTKhzv_11num_complex7ComplexdEEs_0B8_
FN:330,_RNCINvNtNtCsbrO2ourfQV3_15tensor4all_core8defaults3svd8svd_withdE0B8_
FN:371,_RNCINvNtNtCsbrO2ourfQV3_15tensor4all_core8defaults3svd8svd_withdEs_0B8_
FN:90,_RNCNvNtNtCsbrO2ourfQV3_15tensor4all_core8defaults3svd20set_default_svd_rtol0B7_
FN:110,_RNCNvNtNtCsbrO2ourfQV3_15tensor4all_core8defaults3svd21compute_retained_rank0B7_
FNDA:0,_RINvNtNtCsbrO2ourfQV3_15tensor4all_core8defaults3svd3svdpEB6_
FNDA:0,_RNvNtNtCsbrO2ourfQV3_15tensor4all_core8defaults3svd7svd_c64B5_
FNDA:0,_RNvMNtNtCsbrO2ourfQV3_15tensor4all_core8defaults3svdNtB2_10SvdOptions13with_max_rank
FNDA:0,_RNvMNtNtCsbrO2ourfQV3_15tensor4all_core8defaults3svdNtB2_10SvdOptions4rtol
FNDA:0,_RNvMNtNtCsbrO2ourfQV3_15tensor4all_core8defaults3svdNtB2_10SvdOptions8max_rank
FNDA:0,_RNvMNtNtCsbrO2ourfQV3_15tensor4all_core8defaults3svdNtB2_10SvdOptions9with_rtol
FNDA:4,_RNvNtNtCsbrO2ourfQV3_15tensor4all_core8defaults3svd16default_svd_rtol
FNDA:0,_RNvNtNtCsbrO2ourfQV3_15tensor4all_core8defaults3svd20set_default_svd_rtol
FNDA:4,_RNvNtNtCsbrO2ourfQV3_15tensor4all_core8defaults3svd21compute_retained_rank
FNDA:0,_RNvXs_NtNtCsbrO2ourfQV3_15tensor4all_core8defaults3svdNtB4_10SvdOptionsNtNtB8_10truncation19HasTruncationParams17truncation_params
FNDA:0,_RNvXs_NtNtCsbrO2ourfQV3_15tensor4all_core8defaults3svdNtB4_10SvdOptionsNtNtB8_10truncation19HasTruncationParams21truncation_params_mut
FNDA:0,_RINvNtNtCsbrO2ourfQV3_15tensor4all_core8defaults3svd27extract_usv_from_svd_resultINtCsggbFOsTKhzv_11num_complex7ComplexdEEB6_
FNDA:4,_RINvNtNtCsbrO2ourfQV3_15tensor4all_core8defaults3svd27extract_usv_from_svd_resultdEB6_
FNDA:0,_RINvNtNtCsbrO2ourfQV3_15tensor4all_core8defaults3svd8svd_withINtCsggbFOsTKhzv_11num_complex7ComplexdEEB6_
FNDA:4,_RINvNtNtCsbrO2ourfQV3_15tensor4all_core8defaults3svd8svd_withdEB6_
FNDA:0,_RNCINvNtNtCsbrO2ourfQV3_15tensor4all_core8defaults3svd8svd_withINtCsggbFOsTKhzv_11num_complex7ComplexdEE0B8_
FNDA:0,_RNCINvNtNtCsbrO2ourfQV3_15tensor4all_core8defaults3svd8svd_withINtCsggbFOsTKhzv_11num_complex7ComplexdEEs_0B8_
FNDA:0,_RNCINvNtNtCsbrO2ourfQV3_15tensor4all_core8defaults3svd8svd_withdE0B8_
FNDA:0,_RNCINvNtNtCsbrO2ourfQV3_15tensor4all_core8defaults3svd8svd_withdEs_0B8_
FNDA:0,_RNCNvNtNtCsbrO2ourfQV3_15tensor4all_core8defaults3svd20set_default_svd_rtol0B7_
FNDA:16,_RNCNvNtNtCsbrO2ourfQV3_15tensor4all_core8defaults3svd21compute_retained_rank0B7_
FNF:17
FNH:5
DA:35,0
DA:36,0
DA:37,0
DA:38,0
DA:39,0
DA:42,0
DA:43,0
DA:44,0
DA:45,0
DA:46,0
DA:49,0
DA:50,0
DA:51,0
DA:54,0
DA:55,0
DA:56,0
DA:60,0
DA:61,0
DA:62,0
DA:64,0
DA:65,0
DA:66,0
DA:76,4
DA:77,4
DA:78,4
DA:87,0
DA:88,0
DA:89,0
DA:90,0
DA:91,0
DA:104,4
DA:105,4
DA:106,0
DA:107,4
DA:110,16
DA:113,4
DA:114,0
DA:115,4
DA:120,4
DA:121,4
DA:124,4
DA:125,4
DA:128,12
DA:129,12
DA:130,12
DA:131,8
DA:132,8
DA:133,8
DA:134,4
DA:139,4
DA:140,4
DA:160,4
DA:161,4
DA:162,4
DA:163,4
DA:164,4
DA:165,4
DA:166,4
DA:167,4
DA:168,4
DA:170,4
DA:181,4
DA:182,16
DA:183,16
DA:184,16
DA:185,16
DA:186,16
DA:187,16
DA:188,16
DA:191,4
DA:192,24
DA:193,96
DA:194,96
DA:195,96
DA:202,4
DA:203,16
DA:204,112
DA:205,112
DA:206,112
DA:209,4
DA:210,28
DA:211,112
DA:212,112
DA:213,112
DA:214,112
DA:217,4
DA:218,4
DA:260,0
DA:261,0
DA:262,0
DA:263,0
DA:264,0
DA:265,0
DA:266,0
DA:268,0
DA:269,0
DA:313,4
DA:314,4
DA:315,4
DA:316,4
DA:317,4
DA:318,4
DA:319,4
DA:320,4
DA:323,4
DA:324,4
DA:325,0
DA:326,4
DA:329,4
DA:330,4
DA:331,4
DA:332,4
DA:336,4
DA:337,4
DA:340,4
DA:343,4
DA:346,4
DA:347,4
DA:348,4
DA:351,4
DA:354,4
DA:355,24
DA:356,48
DA:357,48
DA:358,48
DA:362,4
DA:363,28
DA:364,56
DA:365,56
DA:366,56
DA:370,4
DA:371,4
DA:372,4
DA:375,4
DA:376,4
DA:377,4
DA:378,4
DA:383,4
DA:384,4
DA:385,4
DA:388,4
DA:389,4
DA:390,4
DA:391,4
DA:393,4
DA:394,4
DA:412,0
DA:413,0
DA:414,0
DA:415,0
DA:416,0
DA:417,0
BRF:0
BRH:0
LF:156
LH:108
end_of_record
SF:/Users/ken/git_for_collab4/tensor4all-rs/crates/tensor4all-core/src/defaults/tensor_data.rs
FN:34,_RNvMNtNtCsbrO2ourfQV3_15tensor4all_core8defaults11tensor_dataNtB2_15TensorComponent3new
FN:48,_RNvMNtNtCsbrO2ourfQV3_15tensor4all_core8defaults11tensor_dataNtB2_15TensorComponent4ndim
FN:53,_RNvMNtNtCsbrO2ourfQV3_15tensor4all_core8defaults11tensor_dataNtB2_15TensorComponent5numel
FN:278,_RNvMs_NtNtCsbrO2ourfQV3_15tensor4all_core8defaults11tensor_dataNtB4_10TensorData10components
FN:226,_RNvMs_NtNtCsbrO2ourfQV3_15tensor4all_core8defaults11tensor_dataNtB4_10TensorData11materialize
FN:140,_RNvMs_NtNtCsbrO2ourfQV3_15tensor4all_core8defaults11tensor_dataNtB4_10TensorData13outer_product
FN:90,_RNvMs_NtNtCsbrO2ourfQV3_15tensor4all_core8defaults11tensor_dataNtB4_10TensorData15from_components
FN:273,_RNvMs_NtNtCsbrO2ourfQV3_15tensor4all_core8defaults11tensor_dataNtB4_10TensorData15into_components
FN:195,_RNvMs_NtNtCsbrO2ourfQV3_15tensor4all_core8defaults11tensor_dataNtB4_10TensorData15permute_by_perm
FN:80,_RNvMs_NtNtCsbrO2ourfQV3_15tensor4all_core8defaults11tensor_dataNtB4_10TensorData3new
FN:127,_RNvMs_NtNtCsbrO2ourfQV3_15tensor4all_core8defaults11tensor_dataNtB4_10TensorData4dims
FN:117,_RNvMs_NtNtCsbrO2ourfQV3_15tensor4all_core8defaults11tensor_dataNtB4_10TensorData4ndim
FN:122,_RNvMs_NtNtCsbrO2ourfQV3_15tensor4all_core8defaults11tensor_dataNtB4_10TensorData5numel
FN:165,_RNvMs_NtNtCsbrO2ourfQV3_15tensor4all_core8defaults11tensor_dataNtB4_10TensorData7permute
FN:108,_RNvMs_NtNtCsbrO2ourfQV3_15tensor4all_core8defaults11tensor_dataNtB4_10TensorData7storage
FN:132,_RNvMs_NtNtCsbrO2ourfQV3_15tensor4all_core8defaults11tensor_dataNtB4_10TensorData9index_ids
FN:103,_RNvMs_NtNtCsbrO2ourfQV3_15tensor4all_core8defaults11tensor_dataNtB4_10TensorData9is_simple
FN:243,_RNCNCNvMs_NtNtCsbrO2ourfQV3_15tensor4all_core8defaults11tensor_dataNtB8_10TensorData11materialize00Bc_
FN:238,_RNCNvMs_NtNtCsbrO2ourfQV3_15tensor4all_core8defaults11tensor_dataNtB6_10TensorData11materialize0Ba_
FN:264,_RNCNvMs_NtNtCsbrO2ourfQV3_15tensor4all_core8defaults11tensor_dataNtB6_10TensorData11materializes0_0Ba_
FN:204,_RNCNvMs_NtNtCsbrO2ourfQV3_15tensor4all_core8defaults11tensor_dataNtB6_10TensorData15permute_by_perm0Ba_
FN:209,_RNCNvMs_NtNtCsbrO2ourfQV3_15tensor4all_core8defaults11tensor_dataNtB6_10TensorData15permute_by_perms_0Ba_
FN:178,_RNCNvMs_NtNtCsbrO2ourfQV3_15tensor4all_core8defaults11tensor_dataNtB6_10TensorData7permute0Ba_
FNDA:184,_RNvMNtNtCsbrO2ourfQV3_15tensor4all_core8defaults11tensor_dataNtB2_15TensorComponent3new
FNDA:0,_RNvMNtNtCsbrO2ourfQV3_15tensor4all_core8defaults11tensor_dataNtB2_15TensorComponent4ndim
FNDA:0,_RNvMNtNtCsbrO2ourfQV3_15tensor4all_core8defaults11tensor_dataNtB2_15TensorComponent5numel
FNDA:0,_RNvMs_NtNtCsbrO2ourfQV3_15tensor4all_core8defaults11tensor_dataNtB4_10TensorData10components
FNDA:0,_RNvMs_NtNtCsbrO2ourfQV3_15tensor4all_core8defaults11tensor_dataNtB4_10TensorData11materialize
FNDA:0,_RNvMs_NtNtCsbrO2ourfQV3_15tensor4all_core8defaults11tensor_dataNtB4_10TensorData13outer_product
FNDA:0,_RNvMs_NtNtCsbrO2ourfQV3_15tensor4all_core8defaults11tensor_dataNtB4_10TensorData15from_components
FNDA:0,_RNvMs_NtNtCsbrO2ourfQV3_15tensor4all_core8defaults11tensor_dataNtB4_10TensorData15into_components
FNDA:0,_RNvMs_NtNtCsbrO2ourfQV3_15tensor4all_core8defaults11tensor_dataNtB4_10TensorData15permute_by_perm
FNDA:184,_RNvMs_NtNtCsbrO2ourfQV3_15tensor4all_core8defaults11tensor_dataNtB4_10TensorData3new
FNDA:0,_RNvMs_NtNtCsbrO2ourfQV3_15tensor4all_core8defaults11tensor_dataNtB4_10TensorData4dims
FNDA:0,_RNvMs_NtNtCsbrO2ourfQV3_15tensor4all_core8defaults11tensor_dataNtB4_10TensorData4ndim
FNDA:0,_RNvMs_NtNtCsbrO2ourfQV3_15tensor4all_core8defaults11tensor_dataNtB4_10TensorData5numel
FNDA:0,_RNvMs_NtNtCsbrO2ourfQV3_15tensor4all_core8defaults11tensor_dataNtB4_10TensorData7permute
FNDA:182,_RNvMs_NtNtCsbrO2ourfQV3_15tensor4all_core8defaults11tensor_dataNtB4_10TensorData7storage
FNDA:0,_RNvMs_NtNtCsbrO2ourfQV3_15tensor4all_core8defaults11tensor_dataNtB4_10TensorData9index_ids
FNDA:182,_RNvMs_NtNtCsbrO2ourfQV3_15tensor4all_core8defaults11tensor_dataNtB4_10TensorData9is_simple
FNDA:0,_RNCNCNvMs_NtNtCsbrO2ourfQV3_15tensor4all_core8defaults11tensor_dataNtB8_10TensorData11materialize00Bc_
FNDA:0,_RNCNvMs_NtNtCsbrO2ourfQV3_15tensor4all_core8defaults11tensor_dataNtB6_10TensorData11materialize0Ba_
FNDA:0,_RNCNvMs_NtNtCsbrO2ourfQV3_15tensor4all_core8defaults11tensor_dataNtB6_10TensorData11materializes0_0Ba_
FNDA:0,_RNCNvMs_NtNtCsbrO2ourfQV3_15tensor4all_core8defaults11tensor_dataNtB6_10TensorData15permute_by_perm0Ba_
FNDA:0,_RNCNvMs_NtNtCsbrO2ourfQV3_15tensor4all_core8defaults11tensor_dataNtB6_10TensorData15permute_by_perms_0Ba_
FNDA:0,_RNCNvMs_NtNtCsbrO2ourfQV3_15tensor4all_core8defaults11tensor_dataNtB6_10TensorData7permute0Ba_
FNF:23
FNH:4
DA:34,184
DA:35,184
DA:36,184
DA:37,184
DA:38,0
DA:40,184
DA:41,184
DA:42,184
DA:43,184
DA:44,184
DA:45,184
DA:48,0
DA:49,0
DA:50,0
DA:53,0
DA:54,0
DA:55,0
DA:80,184
DA:81,184
DA:82,184
DA:83,184
DA:84,184
DA:85,184
DA:86,184
DA:87,184
DA:90,0
DA:91,0
DA:92,0
DA:93,0
DA:94,0
DA:95,0
DA:96,0
DA:97,0
DA:98,0
DA:99,0
DA:100,0
DA:103,182
DA:104,182
DA:105,182
DA:108,182
DA:109,182
DA:110,182
DA:112,0
DA:114,182
DA:117,0
DA:118,0
DA:119,0
DA:122,0
DA:123,0
DA:124,0
DA:127,0
DA:128,0
DA:129,0
DA:132,0
DA:133,0
DA:134,0
DA:140,0
DA:141,0
DA:142,0
DA:144,0
DA:145,0
DA:147,0
DA:148,0
DA:150,0
DA:151,0
DA:152,0
DA:153,0
DA:154,0
DA:155,0
DA:165,0
DA:166,0
DA:167,0
DA:168,0
DA:169,0
DA:173,0
DA:174,0
DA:175,0
DA:176,0
DA:177,0
DA:178,0
DA:179,0
DA:180,0
DA:183,0
DA:184,0
DA:185,0
DA:186,0
DA:187,0
DA:188,0
DA:195,0
DA:196,0
DA:197,0
DA:198,0
DA:199,0
DA:202,0
DA:203,0
DA:204,0
DA:205,0
DA:207,0
DA:208,0
DA:209,0
DA:210,0
DA:212,0
DA:213,0
DA:214,0
DA:215,0
DA:216,0
DA:217,0
DA:226,0
DA:230,0
DA:231,0
DA:232,0
DA:235,0
DA:236,0
DA:237,0
DA:238,0
DA:239,0
DA:240,0
DA:241,0
DA:242,0
DA:243,0
DA:244,0
DA:245,0
DA:246,0
DA:247,0
DA:250,0
DA:253,0
DA:255,0
DA:257,0
DA:260,0
DA:261,0
DA:262,0
DA:263,0
DA:264,0
DA:265,0
DA:267,0
DA:268,0
DA:270,0
DA:273,0
DA:274,0
DA:275,0
DA:278,0
DA:279,0
DA:280,0
BRF:0
BRH:0
LF:149
LH:25
end_of_record
SF:/Users/ken/git_for_collab4/tensor4all-rs/crates/tensor4all-core/src/defaults/tensordynlen.rs
FN:671,_RINvMs0_NtNtCsbrO2ourfQV3_15tensor4all_core8defaults12tensordynlenNtB6_12TensorDynLen10random_c64pEBa_
FN:641,_RINvMs0_NtNtCsbrO2ourfQV3_15tensor4all_core8defaults12tensordynlenNtB6_12TensorDynLen10random_f64pEBa_
FN:672,_RNCINvMs0_NtNtCsbrO2ourfQV3_15tensor4all_core8defaults12tensordynlenNtB8_12TensorDynLen10random_c64pE0Bc_
FN:642,_RNCINvMs0_NtNtCsbrO2ourfQV3_15tensor4all_core8defaults12tensordynlenNtB8_12TensorDynLen10random_f64pE0Bc_
FN:1271,_RINvNtNtCsbrO2ourfQV3_15tensor4all_core8defaults12tensordynlen12unfold_splitINtCsggbFOsTKhzv_11num_complex7ComplexdEEB6_
FN:1271,_RINvNtNtCsbrO2ourfQV3_15tensor4all_core8defaults12tensordynlen12unfold_splitdEB6_
FN:1331,_RNCINvNtNtCsbrO2ourfQV3_15tensor4all_core8defaults12tensordynlen12unfold_splitINtCsggbFOsTKhzv_11num_complex7ComplexdEE0B8_
FN:1331,_RNCINvNtNtCsbrO2ourfQV3_15tensor4all_core8defaults12tensordynlen12unfold_splitdE0B8_
FN:834,_RNCNvMs5_NtNtCsbrO2ourfQV3_15tensor4all_core8defaults12tensordynlenNtB7_12TensorDynLen3add0Bb_
FN:930,_RNCNvMs7_NtNtCsbrO2ourfQV3_15tensor4all_core8defaults12tensordynlenNtB7_12TensorDynLen10replaceind0Bb_
FN:940,_RNCNvMs7_NtNtCsbrO2ourfQV3_15tensor4all_core8defaults12tensordynlenNtB7_12TensorDynLen10replaceinds_0Bb_
FN:998,_RNCNvMs7_NtNtCsbrO2ourfQV3_15tensor4all_core8defaults12tensordynlenNtB7_12TensorDynLen11replaceinds0Bb_
FN:1008,_RNCNvMs7_NtNtCsbrO2ourfQV3_15tensor4all_core8defaults12tensordynlenNtB7_12TensorDynLen11replaceindss_0Bb_
FN:1050,_RNCNvMs8_NtNtCsbrO2ourfQV3_15tensor4all_core8defaults12tensordynlenNtB7_12TensorDynLen4conj0Bb_
FN:169,_RNCNvMs_NtNtCsbrO2ourfQV3_15tensor4all_core8defaults12tensordynlenNtB6_12TensorDynLen12from_indices0Ba_
FN:584,_RNCNvMs_NtNtCsbrO2ourfQV3_15tensor4all_core8defaults12tensordynlenNtB6_12TensorDynLen13outer_product0Ba_
FN:311,_RNCNvMs_NtNtCsbrO2ourfQV3_15tensor4all_core8defaults12tensordynlenNtB6_12TensorDynLen15permute_indices0Ba_
FN:151,_RNCNvMs_NtNtCsbrO2ourfQV3_15tensor4all_core8defaults12tensordynlenNtB6_12TensorDynLen3new0Ba_
FN:360,_RNCNvMs_NtNtCsbrO2ourfQV3_15tensor4all_core8defaults12tensordynlenNtB6_12TensorDynLen7permute0Ba_
FN:361,_RNCNvMs_NtNtCsbrO2ourfQV3_15tensor4all_core8defaults12tensordynlenNtB6_12TensorDynLen7permutes_0Ba_
FN:491,_RNCNvMs_NtNtCsbrO2ourfQV3_15tensor4all_core8defaults12tensordynlenNtB6_12TensorDynLen9tensordot0Ba_
FN:1196,_RNCNvNtNtCsbrO2ourfQV3_15tensor4all_core8defaults12tensordynlen19diag_tensor_dyn_len0B7_
FN:1222,_RNCNvNtNtCsbrO2ourfQV3_15tensor4all_core8defaults12tensordynlen23diag_tensor_dyn_len_c640B7_
FN:63,_RNCNvNtNtCsbrO2ourfQV3_15tensor4all_core8defaults12tensordynlen32compute_permutation_from_indices0B7_
FN:1481,_RNCNvXsc_NtNtCsbrO2ourfQV3_15tensor4all_core8defaults12tensordynlenNtB7_12TensorDynLenNtNtBb_11tensor_like10TensorLike4ones0Bb_
FN:867,_RNvMs5_NtNtCsbrO2ourfQV3_15tensor4all_core8defaults12tensordynlenNtB5_12TensorDynLen13inner_product
FN:794,_RNvMs5_NtNtCsbrO2ourfQV3_15tensor4all_core8defaults12tensordynlenNtB5_12TensorDynLen3add
FN:844,_RNvMs5_NtNtCsbrO2ourfQV3_15tensor4all_core8defaults12tensordynlenNtB5_12TensorDynLen5axpby
FN:854,_RNvMs5_NtNtCsbrO2ourfQV3_15tensor4all_core8defaults12tensordynlenNtB5_12TensorDynLen5scale
FN:926,_RNvMs7_NtNtCsbrO2ourfQV3_15tensor4all_core8defaults12tensordynlenNtB5_12TensorDynLen10replaceind
FN:984,_RNvMs7_NtNtCsbrO2ourfQV3_15tensor4all_core8defaults12tensordynlenNtB5_12TensorDynLen11replaceinds
FN:1046,_RNvMs8_NtNtCsbrO2ourfQV3_15tensor4all_core8defaults12tensordynlenNtB5_12TensorDynLen4conj
FN:1082,_RNvMs9_NtNtCsbrO2ourfQV3_15tensor4all_core8defaults12tensordynlenNtB5_12TensorDynLen12norm_squared
FN:1115,_RNvMs9_NtNtCsbrO2ourfQV3_15tensor4all_core8defaults12tensordynlenNtB5_12TensorDynLen4norm
FN:1154,_RNvMs9_NtNtCsbrO2ourfQV3_15tensor4all_core8defaults12tensordynlenNtB5_12TensorDynLen8distance
FN:211,_RNvMs_NtNtCsbrO2ourfQV3_15tensor4all_core8defaults12tensordynlenNtB4_12TensorDynLen11tensor_data
FN:193,_RNvMs_NtNtCsbrO2ourfQV3_15tensor4all_core8defaults12tensordynlenNtB4_12TensorDynLen11try_storage
FN:168,_RNvMs_NtNtCsbrO2ourfQV3_15tensor4all_core8defaults12tensordynlenNtB4_12TensorDynLen12from_indices
FN:575,_RNvMs_NtNtCsbrO2ourfQV3_15tensor4all_core8defaults12tensordynlenNtB4_12TensorDynLen13outer_product
FN:306,_RNvMs_NtNtCsbrO2ourfQV3_15tensor4all_core8defaults12tensordynlenNtB4_12TensorDynLen15permute_indices
FN:201,_RNvMs_NtNtCsbrO2ourfQV3_15tensor4all_core8defaults12tensordynlenNtB4_12TensorDynLen19materialize_storage
FN:121,_RNvMs_NtNtCsbrO2ourfQV3_15tensor4all_core8defaults12tensordynlenNtB4_12TensorDynLen3new
FN:227,_RNvMs_NtNtCsbrO2ourfQV3_15tensor4all_core8defaults12tensordynlenNtB4_12TensorDynLen3sum
FN:260,_RNvMs_NtNtCsbrO2ourfQV3_15tensor4all_core8defaults12tensordynlenNtB4_12TensorDynLen4only
FN:352,_RNvMs_NtNtCsbrO2ourfQV3_15tensor4all_core8defaults12tensordynlenNtB4_12TensorDynLen7permute
FN:183,_RNvMs_NtNtCsbrO2ourfQV3_15tensor4all_core8defaults12tensordynlenNtB4_12TensorDynLen7storage
FN:232,_RNvMs_NtNtCsbrO2ourfQV3_15tensor4all_core8defaults12tensordynlenNtB4_12TensorDynLen7sum_f64
FN:413,_RNvMs_NtNtCsbrO2ourfQV3_15tensor4all_core8defaults12tensordynlenNtB4_12TensorDynLen8contract
FN:218,_RNvMs_NtNtCsbrO2ourfQV3_15tensor4all_core8defaults12tensordynlenNtB4_12TensorDynLen9from_data
FN:174,_RNvMs_NtNtCsbrO2ourfQV3_15tensor4all_core8defaults12tensordynlenNtB4_12TensorDynLen9is_simple
FN:481,_RNvMs_NtNtCsbrO2ourfQV3_15tensor4all_core8defaults12tensordynlenNtB4_12TensorDynLen9tensordot
FN:751,_RNvNtNtCsbrO2ourfQV3_15tensor4all_core8defaults12tensordynlen14is_diag_tensor
FN:1195,_RNvNtNtCsbrO2ourfQV3_15tensor4all_core8defaults12tensordynlen19diag_tensor_dyn_len
FN:1221,_RNvNtNtCsbrO2ourfQV3_15tensor4all_core8defaults12tensordynlen23diag_tensor_dyn_len_c64
FN:45,_RNvNtNtCsbrO2ourfQV3_15tensor4all_core8defaults12tensordynlen32compute_permutation_from_indices
FN:108,_RNvXNtNtCsbrO2ourfQV3_15tensor4all_core8defaults12tensordynlenNtB2_12TensorDynLenNtB2_12TensorAccess4data
FN:104,_RNvXNtNtCsbrO2ourfQV3_15tensor4all_core8defaults12tensordynlenNtB2_12TensorDynLenNtB2_12TensorAccess7indices
FN:716,_RNvXs1_NtNtCsbrO2ourfQV3_15tensor4all_core8defaults12tensordynlenRNtB5_12TensorDynLenNtNtNtCskzPJi2J8k3N_4core3ops5arith3Mul3mul
FN:727,_RNvXs2_NtNtCsbrO2ourfQV3_15tensor4all_core8defaults12tensordynlenNtB5_12TensorDynLenNtNtNtCskzPJi2J8k3N_4core3ops5arith3Mul3mul
FN:736,_RNvXs3_NtNtCsbrO2ourfQV3_15tensor4all_core8defaults12tensordynlenRNtB5_12TensorDynLenINtNtNtCskzPJi2J8k3N_4core3ops5arith3MulB12_E3mul
FN:745,_RNvXs4_NtNtCsbrO2ourfQV3_15tensor4all_core8defaults12tensordynlenNtB5_12TensorDynLenINtNtNtCskzPJi2J8k3N_4core3ops5arith3MulRB11_E3mul
FN:878,_RNvXs6_NtNtCsbrO2ourfQV3_15tensor4all_core8defaults12tensordynlenNtB5_12TensorDynLenNtNtCskzPJi2J8k3N_4core5clone5Clone5clone
FN:1178,_RNvXsa_NtNtCsbrO2ourfQV3_15tensor4all_core8defaults12tensordynlenNtB5_12TensorDynLenNtNtCskzPJi2J8k3N_4core3fmt5Debug3fmt
FN:1361,_RNvXsb_NtNtCsbrO2ourfQV3_15tensor4all_core8defaults12tensordynlenNtB5_12TensorDynLenNtNtB9_12tensor_index11TensorIndex10replaceind
FN:1366,_RNvXsb_NtNtCsbrO2ourfQV3_15tensor4all_core8defaults12tensordynlenNtB5_12TensorDynLenNtNtB9_12tensor_index11TensorIndex11replaceinds
FN:1352,_RNvXsb_NtNtCsbrO2ourfQV3_15tensor4all_core8defaults12tensordynlenNtB5_12TensorDynLenNtNtB9_12tensor_index11TensorIndex16external_indices
FN:1357,_RNvXsb_NtNtCsbrO2ourfQV3_15tensor4all_core8defaults12tensordynlenNtB5_12TensorDynLenNtNtB9_12tensor_index11TensorIndex20num_external_indices
FN:1392,_RNvXsc_NtNtCsbrO2ourfQV3_15tensor4all_core8defaults12tensordynlenNtB5_12TensorDynLenNtNtB9_11tensor_like10TensorLike10direct_sum
FN:1470,_RNvXsc_NtNtCsbrO2ourfQV3_15tensor4all_core8defaults12tensordynlenNtB5_12TensorDynLenNtNtB9_11tensor_like10TensorLike10scalar_one
FN:1414,_RNvXsc_NtNtCsbrO2ourfQV3_15tensor4all_core8defaults12tensordynlenNtB5_12TensorDynLenNtNtB9_11tensor_like10TensorLike11permuteinds
FN:1409,_RNvXsc_NtNtCsbrO2ourfQV3_15tensor4all_core8defaults12tensordynlenNtB5_12TensorDynLenNtNtB9_11tensor_like10TensorLike12norm_squared
FN:1439,_RNvXsc_NtNtCsbrO2ourfQV3_15tensor4all_core8defaults12tensordynlenNtB5_12TensorDynLenNtNtB9_11tensor_like10TensorLike13inner_product
FN:1404,_RNvXsc_NtNtCsbrO2ourfQV3_15tensor4all_core8defaults12tensordynlenNtB5_12TensorDynLenNtNtB9_11tensor_like10TensorLike13outer_product
FN:1424,_RNvXsc_NtNtCsbrO2ourfQV3_15tensor4all_core8defaults12tensordynlenNtB5_12TensorDynLenNtNtB9_11tensor_like10TensorLike18contract_connected
FN:1387,_RNvXsc_NtNtCsbrO2ourfQV3_15tensor4all_core8defaults12tensordynlenNtB5_12TensorDynLenNtNtB9_11tensor_like10TensorLike4conj
FN:1476,_RNvXsc_NtNtCsbrO2ourfQV3_15tensor4all_core8defaults12tensordynlenNtB5_12TensorDynLenNtNtB9_11tensor_like10TensorLike4ones
FN:1429,_RNvXsc_NtNtCsbrO2ourfQV3_15tensor4all_core8defaults12tensordynlenNtB5_12TensorDynLenNtNtB9_11tensor_like10TensorLike5axpby
FN:1434,_RNvXsc_NtNtCsbrO2ourfQV3_15tensor4all_core8defaults12tensordynlenNtB5_12TensorDynLenNtNtB9_11tensor_like10TensorLike5scale
FN:1419,_RNvXsc_NtNtCsbrO2ourfQV3_15tensor4all_core8defaults12tensordynlenNtB5_12TensorDynLenNtNtB9_11tensor_like10TensorLike8contract
FN:1444,_RNvXsc_NtNtCsbrO2ourfQV3_15tensor4all_core8defaults12tensordynlenNtB5_12TensorDynLenNtNtB9_11tensor_like10TensorLike8diagonal
FN:1379,_RNvXsc_NtNtCsbrO2ourfQV3_15tensor4all_core8defaults12tensordynlenNtB5_12TensorDynLenNtNtB9_11tensor_like10TensorLike9factorize
FNDA:0,_RINvMs0_NtNtCsbrO2ourfQV3_15tensor4all_core8defaults12tensordynlenNtB6_12TensorDynLen10random_c64pEBa_
FNDA:0,_RINvMs0_NtNtCsbrO2ourfQV3_15tensor4all_core8defaults12tensordynlenNtB6_12TensorDynLen10random_f64pEBa_
FNDA:0,_RNCINvMs0_NtNtCsbrO2ourfQV3_15tensor4all_core8defaults12tensordynlenNtB8_12TensorDynLen10random_c64pE0Bc_
FNDA:0,_RNCINvMs0_NtNtCsbrO2ourfQV3_15tensor4all_core8defaults12tensordynlenNtB8_12TensorDynLen10random_f64pE0Bc_
FNDA:0,_RINvNtNtCsbrO2ourfQV3_15tensor4all_core8defaults12tensordynlen12unfold_splitINtCsggbFOsTKhzv_11num_complex7ComplexdEEB6_
FNDA:16,_RINvNtNtCsbrO2ourfQV3_15tensor4all_core8defaults12tensordynlen12unfold_splitdEB6_
FNDA:0,_RNCINvNtNtCsbrO2ourfQV3_15tensor4all_core8defaults12tensordynlen12unfold_splitINtCsggbFOsTKhzv_11num_complex7ComplexdEE0B8_
FNDA:0,_RNCINvNtNtCsbrO2ourfQV3_15tensor4all_core8defaults12tensordynlen12unfold_splitdE0B8_
FNDA:0,_RNCNvMs5_NtNtCsbrO2ourfQV3_15tensor4all_core8defaults12tensordynlenNtB7_12TensorDynLen3add0Bb_
FNDA:18,_RNCNvMs7_NtNtCsbrO2ourfQV3_15tensor4all_core8defaults12tensordynlenNtB7_12TensorDynLen10replaceind0Bb_
FNDA:18,_RNCNvMs7_NtNtCsbrO2ourfQV3_15tensor4all_core8defaults12tensordynlenNtB7_12TensorDynLen10replaceinds_0Bb_
FNDA:0,_RNCNvMs7_NtNtCsbrO2ourfQV3_15tensor4all_core8defaults12tensordynlenNtB7_12TensorDynLen11replaceinds0Bb_
FNDA:0,_RNCNvMs7_NtNtCsbrO2ourfQV3_15tensor4all_core8defaults12tensordynlenNtB7_12TensorDynLen11replaceindss_0Bb_
FNDA:8,_RNCNvMs8_NtNtCsbrO2ourfQV3_15tensor4all_core8defaults12tensordynlenNtB7_12TensorDynLen4conj0Bb_
FNDA:79,_RNCNvMs_NtNtCsbrO2ourfQV3_15tensor4all_core8defaults12tensordynlenNtB6_12TensorDynLen12from_indices0Ba_
FNDA:0,_RNCNvMs_NtNtCsbrO2ourfQV3_15tensor4all_core8defaults12tensordynlenNtB6_12TensorDynLen13outer_product0Ba_
FNDA:39,_RNCNvMs_NtNtCsbrO2ourfQV3_15tensor4all_core8defaults12tensordynlenNtB6_12TensorDynLen15permute_indices0Ba_
FNDA:378,_RNCNvMs_NtNtCsbrO2ourfQV3_15tensor4all_core8defaults12tensordynlenNtB6_12TensorDynLen3new0Ba_
FNDA:0,_RNCNvMs_NtNtCsbrO2ourfQV3_15tensor4all_core8defaults12tensordynlenNtB6_12TensorDynLen7permute0Ba_
FNDA:0,_RNCNvMs_NtNtCsbrO2ourfQV3_15tensor4all_core8defaults12tensordynlenNtB6_12TensorDynLen7permutes_0Ba_
FNDA:0,_RNCNvMs_NtNtCsbrO2ourfQV3_15tensor4all_core8defaults12tensordynlenNtB6_12TensorDynLen9tensordot0Ba_
FNDA:0,_RNCNvNtNtCsbrO2ourfQV3_15tensor4all_core8defaults12tensordynlen19diag_tensor_dyn_len0B7_
FNDA:0,_RNCNvNtNtCsbrO2ourfQV3_15tensor4all_core8defaults12tensordynlen23diag_tensor_dyn_len_c640B7_
FNDA:69,_RNCNvNtNtCsbrO2ourfQV3_15tensor4all_core8defaults12tensordynlen32compute_permutation_from_indices0B7_
FNDA:0,_RNCNvXsc_NtNtCsbrO2ourfQV3_15tensor4all_core8defaults12tensordynlenNtB7_12TensorDynLenNtNtBb_11tensor_like10TensorLike4ones0Bb_
FNDA:0,_RNvMs5_NtNtCsbrO2ourfQV3_15tensor4all_core8defaults12tensordynlenNtB5_12TensorDynLen13inner_product
FNDA:0,_RNvMs5_NtNtCsbrO2ourfQV3_15tensor4all_core8defaults12tensordynlenNtB5_12TensorDynLen3add
FNDA:0,_RNvMs5_NtNtCsbrO2ourfQV3_15tensor4all_core8defaults12tensordynlenNtB5_12TensorDynLen5axpby
FNDA:0,_RNvMs5_NtNtCsbrO2ourfQV3_15tensor4all_core8defaults12tensordynlenNtB5_12TensorDynLen5scale
FNDA:8,_RNvMs7_NtNtCsbrO2ourfQV3_15tensor4all_core8defaults12tensordynlenNtB5_12TensorDynLen10replaceind
FNDA:0,_RNvMs7_NtNtCsbrO2ourfQV3_15tensor4all_core8defaults12tensordynlenNtB5_12TensorDynLen11replaceinds
FNDA:4,_RNvMs8_NtNtCsbrO2ourfQV3_15tensor4all_core8defaults12tensordynlenNtB5_12TensorDynLen4conj
FNDA:0,_RNvMs9_NtNtCsbrO2ourfQV3_15tensor4all_core8defaults12tensordynlenNtB5_12TensorDynLen12norm_squared
FNDA:0,_RNvMs9_NtNtCsbrO2ourfQV3_15tensor4all_core8defaults12tensordynlenNtB5_12TensorDynLen4norm
FNDA:0,_RNvMs9_NtNtCsbrO2ourfQV3_15tensor4all_core8defaults12tensordynlenNtB5_12TensorDynLen8distance
FNDA:0,_RNvMs_NtNtCsbrO2ourfQV3_15tensor4all_core8defaults12tensordynlenNtB4_12TensorDynLen11tensor_data
FNDA:0,_RNvMs_NtNtCsbrO2ourfQV3_15tensor4all_core8defaults12tensordynlenNtB4_12TensorDynLen11try_storage
FNDA:36,_RNvMs_NtNtCsbrO2ourfQV3_15tensor4all_core8defaults12tensordynlenNtB4_12TensorDynLen12from_indices
FNDA:3,_RNvMs_NtNtCsbrO2ourfQV3_15tensor4all_core8defaults12tensordynlenNtB4_12TensorDynLen13outer_product
FNDA:16,_RNvMs_NtNtCsbrO2ourfQV3_15tensor4all_core8defaults12tensordynlenNtB4_12TensorDynLen15permute_indices
FNDA:0,_RNvMs_NtNtCsbrO2ourfQV3_15tensor4all_core8defaults12tensordynlenNtB4_12TensorDynLen19materialize_storage
FNDA:176,_RNvMs_NtNtCsbrO2ourfQV3_15tensor4all_core8defaults12tensordynlenNtB4_12TensorDynLen3new
FNDA:2,_RNvMs_NtNtCsbrO2ourfQV3_15tensor4all_core8defaults12tensordynlenNtB4_12TensorDynLen3sum
FNDA:2,_RNvMs_NtNtCsbrO2ourfQV3_15tensor4all_core8defaults12tensordynlenNtB4_12TensorDynLen4only
FNDA:0,_RNvMs_NtNtCsbrO2ourfQV3_15tensor4all_core8defaults12tensordynlenNtB4_12TensorDynLen7permute
FNDA:182,_RNvMs_NtNtCsbrO2ourfQV3_15tensor4all_core8defaults12tensordynlenNtB4_12TensorDynLen7storage
FNDA:0,_RNvMs_NtNtCsbrO2ourfQV3_15tensor4all_core8defaults12tensordynlenNtB4_12TensorDynLen7sum_f64
FNDA:10,_RNvMs_NtNtCsbrO2ourfQV3_15tensor4all_core8defaults12tensordynlenNtB4_12TensorDynLen8contract
FNDA:8,_RNvMs_NtNtCsbrO2ourfQV3_15tensor4all_core8defaults12tensordynlenNtB4_12TensorDynLen9from_data
FNDA:0,_RNvMs_NtNtCsbrO2ourfQV3_15tensor4all_core8defaults12tensordynlenNtB4_12TensorDynLen9is_simple
FNDA:17,_RNvMs_NtNtCsbrO2ourfQV3_15tensor4all_core8defaults12tensordynlenNtB4_12TensorDynLen9tensordot
FNDA:0,_RNvNtNtCsbrO2ourfQV3_15tensor4all_core8defaults12tensordynlen14is_diag_tensor
FNDA:0,_RNvNtNtCsbrO2ourfQV3_15tensor4all_core8defaults12tensordynlen19diag_tensor_dyn_len
FNDA:0,_RNvNtNtCsbrO2ourfQV3_15tensor4all_core8defaults12tensordynlen23diag_tensor_dyn_len_c64
FNDA:16,_RNvNtNtCsbrO2ourfQV3_15tensor4all_core8defaults12tensordynlen32compute_permutation_from_indices
FNDA:0,_RNvXNtNtCsbrO2ourfQV3_15tensor4all_core8defaults12tensordynlenNtB2_12TensorDynLenNtB2_12TensorAccess4data
FNDA:66,_RNvXNtNtCsbrO2ourfQV3_15tensor4all_core8defaults12tensordynlenNtB2_12TensorDynLenNtB2_12TensorAccess7indices
FNDA:0,_RNvXs1_NtNtCsbrO2ourfQV3_15tensor4all_core8defaults12tensordynlenRNtB5_12TensorDynLenNtNtNtCskzPJi2J8k3N_4core3ops5arith3Mul3mul
FNDA:0,_RNvXs2_NtNtCsbrO2ourfQV3_15tensor4all_core8defaults12tensordynlenNtB5_12TensorDynLenNtNtNtCskzPJi2J8k3N_4core3ops5arith3Mul3mul
FNDA:0,_RNvXs3_NtNtCsbrO2ourfQV3_15tensor4all_core8defaults12tensordynlenRNtB5_12TensorDynLenINtNtNtCskzPJi2J8k3N_4core3ops5arith3MulB12_E3mul
FNDA:0,_RNvXs4_NtNtCsbrO2ourfQV3_15tensor4all_core8defaults12tensordynlenNtB5_12TensorDynLenINtNtNtCskzPJi2J8k3N_4core3ops5arith3MulRB11_E3mul
FNDA:175,_RNvXs6_NtNtCsbrO2ourfQV3_15tensor4all_core8defaults12tensordynlenNtB5_12TensorDynLenNtNtCskzPJi2J8k3N_4core5clone5Clone5clone
FNDA:0,_RNvXsa_NtNtCsbrO2ourfQV3_15tensor4all_core8defaults12tensordynlenNtB5_12TensorDynLenNtNtCskzPJi2J8k3N_4core3fmt5Debug3fmt
FNDA:0,_RNvXsb_NtNtCsbrO2ourfQV3_15tensor4all_core8defaults12tensordynlenNtB5_12TensorDynLenNtNtB9_12tensor_index11TensorIndex10replaceind
FNDA:0,_RNvXsb_NtNtCsbrO2ourfQV3_15tensor4all_core8defaults12tensordynlenNtB5_12TensorDynLenNtNtB9_12tensor_index11TensorIndex11replaceinds
FNDA:475,_RNvXsb_NtNtCsbrO2ourfQV3_15tensor4all_core8defaults12tensordynlenNtB5_12TensorDynLenNtNtB9_12tensor_index11TensorIndex16external_indices
FNDA:76,_RNvXsb_NtNtCsbrO2ourfQV3_15tensor4all_core8defaults12tensordynlenNtB5_12TensorDynLenNtNtB9_12tensor_index11TensorIndex20num_external_indices
FNDA:0,_RNvXsc_NtNtCsbrO2ourfQV3_15tensor4all_core8defaults12tensordynlenNtB5_12TensorDynLenNtNtB9_11tensor_like10TensorLike10direct_sum
FNDA:0,_RNvXsc_NtNtCsbrO2ourfQV3_15tensor4all_core8defaults12tensordynlenNtB5_12TensorDynLenNtNtB9_11tensor_like10TensorLike10scalar_one
FNDA:0,_RNvXsc_NtNtCsbrO2ourfQV3_15tensor4all_core8defaults12tensordynlenNtB5_12TensorDynLenNtNtB9_11tensor_like10TensorLike11permuteinds
FNDA:0,_RNvXsc_NtNtCsbrO2ourfQV3_15tensor4all_core8defaults12tensordynlenNtB5_12TensorDynLenNtNtB9_11tensor_like10TensorLike12norm_squared
FNDA:0,_RNvXsc_NtNtCsbrO2ourfQV3_15tensor4all_core8defaults12tensordynlenNtB5_12TensorDynLenNtNtB9_11tensor_like10TensorLike13inner_product
FNDA:0,_RNvXsc_NtNtCsbrO2ourfQV3_15tensor4all_core8defaults12tensordynlenNtB5_12TensorDynLenNtNtB9_11tensor_like10TensorLike13outer_product
FNDA:0,_RNvXsc_NtNtCsbrO2ourfQV3_15tensor4all_core8defaults12tensordynlenNtB5_12TensorDynLenNtNtB9_11tensor_like10TensorLike18contract_connected
FNDA:0,_RNvXsc_NtNtCsbrO2ourfQV3_15tensor4all_core8defaults12tensordynlenNtB5_12TensorDynLenNtNtB9_11tensor_like10TensorLike4conj
FNDA:0,_RNvXsc_NtNtCsbrO2ourfQV3_15tensor4all_core8defaults12tensordynlenNtB5_12TensorDynLenNtNtB9_11tensor_like10TensorLike4ones
FNDA:0,_RNvXsc_NtNtCsbrO2ourfQV3_15tensor4all_core8defaults12tensordynlenNtB5_12TensorDynLenNtNtB9_11tensor_like10TensorLike5axpby
FNDA:0,_RNvXsc_NtNtCsbrO2ourfQV3_15tensor4all_core8defaults12tensordynlenNtB5_12TensorDynLenNtNtB9_11tensor_like10TensorLike5scale
FNDA:20,_RNvXsc_NtNtCsbrO2ourfQV3_15tensor4all_core8defaults12tensordynlenNtB5_12TensorDynLenNtNtB9_11tensor_like10TensorLike8contract
FNDA:0,_RNvXsc_NtNtCsbrO2ourfQV3_15tensor4all_core8defaults12tensordynlenNtB5_12TensorDynLenNtNtB9_11tensor_like10TensorLike8diagonal
FNDA:16,_RNvXsc_NtNtCsbrO2ourfQV3_15tensor4all_core8defaults12tensordynlenNtB5_12TensorDynLenNtNtB9_11tensor_like10TensorLike9factorize
FNF:79
FNH:27
DA:45,16
DA:46,16
DA:47,16
DA:48,16
DA:49,16
DA:50,16
DA:51,16
DA:52,0
DA:55,16
DA:56,16
DA:58,55
DA:61,39
DA:62,39
DA:63,69
DA:64,39
DA:66,39
DA:67,0
DA:68,39
DA:69,39
DA:70,39
DA:73,16
DA:74,16
DA:104,66
DA:105,66
DA:106,66
DA:108,0
DA:111,0
DA:112,0
DA:121,176
DA:122,176
DA:123,176
DA:124,176
DA:125,0
DA:130,176
DA:131,554
DA:132,378
DA:133,0
DA:134,378
DA:139,176
DA:140,4
DA:141,8
DA:142,8
DA:144,0
DA:148,172
DA:151,378
DA:152,176
DA:154,176
DA:155,176
DA:156,176
DA:157,176
DA:158,176
DA:159,176
DA:168,36
DA:169,79
DA:170,36
DA:171,36
DA:174,0
DA:175,0
DA:176,0
DA:183,182
DA:184,182
DA:185,182
DA:186,182
DA:187,182
DA:193,0
DA:194,0
DA:195,0
DA:201,0
DA:202,0
DA:203,0
DA:205,0
DA:206,0
DA:208,0
DA:211,0
DA:212,0
DA:213,0
DA:218,8
DA:219,8
DA:220,8
DA:221,8
DA:222,8
DA:223,8
DA:224,8
DA:227,2
DA:228,2
DA:229,2
DA:232,0
DA:233,0
DA:234,0
DA:260,2
DA:261,2
DA:262,2
DA:263,2
DA:264,0
DA:265,0
DA:268,2
DA:269,2
DA:306,16
DA:308,16
DA:311,39
DA:314,16
DA:316,16
DA:317,16
DA:352,0
DA:353,0
DA:354,0
DA:355,0
DA:356,0
DA:360,0
DA:361,0
DA:364,0
DA:366,0
DA:367,0
DA:413,10
DA:414,10
DA:415,10
DA:417,10
DA:418,10
DA:419,10
DA:420,10
DA:421,10
DA:422,10
DA:423,10
DA:424,10
DA:427,10
DA:428,10
DA:481,17
DA:484,17
DA:485,17
DA:486,17
DA:487,17
DA:488,17
DA:489,17
DA:491,17
DA:493,0
DA:495,0
DA:496,0
DA:497,0
DA:499,0
DA:500,0
DA:503,0
DA:504,0
DA:505,0
DA:506,0
DA:507,0
DA:508,0
DA:514,0
DA:515,0
DA:517,0
DA:519,17
DA:520,17
DA:521,17
DA:522,17
DA:523,17
DA:524,17
DA:525,17
DA:526,17
DA:529,17
DA:530,17
DA:531,17
DA:532,17
DA:533,17
DA:534,17
DA:575,3
DA:580,3
DA:581,3
DA:582,0
DA:583,0
DA:584,0
DA:585,0
DA:586,0
DA:587,0
DA:588,0
DA:589,0
DA:590,0
DA:591,0
DA:592,0
DA:593,3
DA:596,3
DA:597,3
DA:599,3
DA:600,3
DA:603,3
DA:604,3
DA:605,3
DA:606,3
DA:607,3
DA:608,3
DA:609,3
DA:610,3
DA:613,3
DA:614,3
DA:641,0
DA:642,0
DA:643,0
DA:644,0
DA:645,0
DA:646,0
DA:647,0
DA:648,0
DA:671,0
DA:672,0
DA:673,0
DA:674,0
DA:675,0
DA:676,0
DA:677,0
DA:678,0
DA:716,0
DA:717,0
DA:718,0
DA:727,0
DA:728,0
DA:729,0
DA:736,0
DA:737,0
DA:738,0
DA:745,0
DA:746,0
DA:747,0
DA:751,0
DA:752,0
DA:753,0
DA:794,0
DA:796,0
DA:797,0
DA:798,0
DA:799,0
DA:800,0
DA:801,0
DA:802,0
DA:805,0
DA:806,0
DA:808,0
DA:809,0
DA:810,0
DA:811,0
DA:812,0
DA:815,0
DA:818,0
DA:819,0
DA:820,0
DA:821,0
DA:822,0
DA:823,0
DA:824,0
DA:827,0
DA:828,0
DA:831,0
DA:832,0
DA:833,0
DA:834,0
DA:836,0
DA:837,0
DA:838,0
DA:839,0
DA:840,0
DA:841,0
DA:844,0
DA:846,0
DA:848,0
DA:850,0
DA:851,0
DA:854,0
DA:855,0
DA:856,0
DA:857,0
DA:858,0
DA:859,0
DA:860,0
DA:861,0
DA:862,0
DA:867,0
DA:869,0
DA:870,0
DA:871,0
DA:873,0
DA:874,0
DA:878,175
DA:879,175
DA:880,175
DA:881,175
DA:882,175
DA:883,175
DA:884,175
DA:926,8
DA:927,8
DA:928,8
DA:929,8
DA:930,18
DA:931,18
DA:932,8
DA:934,10
DA:936,18
DA:937,8
DA:940,18
DA:941,8
DA:943,8
DA:944,8
DA:984,0
DA:985,0
DA:986,0
DA:987,0
DA:988,0
DA:992,0
DA:993,0
DA:995,0
DA:996,0
DA:997,0
DA:998,0
DA:999,0
DA:1000,0
DA:1002,0
DA:1004,0
DA:1005,0
DA:1008,0
DA:1009,0
DA:1011,0
DA:1012,0
DA:1046,4
DA:1050,8
DA:1051,4
DA:1052,4
DA:1053,4
DA:1082,0
DA:1084,0
DA:1086,0
DA:1087,0
DA:1088,0
DA:1089,0
DA:1093,0
DA:1094,0
DA:1095,0
DA:1096,0
DA:1115,0
DA:1116,0
DA:1117,0
DA:1154,0
DA:1155,0
DA:1158,0
DA:1159,0
DA:1160,0
DA:1161,0
DA:1162,0
DA:1164,0
DA:1165,0
DA:1166,0
DA:1167,0
DA:1169,0
DA:1170,0
DA:1172,0
DA:1174,0
DA:1178,0
DA:1179,0
DA:1180,0
DA:1181,0
DA:1182,0
DA:1183,0
DA:1184,0
DA:1195,0
DA:1196,0
DA:1197,0
DA:1200,0
DA:1201,0
DA:1203,0
DA:1208,0
DA:1209,0
DA:1211,0
DA:1212,0
DA:1216,0
DA:1217,0
DA:1218,0
DA:1221,0
DA:1222,0
DA:1223,0
DA:1226,0
DA:1227,0
DA:1229,0
DA:1234,0
DA:1235,0
DA:1237,0
DA:1238,0
DA:1242,0
DA:1243,0
DA:1244,0
DA:1271,16
DA:1272,16
DA:1273,16
DA:1274,16
DA:1275,16
DA:1276,16
DA:1277,16
DA:1278,16
DA:1279,16
DA:1280,16
DA:1281,16
DA:1282,16
DA:1285,16
DA:1287,16
DA:1290,16
DA:1291,16
DA:1292,0
DA:1298,16
DA:1299,16
DA:1301,37
DA:1302,21
DA:1303,21
DA:1304,0
DA:1306,21
DA:1310,16
DA:1311,55
DA:1312,39
DA:1313,18
DA:1314,21
DA:1318,16
DA:1319,16
DA:1320,16
DA:1323,16
DA:1326,16
DA:1327,16
DA:1330,16
DA:1331,16
DA:1333,16
DA:1334,16
DA:1335,16
DA:1336,16
DA:1337,16
DA:1338,16
DA:1339,16
DA:1340,16
DA:1341,16
DA:1352,475
DA:1354,475
DA:1355,475
DA:1357,76
DA:1358,76
DA:1359,76
DA:1361,0
DA:1363,0
DA:1364,0
DA:1366,0
DA:1368,0
DA:1369,0
DA:1379,16
DA:1380,16
DA:1381,16
DA:1382,16
DA:1383,16
DA:1384,16
DA:1385,16
DA:1387,0
DA:1389,0
DA:1390,0
DA:1392,0
DA:1393,0
DA:1394,0
DA:1395,0
DA:1396,0
DA:1397,0
DA:1398,0
DA:1399,0
DA:1400,0
DA:1401,0
DA:1402,0
DA:1404,0
DA:1406,0
DA:1407,0
DA:1409,0
DA:1411,0
DA:1412,0
DA:1414,0
DA:1416,0
DA:1417,0
DA:1419,20
DA:1421,20
DA:1422,20
DA:1424,0
DA:1426,0
DA:1427,0
DA:1429,0
DA:1431,0
DA:1432,0
DA:1434,0
DA:1436,0
DA:1437,0
DA:1439,0
DA:1441,0
DA:1442,0
DA:1444,0
DA:1447,0
DA:1448,0
DA:1449,0
DA:1450,0
DA:1451,0
DA:1452,0
DA:1453,0
DA:1454,0
DA:1457,0
DA:1458,0
DA:1459,0
DA:1460,0
DA:1462,0
DA:1463,0
DA:1464,0
DA:1465,0
DA:1466,0
DA:1467,0
DA:1468,0
DA:1470,0
DA:1472,0
DA:1473,0
DA:1474,0
DA:1476,0
DA:1478,0
DA:1479,0
DA:1480,0
DA:1481,0
DA:1482,0
DA:1483,0
DA:1484,0
DA:1485,0
DA:1486,0
DA:1487,0
DA:1488,0
BRF:0
BRH:0
LF:545
LH:221
end_of_record
SF:/Users/ken/git_for_collab4/tensor4all-rs/crates/tensor4all-core/src/global_default.rs
FN:71,_RNvMNtCsbrO2ourfQV3_15tensor4all_core14global_defaultNtB2_13GlobalDefault13set_unchecked
FN:49,_RNvMNtCsbrO2ourfQV3_15tensor4all_core14global_defaultNtB2_13GlobalDefault3get
FN:41,_RNvMNtCsbrO2ourfQV3_15tensor4all_core14global_defaultNtB2_13GlobalDefault3new
FN:58,_RNvMNtCsbrO2ourfQV3_15tensor4all_core14global_defaultNtB2_13GlobalDefault3set
FNDA:0,_RNvMNtCsbrO2ourfQV3_15tensor4all_core14global_defaultNtB2_13GlobalDefault13set_unchecked
FNDA:14,_RNvMNtCsbrO2ourfQV3_15tensor4all_core14global_defaultNtB2_13GlobalDefault3get
FNDA:0,_RNvMNtCsbrO2ourfQV3_15tensor4all_core14global_defaultNtB2_13GlobalDefault3new
FNDA:0,_RNvMNtCsbrO2ourfQV3_15tensor4all_core14global_defaultNtB2_13GlobalDefault3set
FNF:4
FNH:1
DA:41,0
DA:42,0
DA:43,0
DA:44,0
DA:45,0
DA:49,14
DA:50,14
DA:51,14
DA:58,0
DA:59,0
DA:60,0
DA:61,0
DA:62,0
DA:63,0
DA:64,0
DA:71,0
DA:72,0
DA:73,0
BRF:0
BRH:0
LF:18
LH:3
end_of_record
SF:/Users/ken/git_for_collab4/tensor4all-rs/crates/tensor4all-core/src/index_like.rs
FN:161,_RNvYINtNtNtCsbrO2ourfQV3_15tensor4all_core8defaults5index5IndexNtB5_5DynIdENtNtB9_10index_like9IndexLike7same_idCsaRfSWFUMrL5_22tensor4all_itensorlike
FN:146,_RNvYINtNtNtCsbrO2ourfQV3_15tensor4all_core8defaults5index5IndexNtB5_5DynIdENtNtB9_10index_like9IndexLike15is_contractableB9_
FN:168,_RNvYpNtNtCsbrO2ourfQV3_15tensor4all_core10index_like9IndexLike6has_idB7_
FN:161,_RNvYpNtNtCsbrO2ourfQV3_15tensor4all_core10index_like9IndexLike7same_idB7_
FN:161,_RNvYINtNtNtCsbrO2ourfQV3_15tensor4all_core8defaults5index5IndexNtB5_5DynIdENtNtB9_10index_like9IndexLike7same_idCsk8nCQTNnVi9_22tensor4all_itensorlike
FNDA:4,_RNvYINtNtNtCsbrO2ourfQV3_15tensor4all_core8defaults5index5IndexNtB5_5DynIdENtNtB9_10index_like9IndexLike7same_idCsaRfSWFUMrL5_22tensor4all_itensorlike
FNDA:357,_RNvYINtNtNtCsbrO2ourfQV3_15tensor4all_core8defaults5index5IndexNtB5_5DynIdENtNtB9_10index_like9IndexLike15is_contractableB9_
FNDA:0,_RNvYpNtNtCsbrO2ourfQV3_15tensor4all_core10index_like9IndexLike6has_idB7_
FNDA:0,_RNvYpNtNtCsbrO2ourfQV3_15tensor4all_core10index_like9IndexLike7same_idB7_
FNDA:84,_RNvYINtNtNtCsbrO2ourfQV3_15tensor4all_core8defaults5index5IndexNtB5_5DynIdENtNtB9_10index_like9IndexLike7same_idCsk8nCQTNnVi9_22tensor4all_itensorlike
FNF:3
FNH:2
DA:146,357
DA:147,357
DA:148,277
DA:149,80
DA:150,80
DA:151,0
DA:152,80
DA:153,0
DA:155,357
DA:161,88
DA:162,88
DA:163,88
DA:168,0
DA:169,0
DA:170,0
BRF:0
BRH:0
LF:15
LH:10
end_of_record
SF:/Users/ken/git_for_collab4/tensor4all-rs/crates/tensor4all-core/src/index_ops.rs
FN:470,_RINvNtCsbrO2ourfQV3_15tensor4all_core9index_ops11common_indsINtNtNtB4_8defaults5index5IndexNtBZ_5DynIdEECsaRfSWFUMrL5_22tensor4all_itensorlike
FN:435,_RINvNtCsbrO2ourfQV3_15tensor4all_core9index_ops13hascommonindsINtNtNtB4_8defaults5index5IndexNtB11_5DynIdEECsaRfSWFUMrL5_22tensor4all_itensorlike
FN:471,_RNCINvNtCsbrO2ourfQV3_15tensor4all_core9index_ops11common_indsINtNtNtB6_8defaults5index5IndexNtB11_5DynIdEE0CsaRfSWFUMrL5_22tensor4all_itensorlike
FN:474,_RNCINvNtCsbrO2ourfQV3_15tensor4all_core9index_ops11common_indsINtNtNtB6_8defaults5index5IndexNtB11_5DynIdEEs_0CsaRfSWFUMrL5_22tensor4all_itensorlike
FN:436,_RNCINvNtCsbrO2ourfQV3_15tensor4all_core9index_ops13hascommonindsINtNtNtB6_8defaults5index5IndexNtB13_5DynIdEE0CsaRfSWFUMrL5_22tensor4all_itensorlike
FN:437,_RNCINvNtCsbrO2ourfQV3_15tensor4all_core9index_ops13hascommonindsINtNtNtB6_8defaults5index5IndexNtB13_5DynIdEEs_0CsaRfSWFUMrL5_22tensor4all_itensorlike
FN:335,_RINvNtCsbrO2ourfQV3_15tensor4all_core9index_ops10union_indspEB4_
FN:470,_RINvNtCsbrO2ourfQV3_15tensor4all_core9index_ops11common_indspEB4_
FN:117,_RINvNtCsbrO2ourfQV3_15tensor4all_core9index_ops11replaceindspEB4_
FN:243,_RINvNtCsbrO2ourfQV3_15tensor4all_core9index_ops11unique_indspEB4_
FN:435,_RINvNtCsbrO2ourfQV3_15tensor4all_core9index_ops13hascommonindspEB4_
FN:282,_RINvNtCsbrO2ourfQV3_15tensor4all_core9index_ops14noncommon_indspEB4_
FN:69,_RINvNtCsbrO2ourfQV3_15tensor4all_core9index_ops20check_unique_indicespEB4_
FN:183,_RINvNtCsbrO2ourfQV3_15tensor4all_core9index_ops20replaceinds_in_placepEB4_
FN:376,_RINvNtCsbrO2ourfQV3_15tensor4all_core9index_ops6hasindpEB4_
FN:404,_RINvNtCsbrO2ourfQV3_15tensor4all_core9index_ops7hasindspEB4_
FN:471,_RNCINvNtCsbrO2ourfQV3_15tensor4all_core9index_ops11common_indspE0B6_
FN:474,_RNCINvNtCsbrO2ourfQV3_15tensor4all_core9index_ops11common_indspEs_0B6_
FN:244,_RNCINvNtCsbrO2ourfQV3_15tensor4all_core9index_ops11unique_indspE0B6_
FN:247,_RNCINvNtCsbrO2ourfQV3_15tensor4all_core9index_ops11unique_indspEs_0B6_
FN:436,_RNCINvNtCsbrO2ourfQV3_15tensor4all_core9index_ops13hascommonindspE0B6_
FN:437,_RNCINvNtCsbrO2ourfQV3_15tensor4all_core9index_ops13hascommonindspEs_0B6_
FN:283,_RNCINvNtCsbrO2ourfQV3_15tensor4all_core9index_ops14noncommon_indspE0B6_
FN:293,_RNCINvNtCsbrO2ourfQV3_15tensor4all_core9index_ops14noncommon_indspEs0_0B6_
FN:300,_RNCINvNtCsbrO2ourfQV3_15tensor4all_core9index_ops14noncommon_indspEs1_0B6_
FN:284,_RNCINvNtCsbrO2ourfQV3_15tensor4all_core9index_ops14noncommon_indspEs_0B6_
FN:377,_RNCINvNtCsbrO2ourfQV3_15tensor4all_core9index_ops6hasindpE0B6_
FN:405,_RNCINvNtCsbrO2ourfQV3_15tensor4all_core9index_ops7hasindspE0B6_
FN:406,_RNCINvNtCsbrO2ourfQV3_15tensor4all_core9index_ops7hasindspEs_0B6_
FN:607,_RINvNtCsbrO2ourfQV3_15tensor4all_core9index_ops19prepare_contractionINtNtNtB4_8defaults5index5IndexNtB17_5DynIdEEB4_
FN:500,_RINvNtCsbrO2ourfQV3_15tensor4all_core9index_ops20common_ind_positionsINtNtNtB4_8defaults5index5IndexNtB18_5DynIdEEB4_
FN:689,_RINvNtCsbrO2ourfQV3_15tensor4all_core9index_ops25prepare_contraction_pairsINtNtNtB4_8defaults5index5IndexNtB1d_5DynIdEEB4_
FN:703,_RNCINvNtCsbrO2ourfQV3_15tensor4all_core9index_ops25prepare_contraction_pairsINtNtNtB6_8defaults5index5IndexNtB1f_5DynIdEE0B6_
FN:722,_RNCINvNtCsbrO2ourfQV3_15tensor4all_core9index_ops25prepare_contraction_pairsINtNtNtB6_8defaults5index5IndexNtB1f_5DynIdEEs0_0B6_
FN:727,_RNCINvNtCsbrO2ourfQV3_15tensor4all_core9index_ops25prepare_contraction_pairsINtNtNtB6_8defaults5index5IndexNtB1f_5DynIdEEs1_0B6_
FN:704,_RNCINvNtCsbrO2ourfQV3_15tensor4all_core9index_ops25prepare_contraction_pairsINtNtNtB6_8defaults5index5IndexNtB1f_5DynIdEEs_0B6_
FN:23,_RNvXNtCsbrO2ourfQV3_15tensor4all_core9index_opsNtB2_16ReplaceIndsErrorNtNtCskzPJi2J8k3N_4core3fmt7Display3fmt
FN:551,_RNvXs0_NtCsbrO2ourfQV3_15tensor4all_core9index_opsNtB5_16ContractionErrorNtNtCskzPJi2J8k3N_4core3fmt7Display3fmt
FN:470,_RINvNtCsbrO2ourfQV3_15tensor4all_core9index_ops11common_indsINtNtNtB4_8defaults5index5IndexNtBZ_5DynIdEECsk8nCQTNnVi9_22tensor4all_itensorlike
FN:471,_RNCINvNtCsbrO2ourfQV3_15tensor4all_core9index_ops11common_indsINtNtNtB6_8defaults5index5IndexNtB11_5DynIdEE0Csk8nCQTNnVi9_22tensor4all_itensorlike
FN:474,_RNCINvNtCsbrO2ourfQV3_15tensor4all_core9index_ops11common_indsINtNtNtB6_8defaults5index5IndexNtB11_5DynIdEEs_0Csk8nCQTNnVi9_22tensor4all_itensorlike
FNDA:2,_RINvNtCsbrO2ourfQV3_15tensor4all_core9index_ops11common_indsINtNtNtB4_8defaults5index5IndexNtBZ_5DynIdEECsaRfSWFUMrL5_22tensor4all_itensorlike
FNDA:0,_RINvNtCsbrO2ourfQV3_15tensor4all_core9index_ops13hascommonindsINtNtNtB4_8defaults5index5IndexNtB11_5DynIdEECsaRfSWFUMrL5_22tensor4all_itensorlike
FNDA:4,_RNCINvNtCsbrO2ourfQV3_15tensor4all_core9index_ops11common_indsINtNtNtB6_8defaults5index5IndexNtB11_5DynIdEE0CsaRfSWFUMrL5_22tensor4all_itensorlike
FNDA:4,_RNCINvNtCsbrO2ourfQV3_15tensor4all_core9index_ops11common_indsINtNtNtB6_8defaults5index5IndexNtB11_5DynIdEEs_0CsaRfSWFUMrL5_22tensor4all_itensorlike
FNDA:0,_RNCINvNtCsbrO2ourfQV3_15tensor4all_core9index_ops13hascommonindsINtNtNtB6_8defaults5index5IndexNtB13_5DynIdEE0CsaRfSWFUMrL5_22tensor4all_itensorlike
FNDA:0,_RNCINvNtCsbrO2ourfQV3_15tensor4all_core9index_ops13hascommonindsINtNtNtB6_8defaults5index5IndexNtB13_5DynIdEEs_0CsaRfSWFUMrL5_22tensor4all_itensorlike
FNDA:0,_RINvNtCsbrO2ourfQV3_15tensor4all_core9index_ops10union_indspEB4_
FNDA:0,_RINvNtCsbrO2ourfQV3_15tensor4all_core9index_ops11common_indspEB4_
FNDA:0,_RINvNtCsbrO2ourfQV3_15tensor4all_core9index_ops11replaceindspEB4_
FNDA:0,_RINvNtCsbrO2ourfQV3_15tensor4all_core9index_ops11unique_indspEB4_
FNDA:0,_RINvNtCsbrO2ourfQV3_15tensor4all_core9index_ops13hascommonindspEB4_
FNDA:0,_RINvNtCsbrO2ourfQV3_15tensor4all_core9index_ops14noncommon_indspEB4_
FNDA:0,_RINvNtCsbrO2ourfQV3_15tensor4all_core9index_ops20check_unique_indicespEB4_
FNDA:0,_RINvNtCsbrO2ourfQV3_15tensor4all_core9index_ops20replaceinds_in_placepEB4_
FNDA:0,_RINvNtCsbrO2ourfQV3_15tensor4all_core9index_ops6hasindpEB4_
FNDA:0,_RINvNtCsbrO2ourfQV3_15tensor4all_core9index_ops7hasindspEB4_
FNDA:0,_RNCINvNtCsbrO2ourfQV3_15tensor4all_core9index_ops11common_indspE0B6_
FNDA:0,_RNCINvNtCsbrO2ourfQV3_15tensor4all_core9index_ops11common_indspEs_0B6_
FNDA:0,_RNCINvNtCsbrO2ourfQV3_15tensor4all_core9index_ops11unique_indspE0B6_
FNDA:0,_RNCINvNtCsbrO2ourfQV3_15tensor4all_core9index_ops11unique_indspEs_0B6_
FNDA:0,_RNCINvNtCsbrO2ourfQV3_15tensor4all_core9index_ops13hascommonindspE0B6_
FNDA:0,_RNCINvNtCsbrO2ourfQV3_15tensor4all_core9index_ops13hascommonindspEs_0B6_
FNDA:0,_RNCINvNtCsbrO2ourfQV3_15tensor4all_core9index_ops14noncommon_indspE0B6_
FNDA:0,_RNCINvNtCsbrO2ourfQV3_15tensor4all_core9index_ops14noncommon_indspEs0_0B6_
FNDA:0,_RNCINvNtCsbrO2ourfQV3_15tensor4all_core9index_ops14noncommon_indspEs1_0B6_
FNDA:0,_RNCINvNtCsbrO2ourfQV3_15tensor4all_core9index_ops14noncommon_indspEs_0B6_
FNDA:0,_RNCINvNtCsbrO2ourfQV3_15tensor4all_core9index_ops6hasindpE0B6_
FNDA:0,_RNCINvNtCsbrO2ourfQV3_15tensor4all_core9index_ops7hasindspE0B6_
FNDA:0,_RNCINvNtCsbrO2ourfQV3_15tensor4all_core9index_ops7hasindspEs_0B6_
FNDA:10,_RINvNtCsbrO2ourfQV3_15tensor4all_core9index_ops19prepare_contractionINtNtNtB4_8defaults5index5IndexNtB17_5DynIdEEB4_
FNDA:30,_RINvNtCsbrO2ourfQV3_15tensor4all_core9index_ops20common_ind_positionsINtNtNtB4_8defaults5index5IndexNtB18_5DynIdEEB4_
FNDA:17,_RINvNtCsbrO2ourfQV3_15tensor4all_core9index_ops25prepare_contraction_pairsINtNtNtB4_8defaults5index5IndexNtB1d_5DynIdEEB4_
FNDA:17,_RNCINvNtCsbrO2ourfQV3_15tensor4all_core9index_ops25prepare_contraction_pairsINtNtNtB6_8defaults5index5IndexNtB1f_5DynIdEE0B6_
FNDA:31,_RNCINvNtCsbrO2ourfQV3_15tensor4all_core9index_ops25prepare_contraction_pairsINtNtNtB6_8defaults5index5IndexNtB1f_5DynIdEEs0_0B6_
FNDA:35,_RNCINvNtCsbrO2ourfQV3_15tensor4all_core9index_ops25prepare_contraction_pairsINtNtNtB6_8defaults5index5IndexNtB1f_5DynIdEEs1_0B6_
FNDA:17,_RNCINvNtCsbrO2ourfQV3_15tensor4all_core9index_ops25prepare_contraction_pairsINtNtNtB6_8defaults5index5IndexNtB1f_5DynIdEEs_0B6_
FNDA:0,_RNvXNtCsbrO2ourfQV3_15tensor4all_core9index_opsNtB2_16ReplaceIndsErrorNtNtCskzPJi2J8k3N_4core3fmt7Display3fmt
FNDA:0,_RNvXs0_NtCsbrO2ourfQV3_15tensor4all_core9index_opsNtB5_16ContractionErrorNtNtCskzPJi2J8k3N_4core3fmt7Display3fmt
FNDA:29,_RINvNtCsbrO2ourfQV3_15tensor4all_core9index_ops11common_indsINtNtNtB4_8defaults5index5IndexNtBZ_5DynIdEECsk8nCQTNnVi9_22tensor4all_itensorlike
FNDA:62,_RNCINvNtCsbrO2ourfQV3_15tensor4all_core9index_ops11common_indsINtNtNtB6_8defaults5index5IndexNtB11_5DynIdEE0Csk8nCQTNnVi9_22tensor4all_itensorlike
FNDA:65,_RNCINvNtCsbrO2ourfQV3_15tensor4all_core9index_ops11common_indsINtNtNtB6_8defaults5index5IndexNtB11_5DynIdEEs_0Csk8nCQTNnVi9_22tensor4all_itensorlike
FNF:32
FNH:10
DA:23,0
DA:24,0
DA:25,0
DA:26,0
DA:27,0
DA:28,0
DA:33,0
DA:34,0
DA:36,0
DA:37,0
DA:38,0
DA:43,0
DA:69,0
DA:71,0
DA:72,0
DA:73,0
DA:74,0
DA:75,0
DA:76,0
DA:77,0
DA:78,0
DA:79,0
DA:81,0
DA:82,0
DA:117,0
DA:118,0
DA:119,0
DA:120,0
DA:122,0
DA:125,0
DA:126,0
DA:128,0
DA:129,0
DA:130,0
DA:131,0
DA:132,0
DA:133,0
DA:134,0
DA:138,0
DA:139,0
DA:140,0
DA:141,0
DA:142,0
DA:143,0
DA:144,0
DA:148,0
DA:149,0
DA:150,0
DA:183,0
DA:184,0
DA:185,0
DA:186,0
DA:188,0
DA:191,0
DA:192,0
DA:194,0
DA:195,0
DA:196,0
DA:197,0
DA:198,0
DA:199,0
DA:200,0
DA:204,0
DA:205,0
DA:206,0
DA:207,0
DA:211,0
DA:212,0
DA:213,0
DA:243,0
DA:244,0
DA:245,0
DA:246,0
DA:247,0
DA:248,0
DA:249,0
DA:250,0
DA:282,0
DA:283,0
DA:284,0
DA:287,0
DA:290,0
DA:291,0
DA:292,0
DA:293,0
DA:294,0
DA:297,0
DA:298,0
DA:299,0
DA:300,0
DA:301,0
DA:303,0
DA:304,0
DA:335,0
DA:336,0
DA:337,0
DA:338,0
DA:340,0
DA:341,0
DA:342,0
DA:343,0
DA:345,0
DA:346,0
DA:347,0
DA:348,0
DA:350,0
DA:351,0
DA:376,0
DA:377,0
DA:378,0
DA:404,0
DA:405,0
DA:406,0
DA:407,0
DA:435,0
DA:436,0
DA:437,0
DA:438,0
DA:470,31
DA:471,66
DA:472,31
DA:473,31
DA:474,69
DA:475,31
DA:476,31
DA:477,31
DA:500,30
DA:501,30
DA:502,63
DA:503,124
DA:504,124
DA:505,29
DA:506,29
DA:507,95
DA:510,30
DA:511,30
DA:551,0
DA:552,0
DA:554,0
DA:557,0
DA:558,0
DA:559,0
DA:560,0
DA:562,0
DA:563,0
DA:564,0
DA:568,0
DA:569,0
DA:571,0
DA:572,0
DA:575,0
DA:578,0
DA:607,10
DA:608,10
DA:609,10
DA:610,10
DA:611,10
DA:612,10
DA:614,10
DA:615,10
DA:616,0
DA:617,10
DA:619,10
DA:622,22
DA:623,12
DA:624,0
DA:625,0
DA:626,0
DA:627,0
DA:628,0
DA:629,0
DA:630,12
DA:634,10
DA:635,10
DA:637,20
DA:638,20
DA:639,8
DA:640,8
DA:641,12
DA:644,22
DA:645,22
DA:646,10
DA:647,10
DA:648,12
DA:651,10
DA:652,10
DA:653,10
DA:654,10
DA:655,10
DA:656,10
DA:657,10
DA:689,17
DA:690,17
DA:691,17
DA:692,17
DA:693,17
DA:694,17
DA:695,17
DA:698,17
DA:699,0
DA:700,17
DA:703,17
DA:704,17
DA:706,17
DA:707,34
DA:708,17
DA:709,17
DA:710,17
DA:711,0
DA:712,17
DA:716,17
DA:717,17
DA:719,34
DA:720,17
DA:721,17
DA:722,31
DA:723,17
DA:725,17
DA:726,17
DA:727,35
DA:728,17
DA:731,17
DA:732,0
DA:733,0
DA:734,0
DA:735,0
DA:736,0
DA:737,0
DA:738,17
DA:741,17
DA:742,0
DA:743,0
DA:744,0
DA:745,0
DA:746,17
DA:747,17
DA:748,0
DA:749,0
DA:750,0
DA:751,0
DA:752,17
DA:754,17
DA:755,17
DA:759,17
DA:760,17
DA:762,40
DA:763,40
DA:764,23
DA:765,23
DA:766,23
DA:769,35
DA:770,35
DA:771,18
DA:772,18
DA:773,18
DA:776,17
DA:777,17
DA:778,17
DA:779,17
DA:780,17
DA:781,17
DA:782,17
BRF:0
BRH:0
LF:279
LH:111
end_of_record
SF:/Users/ken/git_for_collab4/tensor4all-rs/crates/tensor4all-core/src/krylov.rs
FN:410,_RINvNtCsbrO2ourfQV3_15tensor4all_core6krylov15update_solutionpEB4_
FN:114,_RINvNtCsbrO2ourfQV3_15tensor4all_core6krylov5gmresppEB4_
FNDA:0,_RINvNtCsbrO2ourfQV3_15tensor4all_core6krylov15update_solutionpEB4_
FNDA:0,_RINvNtCsbrO2ourfQV3_15tensor4all_core6krylov5gmresppEB4_
FNF:2
FNH:0
DA:114,0
DA:115,0
DA:116,0
DA:117,0
DA:119,0
DA:120,0
DA:122,0
DA:123,0
DA:124,0
DA:125,0
DA:126,0
DA:127,0
DA:128,0
DA:130,0
DA:131,0
DA:133,0
DA:135,0
DA:137,0
DA:138,0
DA:139,0
DA:141,0
DA:142,0
DA:143,0
DA:144,0
DA:145,0
DA:146,0
DA:148,0
DA:149,0
DA:150,0
DA:151,0
DA:152,0
DA:153,0
DA:154,0
DA:155,0
DA:158,0
DA:159,0
DA:162,0
DA:163,0
DA:166,0
DA:167,0
DA:168,0
DA:170,0
DA:171,0
DA:174,0
DA:177,0
DA:178,0
DA:180,0
DA:181,0
DA:182,0
DA:184,0
DA:185,0
DA:188,0
DA:189,0
DA:190,0
DA:194,0
DA:195,0
DA:196,0
DA:197,0
DA:198,0
DA:199,0
DA:200,0
DA:203,0
DA:204,0
DA:205,0
DA:208,0
DA:209,0
DA:210,0
DA:213,0
DA:214,0
DA:215,0
DA:216,0
DA:217,0
DA:219,0
DA:222,0
DA:223,0
DA:225,0
DA:226,0
DA:227,0
DA:229,0
DA:231,0
DA:232,0
DA:233,0
DA:234,0
DA:235,0
DA:236,0
DA:237,0
DA:238,0
DA:239,0
DA:242,0
DA:243,0
DA:244,0
DA:247,0
DA:248,0
DA:249,0
DA:250,0
DA:251,0
DA:252,0
DA:253,0
DA:254,0
DA:255,0
DA:256,0
DA:257,0
DA:262,0
DA:263,0
DA:267,0
DA:268,0
DA:269,0
DA:271,0
DA:272,0
DA:273,0
DA:274,0
DA:275,0
DA:276,0
DA:277,0
DA:410,0
DA:411,0
DA:413,0
DA:414,0
DA:416,0
DA:419,0
DA:420,0
BRF:0
BRH:0
LF:121
LH:0
end_of_record
SF:/Users/ken/git_for_collab4/tensor4all-rs/crates/tensor4all-core/src/smallstring.rs
FN:188,_RNvXs6_NtCsbrO2ourfQV3_15tensor4all_core11smallstringINtB5_11SmallStringKj10_ENtNtCskzPJi2J8k3N_4core3fmt7Display3fmtCslD6BJj2Z6b5_15tensor4all_capi
FN:147,_RNvMs0_NtCsbrO2ourfQV3_15tensor4all_core11smallstringINtB5_11SmallStringKppE3getB7_
FN:137,_RNvMs0_NtCsbrO2ourfQV3_15tensor4all_core11smallstringINtB5_11SmallStringKppE3lenB7_
FN:156,_RNvMs0_NtCsbrO2ourfQV3_15tensor4all_core11smallstringINtB5_11SmallStringKppE8as_sliceB7_
FN:142,_RNvMs0_NtCsbrO2ourfQV3_15tensor4all_core11smallstringINtB5_11SmallStringKppE8capacityB7_
FN:132,_RNvMs0_NtCsbrO2ourfQV3_15tensor4all_core11smallstringINtB5_11SmallStringKppE8is_emptyB7_
FN:162,_RNvXININtCsbrO2ourfQV3_15tensor4all_core11smallstrings1_0KppEINtB5_11SmallStringKppENtNtCskzPJi2J8k3N_4core7default7Default7defaultB7_
FN:176,_RNvXININtCsbrO2ourfQV3_15tensor4all_core11smallstrings4_0KppEINtB5_11SmallStringKppENtNtCskzPJi2J8k3N_4core3cmp10PartialOrd11partial_cmpB7_
FN:188,_RNvXININtCsbrO2ourfQV3_15tensor4all_core11smallstrings6_0KppEINtB5_11SmallStringKppENtNtCskzPJi2J8k3N_4core3fmt7Display3fmtB7_
FN:33,_RNvXNtCsbrO2ourfQV3_15tensor4all_core11smallstringtNtB2_9SmallChar7to_char
FN:23,_RNvXNtCsbrO2ourfQV3_15tensor4all_core11smallstringtNtB2_9SmallChar9from_char
FN:46,_RNvXs_NtCsbrO2ourfQV3_15tensor4all_core11smallstringcNtB4_9SmallChar7to_char
FN:42,_RNvXs_NtCsbrO2ourfQV3_15tensor4all_core11smallstringcNtB4_9SmallChar9from_char
FN:128,_RNCNvMs0_NtCsbrO2ourfQV3_15tensor4all_core11smallstringINtB7_11SmallStringKj10_E6as_str0B9_
FN:91,_RNvMs0_NtCsbrO2ourfQV3_15tensor4all_core11smallstringINtB5_11SmallStringKj10_E3newB7_
FN:127,_RNvMs0_NtCsbrO2ourfQV3_15tensor4all_core11smallstringINtB5_11SmallStringKj10_E6as_strB7_
FN:106,_RNvMs0_NtCsbrO2ourfQV3_15tensor4all_core11smallstringINtB5_11SmallStringKj10_E8from_strB7_
FN:168,_RNvXs2_NtCsbrO2ourfQV3_15tensor4all_core11smallstringINtB5_11SmallStringKj10_ENtNtCskzPJi2J8k3N_4core3cmp9PartialEq2eqB7_
FN:182,_RNvXs5_NtCsbrO2ourfQV3_15tensor4all_core11smallstringINtB5_11SmallStringKj10_ENtNtCskzPJi2J8k3N_4core3cmp3Ord3cmpB7_
FNDA:4,_RNvXs6_NtCsbrO2ourfQV3_15tensor4all_core11smallstringINtB5_11SmallStringKj10_ENtNtCskzPJi2J8k3N_4core3fmt7Display3fmtCslD6BJj2Z6b5_15tensor4all_capi
FNDA:0,_RNvMs0_NtCsbrO2ourfQV3_15tensor4all_core11smallstringINtB5_11SmallStringKppE3getB7_
FNDA:0,_RNvMs0_NtCsbrO2ourfQV3_15tensor4all_core11smallstringINtB5_11SmallStringKppE3lenB7_
FNDA:0,_RNvMs0_NtCsbrO2ourfQV3_15tensor4all_core11smallstringINtB5_11SmallStringKppE8as_sliceB7_
FNDA:0,_RNvMs0_NtCsbrO2ourfQV3_15tensor4all_core11smallstringINtB5_11SmallStringKppE8capacityB7_
FNDA:0,_RNvMs0_NtCsbrO2ourfQV3_15tensor4all_core11smallstringINtB5_11SmallStringKppE8is_emptyB7_
FNDA:0,_RNvXININtCsbrO2ourfQV3_15tensor4all_core11smallstrings1_0KppEINtB5_11SmallStringKppENtNtCskzPJi2J8k3N_4core7default7Default7defaultB7_
FNDA:0,_RNvXININtCsbrO2ourfQV3_15tensor4all_core11smallstrings4_0KppEINtB5_11SmallStringKppENtNtCskzPJi2J8k3N_4core3cmp10PartialOrd11partial_cmpB7_
FNDA:0,_RNvXININtCsbrO2ourfQV3_15tensor4all_core11smallstrings6_0KppEINtB5_11SmallStringKppENtNtCskzPJi2J8k3N_4core3fmt7Display3fmtB7_
FNDA:16,_RNvXNtCsbrO2ourfQV3_15tensor4all_core11smallstringtNtB2_9SmallChar7to_char
FNDA:99,_RNvXNtCsbrO2ourfQV3_15tensor4all_core11smallstringtNtB2_9SmallChar9from_char
FNDA:0,_RNvXs_NtCsbrO2ourfQV3_15tensor4all_core11smallstringcNtB4_9SmallChar7to_char
FNDA:0,_RNvXs_NtCsbrO2ourfQV3_15tensor4all_core11smallstringcNtB4_9SmallChar9from_char
FNDA:16,_RNCNvMs0_NtCsbrO2ourfQV3_15tensor4all_core11smallstringINtB7_11SmallStringKj10_E6as_str0B9_
FNDA:153,_RNvMs0_NtCsbrO2ourfQV3_15tensor4all_core11smallstringINtB5_11SmallStringKj10_E3newB7_
FNDA:4,_RNvMs0_NtCsbrO2ourfQV3_15tensor4all_core11smallstringINtB5_11SmallStringKj10_E6as_strB7_
FNDA:24,_RNvMs0_NtCsbrO2ourfQV3_15tensor4all_core11smallstringINtB5_11SmallStringKj10_E8from_strB7_
FNDA:0,_RNvXs2_NtCsbrO2ourfQV3_15tensor4all_core11smallstringINtB5_11SmallStringKj10_ENtNtCskzPJi2J8k3N_4core3cmp9PartialEq2eqB7_
FNDA:10,_RNvXs5_NtCsbrO2ourfQV3_15tensor4all_core11smallstringINtB5_11SmallStringKj10_ENtNtCskzPJi2J8k3N_4core3cmp3Ord3cmpB7_
FNF:18
FNH:8
DA:23,99
DA:25,99
DA:26,99
DA:27,99
DA:29,0
DA:31,99
DA:33,16
DA:35,16
DA:36,16
DA:42,0
DA:43,0
DA:44,0
DA:46,0
DA:47,0
DA:48,0
DA:91,153
DA:92,153
DA:93,153
DA:94,153
DA:95,153
DA:96,153
DA:106,24
DA:107,24
DA:108,24
DA:110,99
DA:111,99
DA:113,0
DA:114,0
DA:115,0
DA:116,0
DA:117,0
DA:118,99
DA:119,99
DA:120,99
DA:123,24
DA:124,24
DA:127,4
DA:128,16
DA:129,4
DA:132,0
DA:133,0
DA:134,0
DA:137,0
DA:138,0
DA:139,0
DA:142,0
DA:143,0
DA:144,0
DA:147,0
DA:148,0
DA:149,0
DA:151,0
DA:153,0
DA:156,0
DA:157,0
DA:158,0
DA:162,0
DA:163,0
DA:164,0
DA:168,0
DA:169,0
DA:170,0
DA:176,0
DA:177,0
DA:178,0
DA:182,10
DA:183,10
DA:184,10
DA:188,4
DA:189,4
DA:190,4
BRF:0
BRH:0
LF:72
LH:34
end_of_record
SF:/Users/ken/git_for_collab4/tensor4all-rs/crates/tensor4all-core/src/tagset.rs
FN:194,_RNvMNtCsbrO2ourfQV3_15tensor4all_core6tagsetINtB2_6TagSetKj4_Kj10_E4iterCslD6BJj2Z6b5_15tensor4all_capi
FN:267,_RNCNvXs_NtCsbrO2ourfQV3_15tensor4all_core6tagsetINtB6_6TagSetKj4_Kj10_ENtB6_10TagSetLike10remove_tag0B8_
FN:244,_RNCNvXs_NtCsbrO2ourfQV3_15tensor4all_core6tagsetINtB6_6TagSetKj4_Kj10_ENtB6_10TagSetLike4iter0B8_
FN:87,_RNCNvYINtNtCsbrO2ourfQV3_15tensor4all_core6tagset6TagSetKj4_Kj10_ENtB7_10TagSetLike8from_str0B9_
FN:214,_RNvMNtCsbrO2ourfQV3_15tensor4all_core6tagsetINtB2_6TagSetKj4_Kj10_E10remove_tagB4_
FN:170,_RNvMNtCsbrO2ourfQV3_15tensor4all_core6tagsetINtB2_6TagSetKj4_Kj10_E3lenB4_
FN:153,_RNvMNtCsbrO2ourfQV3_15tensor4all_core6tagsetINtB2_6TagSetKj4_Kj10_E3newB4_
FN:209,_RNvMNtCsbrO2ourfQV3_15tensor4all_core6tagsetINtB2_6TagSetKj4_Kj10_E7add_tagB4_
FN:199,_RNvMNtCsbrO2ourfQV3_15tensor4all_core6tagsetINtB2_6TagSetKj4_Kj10_E7has_tagB4_
FN:180,_RNvMNtCsbrO2ourfQV3_15tensor4all_core6tagsetINtB2_6TagSetKj4_Kj10_E8capacityB4_
FN:165,_RNvMNtCsbrO2ourfQV3_15tensor4all_core6tagsetINtB2_6TagSetKj4_Kj10_E8from_strB4_
FN:175,_RNvMNtCsbrO2ourfQV3_15tensor4all_core6tagsetINtB2_6TagSetKj4_Kj10_E8is_emptyB4_
FN:284,_RNvMs0_NtCsbrO2ourfQV3_15tensor4all_core6tagsetINtB5_6TagSetKj4_Kj10_E16__add_tag_orderedB7_
FN:316,_RNvMs0_NtCsbrO2ourfQV3_15tensor4all_core6tagsetINtB5_6TagSetKj4_Kj10_E8__has_tagB7_
FN:324,_RNvXs1_NtCsbrO2ourfQV3_15tensor4all_core6tagsetINtB5_6TagSetKj4_Kj10_ENtNtCskzPJi2J8k3N_4core7default7Default7defaultB7_
FN:261,_RNvXs_NtCsbrO2ourfQV3_15tensor4all_core6tagsetINtB4_6TagSetKj4_Kj10_ENtB4_10TagSetLike10remove_tagB6_
FN:235,_RNvXs_NtCsbrO2ourfQV3_15tensor4all_core6tagsetINtB4_6TagSetKj4_Kj10_ENtB4_10TagSetLike3getB6_
FN:243,_RNvXs_NtCsbrO2ourfQV3_15tensor4all_core6tagsetINtB4_6TagSetKj4_Kj10_ENtB4_10TagSetLike4iterB6_
FN:255,_RNvXs_NtCsbrO2ourfQV3_15tensor4all_core6tagsetINtB4_6TagSetKj4_Kj10_ENtB4_10TagSetLike7add_tagB6_
FN:247,_RNvXs_NtCsbrO2ourfQV3_15tensor4all_core6tagsetINtB4_6TagSetKj4_Kj10_ENtB4_10TagSetLike7has_tagB6_
FN:82,_RNvYINtNtCsbrO2ourfQV3_15tensor4all_core6tagset6TagSetKj4_Kj10_ENtB5_10TagSetLike8from_strB7_
FN:66,_RINvYpNtNtCsbrO2ourfQV3_15tensor4all_core6tagset10TagSetLike11common_tagspEB8_
FN:42,_RINvYpNtNtCsbrO2ourfQV3_15tensor4all_core6tagset10TagSetLike8has_tagspEB8_
FN:219,_RNvMNtCsbrO2ourfQV3_15tensor4all_core6tagsetINtB2_6TagSetKpKppE11common_tagsB4_
FN:185,_RNvMNtCsbrO2ourfQV3_15tensor4all_core6tagsetINtB2_6TagSetKpKppE3getB4_
FN:194,_RNvMNtCsbrO2ourfQV3_15tensor4all_core6tagsetINtB2_6TagSetKpKppE4iterB4_
FN:204,_RNvMNtCsbrO2ourfQV3_15tensor4all_core6tagsetINtB2_6TagSetKpKppE8has_tagsB4_
FN:332,_RNvXININtCsbrO2ourfQV3_15tensor4all_core6tagsets2_0KpKppEINtB5_6TagSetKpKppENtNtCskzPJi2J8k3N_4core3cmp9PartialEq2eqB7_
FN:227,_RNvXININtCsbrO2ourfQV3_15tensor4all_core6tagsets_0KpKppEINtB5_6TagSetKpKppENtB5_10TagSetLike3lenB7_
FN:231,_RNvXININtCsbrO2ourfQV3_15tensor4all_core6tagsets_0KpKppEINtB5_6TagSetKpKppENtB5_10TagSetLike8capacityB7_
FN:19,_RNvYpNtNtCsbrO2ourfQV3_15tensor4all_core6tagset10TagSetLike8is_emptyB7_
FNDA:2,_RNvMNtCsbrO2ourfQV3_15tensor4all_core6tagsetINtB2_6TagSetKj4_Kj10_E4iterCslD6BJj2Z6b5_15tensor4all_capi
FNDA:0,_RNCNvXs_NtCsbrO2ourfQV3_15tensor4all_core6tagsetINtB6_6TagSetKj4_Kj10_ENtB6_10TagSetLike10remove_tag0B8_
FNDA:0,_RNCNvXs_NtCsbrO2ourfQV3_15tensor4all_core6tagsetINtB6_6TagSetKj4_Kj10_ENtB6_10TagSetLike4iter0B8_
FNDA:85,_RNCNvYINtNtCsbrO2ourfQV3_15tensor4all_core6tagset6TagSetKj4_Kj10_ENtB7_10TagSetLike8from_str0B9_
FNDA:0,_RNvMNtCsbrO2ourfQV3_15tensor4all_core6tagsetINtB2_6TagSetKj4_Kj10_E10remove_tagB4_
FNDA:0,_RNvMNtCsbrO2ourfQV3_15tensor4all_core6tagsetINtB2_6TagSetKj4_Kj10_E3lenB4_
FNDA:153,_RNvMNtCsbrO2ourfQV3_15tensor4all_core6tagsetINtB2_6TagSetKj4_Kj10_E3newB4_
FNDA:0,_RNvMNtCsbrO2ourfQV3_15tensor4all_core6tagsetINtB2_6TagSetKj4_Kj10_E7add_tagB4_
FNDA:3,_RNvMNtCsbrO2ourfQV3_15tensor4all_core6tagsetINtB2_6TagSetKj4_Kj10_E7has_tagB4_
FNDA:0,_RNvMNtCsbrO2ourfQV3_15tensor4all_core6tagsetINtB2_6TagSetKj4_Kj10_E8capacityB4_
FNDA:19,_RNvMNtCsbrO2ourfQV3_15tensor4all_core6tagsetINtB2_6TagSetKj4_Kj10_E8from_strB4_
FNDA:0,_RNvMNtCsbrO2ourfQV3_15tensor4all_core6tagsetINtB2_6TagSetKj4_Kj10_E8is_emptyB4_
FNDA:21,_RNvMs0_NtCsbrO2ourfQV3_15tensor4all_core6tagsetINtB5_6TagSetKj4_Kj10_E16__add_tag_orderedB7_
FNDA:24,_RNvMs0_NtCsbrO2ourfQV3_15tensor4all_core6tagsetINtB5_6TagSetKj4_Kj10_E8__has_tagB7_
FNDA:140,_RNvXs1_NtCsbrO2ourfQV3_15tensor4all_core6tagsetINtB5_6TagSetKj4_Kj10_ENtNtCskzPJi2J8k3N_4core7default7Default7defaultB7_
FNDA:0,_RNvXs_NtCsbrO2ourfQV3_15tensor4all_core6tagsetINtB4_6TagSetKj4_Kj10_ENtB4_10TagSetLike10remove_tagB6_
FNDA:0,_RNvXs_NtCsbrO2ourfQV3_15tensor4all_core6tagsetINtB4_6TagSetKj4_Kj10_ENtB4_10TagSetLike3getB6_
FNDA:0,_RNvXs_NtCsbrO2ourfQV3_15tensor4all_core6tagsetINtB4_6TagSetKj4_Kj10_ENtB4_10TagSetLike4iterB6_
FNDA:21,_RNvXs_NtCsbrO2ourfQV3_15tensor4all_core6tagsetINtB4_6TagSetKj4_Kj10_ENtB4_10TagSetLike7add_tagB6_
FNDA:3,_RNvXs_NtCsbrO2ourfQV3_15tensor4all_core6tagsetINtB4_6TagSetKj4_Kj10_ENtB4_10TagSetLike7has_tagB6_
FNDA:19,_RNvYINtNtCsbrO2ourfQV3_15tensor4all_core6tagset6TagSetKj4_Kj10_ENtB5_10TagSetLike8from_strB7_
FNDA:0,_RINvYpNtNtCsbrO2ourfQV3_15tensor4all_core6tagset10TagSetLike11common_tagspEB8_
FNDA:0,_RINvYpNtNtCsbrO2ourfQV3_15tensor4all_core6tagset10TagSetLike8has_tagspEB8_
FNDA:0,_RNvMNtCsbrO2ourfQV3_15tensor4all_core6tagsetINtB2_6TagSetKpKppE11common_tagsB4_
FNDA:0,_RNvMNtCsbrO2ourfQV3_15tensor4all_core6tagsetINtB2_6TagSetKpKppE3getB4_
FNDA:0,_RNvMNtCsbrO2ourfQV3_15tensor4all_core6tagsetINtB2_6TagSetKpKppE4iterB4_
FNDA:0,_RNvMNtCsbrO2ourfQV3_15tensor4all_core6tagsetINtB2_6TagSetKpKppE8has_tagsB4_
FNDA:0,_RNvXININtCsbrO2ourfQV3_15tensor4all_core6tagsets2_0KpKppEINtB5_6TagSetKpKppENtNtCskzPJi2J8k3N_4core3cmp9PartialEq2eqB7_
FNDA:0,_RNvXININtCsbrO2ourfQV3_15tensor4all_core6tagsets_0KpKppEINtB5_6TagSetKpKppENtB5_10TagSetLike3lenB7_
FNDA:0,_RNvXININtCsbrO2ourfQV3_15tensor4all_core6tagsets_0KpKppEINtB5_6TagSetKpKppENtB5_10TagSetLike8capacityB7_
FNDA:0,_RNvYpNtNtCsbrO2ourfQV3_15tensor4all_core6tagset10TagSetLike8is_emptyB7_
FNF:30
FNH:11
DA:19,0
DA:20,0
DA:21,0
DA:42,0
DA:43,0
DA:44,0
DA:45,0
DA:46,0
DA:47,0
DA:48,0
DA:50,0
DA:51,0
DA:66,0
DA:67,0
DA:68,0
DA:69,0
DA:70,0
DA:71,0
DA:72,0
DA:73,0
DA:75,0
DA:76,0
DA:82,19
DA:83,19
DA:86,21
DA:87,85
DA:88,21
DA:89,21
DA:90,0
DA:93,19
DA:94,19
DA:153,153
DA:154,153
DA:155,153
DA:156,153
DA:157,153
DA:158,153
DA:165,19
DA:166,19
DA:167,19
DA:170,0
DA:171,0
DA:172,0
DA:175,0
DA:176,0
DA:177,0
DA:180,0
DA:181,0
DA:182,0
DA:185,0
DA:186,0
DA:187,0
DA:189,0
DA:191,0
DA:194,2
DA:195,2
DA:196,2
DA:199,3
DA:200,3
DA:201,3
DA:204,0
DA:205,0
DA:206,0
DA:209,0
DA:210,0
DA:211,0
DA:214,0
DA:215,0
DA:216,0
DA:219,0
DA:220,0
DA:221,0
DA:227,0
DA:228,0
DA:229,0
DA:231,0
DA:232,0
DA:233,0
DA:235,0
DA:236,0
DA:237,0
DA:239,0
DA:241,0
DA:243,0
DA:244,0
DA:245,0
DA:247,3
DA:248,3
DA:249,3
DA:250,0
DA:252,3
DA:253,3
DA:255,21
DA:256,21
DA:257,21
DA:258,21
DA:259,21
DA:261,0
DA:262,0
DA:263,0
DA:264,0
DA:267,0
DA:269,0
DA:270,0
DA:271,0
DA:272,0
DA:273,0
DA:275,0
DA:277,0
DA:284,21
DA:286,21
DA:287,0
DA:288,21
DA:291,21
DA:292,0
DA:293,0
DA:294,0
DA:295,0
DA:296,21
DA:299,21
DA:300,21
DA:301,21
DA:304,21
DA:305,1
DA:306,1
DA:309,21
DA:310,21
DA:312,21
DA:313,21
DA:316,24
DA:317,24
DA:318,24
DA:324,140
DA:325,140
DA:326,140
DA:332,0
DA:333,0
DA:334,0
DA:335,0
DA:336,0
DA:337,0
BRF:0
BRH:0
LF:144
LH:55
end_of_record
SF:/Users/ken/git_for_collab4/tensor4all-rs/crates/tensor4all-core/src/tensor_index.rs
FN:88,_RNvYpNtNtCsbrO2ourfQV3_15tensor4all_core12tensor_index11TensorIndex17replaceinds_pairsB7_
FN:42,_RNvYpNtNtCsbrO2ourfQV3_15tensor4all_core12tensor_index11TensorIndex20num_external_indicesB7_
FNDA:0,_RNvYpNtNtCsbrO2ourfQV3_15tensor4all_core12tensor_index11TensorIndex17replaceinds_pairsB7_
FNDA:0,_RNvYpNtNtCsbrO2ourfQV3_15tensor4all_core12tensor_index11TensorIndex20num_external_indicesB7_
FNF:2
FNH:0
DA:42,0
DA:43,0
DA:44,0
DA:88,0
DA:89,0
DA:90,0
DA:91,0
BRF:0
BRH:0
LF:7
LH:0
end_of_record
SF:/Users/ken/git_for_collab4/tensor4all-rs/crates/tensor4all-core/src/tensor_like.rs
FN:477,_RNvYpNtNtCsbrO2ourfQV3_15tensor4all_core11tensor_like10TensorLike4normB7_
FN:537,_RNvYpNtNtCsbrO2ourfQV3_15tensor4all_core11tensor_like10TensorLike5deltaB7_
FN:148,_RNvMs_NtCsbrO2ourfQV3_15tensor4all_core11tensor_likeNtB4_16FactorizeOptions13with_max_rank
FN:136,_RNvMs_NtCsbrO2ourfQV3_15tensor4all_core11tensor_likeNtB4_16FactorizeOptions14with_canonical
FN:128,_RNvMs_NtCsbrO2ourfQV3_15tensor4all_core11tensor_likeNtB4_16FactorizeOptions2ci
FN:120,_RNvMs_NtCsbrO2ourfQV3_15tensor4all_core11tensor_likeNtB4_16FactorizeOptions2lu
FN:112,_RNvMs_NtCsbrO2ourfQV3_15tensor4all_core11tensor_likeNtB4_16FactorizeOptions2qr
FN:104,_RNvMs_NtCsbrO2ourfQV3_15tensor4all_core11tensor_likeNtB4_16FactorizeOptions3svd
FN:142,_RNvMs_NtCsbrO2ourfQV3_15tensor4all_core11tensor_likeNtB4_16FactorizeOptions9with_rtol
FN:92,_RNvXNtCsbrO2ourfQV3_15tensor4all_core11tensor_likeNtB2_16FactorizeOptionsNtNtCskzPJi2J8k3N_4core7default7Default7default
FNDA:0,_RNvYpNtNtCsbrO2ourfQV3_15tensor4all_core11tensor_like10TensorLike4normB7_
FNDA:0,_RNvYpNtNtCsbrO2ourfQV3_15tensor4all_core11tensor_like10TensorLike5deltaB7_
FNDA:4,_RNvMs_NtCsbrO2ourfQV3_15tensor4all_core11tensor_likeNtB4_16FactorizeOptions13with_max_rank
FNDA:4,_RNvMs_NtCsbrO2ourfQV3_15tensor4all_core11tensor_likeNtB4_16FactorizeOptions14with_canonical
FNDA:0,_RNvMs_NtCsbrO2ourfQV3_15tensor4all_core11tensor_likeNtB4_16FactorizeOptions2ci
FNDA:0,_RNvMs_NtCsbrO2ourfQV3_15tensor4all_core11tensor_likeNtB4_16FactorizeOptions2lu
FNDA:0,_RNvMs_NtCsbrO2ourfQV3_15tensor4all_core11tensor_likeNtB4_16FactorizeOptions2qr
FNDA:4,_RNvMs_NtCsbrO2ourfQV3_15tensor4all_core11tensor_likeNtB4_16FactorizeOptions3svd
FNDA:0,_RNvMs_NtCsbrO2ourfQV3_15tensor4all_core11tensor_likeNtB4_16FactorizeOptions9with_rtol
FNDA:4,_RNvXNtCsbrO2ourfQV3_15tensor4all_core11tensor_likeNtB2_16FactorizeOptionsNtNtCskzPJi2J8k3N_4core7default7Default7default
FNF:10
FNH:4
DA:92,4
DA:93,4
DA:94,4
DA:95,4
DA:96,4
DA:97,4
DA:98,4
DA:99,4
DA:104,4
DA:105,4
DA:106,4
DA:107,4
DA:108,4
DA:109,4
DA:112,0
DA:113,0
DA:114,0
DA:115,0
DA:116,0
DA:117,0
DA:120,0
DA:121,0
DA:122,0
DA:123,0
DA:124,0
DA:125,0
DA:128,0
DA:129,0
DA:130,0
DA:131,0
DA:132,0
DA:133,0
DA:136,4
DA:137,4
DA:138,4
DA:139,4
DA:142,0
DA:143,0
DA:144,0
DA:145,0
DA:148,4
DA:149,4
DA:150,4
DA:151,4
DA:477,0
DA:478,0
DA:479,0
DA:537,0
DA:538,0
DA:539,0
DA:540,0
DA:542,0
DA:543,0
DA:544,0
DA:545,0
DA:546,0
DA:547,0
DA:548,0
DA:550,0
DA:552,0
DA:553,0
DA:556,0
DA:557,0
DA:558,0
DA:559,0
DA:561,0
DA:562,0
BRF:0
BRH:0
LF:67
LH:22
end_of_record
SF:/Users/ken/git_for_collab4/tensor4all-rs/crates/tensor4all-core/src/truncation.rs
FN:27,_RNvMNtCsbrO2ourfQV3_15tensor4all_core10truncationNtB2_16DecompositionAlg12is_svd_based
FN:33,_RNvMNtCsbrO2ourfQV3_15tensor4all_core10truncationNtB2_16DecompositionAlg13is_orthogonal
FN:87,_RNvMs_NtCsbrO2ourfQV3_15tensor4all_core10truncationNtB4_16TruncationParams13with_max_rank
FN:94,_RNvMs_NtCsbrO2ourfQV3_15tensor4all_core10truncationNtB4_16TruncationParams14effective_rtol
FN:100,_RNvMs_NtCsbrO2ourfQV3_15tensor4all_core10truncationNtB4_16TruncationParams18effective_max_rank
FN:74,_RNvMs_NtCsbrO2ourfQV3_15tensor4all_core10truncationNtB4_16TruncationParams3new
FN:106,_RNvMs_NtCsbrO2ourfQV3_15tensor4all_core10truncationNtB4_16TruncationParams5merge
FN:80,_RNvMs_NtCsbrO2ourfQV3_15tensor4all_core10truncationNtB4_16TruncationParams9with_rtol
FN:156,_RNvXs0_NtCsbrO2ourfQV3_15tensor4all_core10truncationNtB5_16TruncationParamsNtB5_19HasTruncationParams17truncation_params
FN:160,_RNvXs0_NtCsbrO2ourfQV3_15tensor4all_core10truncationNtB5_16TruncationParamsNtB5_19HasTruncationParams21truncation_params_mut
FN:145,_RNvYpNtNtCsbrO2ourfQV3_15tensor4all_core10truncation19HasTruncationParams13with_max_rankB7_
FN:126,_RNvYpNtNtCsbrO2ourfQV3_15tensor4all_core10truncation19HasTruncationParams4rtolB7_
FN:131,_RNvYpNtNtCsbrO2ourfQV3_15tensor4all_core10truncation19HasTruncationParams8max_rankB7_
FN:136,_RNvYpNtNtCsbrO2ourfQV3_15tensor4all_core10truncation19HasTruncationParams9with_rtolB7_
FNDA:0,_RNvMNtCsbrO2ourfQV3_15tensor4all_core10truncationNtB2_16DecompositionAlg12is_svd_based
FNDA:0,_RNvMNtCsbrO2ourfQV3_15tensor4all_core10truncationNtB2_16DecompositionAlg13is_orthogonal
FNDA:0,_RNvMs_NtCsbrO2ourfQV3_15tensor4all_core10truncationNtB4_16TruncationParams13with_max_rank
FNDA:14,_RNvMs_NtCsbrO2ourfQV3_15tensor4all_core10truncationNtB4_16TruncationParams14effective_rtol
FNDA:0,_RNvMs_NtCsbrO2ourfQV3_15tensor4all_core10truncationNtB4_16TruncationParams18effective_max_rank
FNDA:0,_RNvMs_NtCsbrO2ourfQV3_15tensor4all_core10truncationNtB4_16TruncationParams3new
FNDA:0,_RNvMs_NtCsbrO2ourfQV3_15tensor4all_core10truncationNtB4_16TruncationParams5merge
FNDA:0,_RNvMs_NtCsbrO2ourfQV3_15tensor4all_core10truncationNtB4_16TruncationParams9with_rtol
FNDA:0,_RNvXs0_NtCsbrO2ourfQV3_15tensor4all_core10truncationNtB5_16TruncationParamsNtB5_19HasTruncationParams17truncation_params
FNDA:0,_RNvXs0_NtCsbrO2ourfQV3_15tensor4all_core10truncationNtB5_16TruncationParamsNtB5_19HasTruncationParams21truncation_params_mut
FNDA:0,_RNvYpNtNtCsbrO2ourfQV3_15tensor4all_core10truncation19HasTruncationParams13with_max_rankB7_
FNDA:0,_RNvYpNtNtCsbrO2ourfQV3_15tensor4all_core10truncation19HasTruncationParams4rtolB7_
FNDA:0,_RNvYpNtNtCsbrO2ourfQV3_15tensor4all_core10truncation19HasTruncationParams8max_rankB7_
FNDA:0,_RNvYpNtNtCsbrO2ourfQV3_15tensor4all_core10truncation19HasTruncationParams9with_rtolB7_
FNF:14
FNH:1
DA:27,0
DA:28,0
DA:29,0
DA:33,0
DA:34,0
DA:35,0
DA:74,0
DA:75,0
DA:76,0
DA:80,0
DA:81,0
DA:82,0
DA:83,0
DA:87,0
DA:88,0
DA:89,0
DA:90,0
DA:94,14
DA:95,14
DA:96,14
DA:100,0
DA:101,0
DA:102,0
DA:106,0
DA:107,0
DA:108,0
DA:109,0
DA:110,0
DA:111,0
DA:126,0
DA:127,0
DA:128,0
DA:131,0
DA:132,0
DA:133,0
DA:136,0
DA:137,0
DA:138,0
DA:140,0
DA:141,0
DA:142,0
DA:145,0
DA:146,0
DA:147,0
DA:149,0
DA:150,0
DA:151,0
DA:156,0
DA:157,0
DA:158,0
DA:160,0
DA:161,0
DA:162,0
BRF:0
BRH:0
LF:53
LH:3
end_of_record
SF:/Users/ken/git_for_collab4/tensor4all-rs/crates/tensor4all-itensorlike/src/options.rs
FN:118,_RNvMs0_NtCsaRfSWFUMrL5_22tensor4all_itensorlike7optionsNtB5_15TruncateOptions13with_max_rank
FN:127,_RNvMs0_NtCsaRfSWFUMrL5_22tensor4all_itensorlike7optionsNtB5_15TruncateOptions15with_site_range
FN:104,_RNvMs0_NtCsaRfSWFUMrL5_22tensor4all_itensorlike7optionsNtB5_15TruncateOptions2ci
FN:96,_RNvMs0_NtCsaRfSWFUMrL5_22tensor4all_itensorlike7optionsNtB5_15TruncateOptions2lu
FN:88,_RNvMs0_NtCsaRfSWFUMrL5_22tensor4all_itensorlike7optionsNtB5_15TruncateOptions3svd
FN:133,_RNvMs0_NtCsaRfSWFUMrL5_22tensor4all_itensorlike7optionsNtB5_15TruncateOptions4rtol
FN:138,_RNvMs0_NtCsaRfSWFUMrL5_22tensor4all_itensorlike7optionsNtB5_15TruncateOptions8max_rank
FN:112,_RNvMs0_NtCsaRfSWFUMrL5_22tensor4all_itensorlike7optionsNtB5_15TruncateOptions9with_rtol
FN:233,_RNvMs3_NtCsaRfSWFUMrL5_22tensor4all_itensorlike7optionsNtB5_15ContractOptions13with_max_rank
FN:251,_RNvMs3_NtCsaRfSWFUMrL5_22tensor4all_itensorlike7optionsNtB5_15ContractOptions16with_nhalfsweeps
FN:214,_RNvMs3_NtCsaRfSWFUMrL5_22tensor4all_itensorlike7optionsNtB5_15ContractOptions3fit
FN:260,_RNvMs3_NtCsaRfSWFUMrL5_22tensor4all_itensorlike7optionsNtB5_15ContractOptions4rtol
FN:225,_RNvMs3_NtCsaRfSWFUMrL5_22tensor4all_itensorlike7optionsNtB5_15ContractOptions5naive
FN:206,_RNvMs3_NtCsaRfSWFUMrL5_22tensor4all_itensorlike7optionsNtB5_15ContractOptions5zipup
FN:265,_RNvMs3_NtCsaRfSWFUMrL5_22tensor4all_itensorlike7optionsNtB5_15ContractOptions8max_rank
FN:239,_RNvMs3_NtCsaRfSWFUMrL5_22tensor4all_itensorlike7optionsNtB5_15ContractOptions9with_rtol
FN:67,_RNvXNtCsaRfSWFUMrL5_22tensor4all_itensorlike7optionsNtB2_15TruncateOptionsNtNtCskzPJi2J8k3N_4core7default7Default7default
FN:185,_RNvXs1_NtCsaRfSWFUMrL5_22tensor4all_itensorlike7optionsNtB5_15ContractOptionsNtNtCskzPJi2J8k3N_4core7default7Default7default
FN:195,_RNvXs2_NtCsaRfSWFUMrL5_22tensor4all_itensorlike7optionsNtB5_15ContractOptionsNtNtCsbrO2ourfQV3_15tensor4all_core10truncation19HasTruncationParams17truncation_params
FN:199,_RNvXs2_NtCsaRfSWFUMrL5_22tensor4all_itensorlike7optionsNtB5_15ContractOptionsNtNtCsbrO2ourfQV3_15tensor4all_core10truncation19HasTruncationParams21truncation_params_mut
FN:77,_RNvXs_NtCsaRfSWFUMrL5_22tensor4all_itensorlike7optionsNtB4_15TruncateOptionsNtNtCsbrO2ourfQV3_15tensor4all_core10truncation19HasTruncationParams17truncation_params
FN:81,_RNvXs_NtCsaRfSWFUMrL5_22tensor4all_itensorlike7optionsNtB4_15TruncateOptionsNtNtCsbrO2ourfQV3_15tensor4all_core10truncation19HasTruncationParams21truncation_params_mut
FN:356,_RNvNtNtCsk8nCQTNnVi9_22tensor4all_itensorlike7options5testss_28test_contract_method_default
FN:313,_RNvNtNtCsk8nCQTNnVi9_22tensor4all_itensorlike7options5testss_29test_contract_options_builder
FN:332,_RNvNtNtCsk8nCQTNnVi9_22tensor4all_itensorlike7options5testss_29test_contract_options_default
FN:325,_RNvNtNtCsk8nCQTNnVi9_22tensor4all_itensorlike7options5testss_29test_contract_options_methods
FN:275,_RNvNtNtCsk8nCQTNnVi9_22tensor4all_itensorlike7options5testss_29test_truncate_options_builder
FN:296,_RNvNtNtCsk8nCQTNnVi9_22tensor4all_itensorlike7options5testss_29test_truncate_options_default
FN:283,_RNvNtNtCsk8nCQTNnVi9_22tensor4all_itensorlike7options5testss_32test_truncate_options_algorithms
FN:290,_RNvNtNtCsk8nCQTNnVi9_22tensor4all_itensorlike7options5testss_32test_truncate_options_site_range
FN:341,_RNvNtNtCsk8nCQTNnVi9_22tensor4all_itensorlike7options5testss_43test_contract_options_has_truncation_params
FN:305,_RNvNtNtCsk8nCQTNnVi9_22tensor4all_itensorlike7options5testss_43test_truncate_options_has_truncation_params
FN:350,_RNvNtNtCsk8nCQTNnVi9_22tensor4all_itensorlike7options5testss_55test_contract_options_nhalfsweeps_must_be_multiple_of_2
FN:118,_RNvMs0_NtCsk8nCQTNnVi9_22tensor4all_itensorlike7optionsNtB5_15TruncateOptions13with_max_rank
FN:127,_RNvMs0_NtCsk8nCQTNnVi9_22tensor4all_itensorlike7optionsNtB5_15TruncateOptions15with_site_range
FN:104,_RNvMs0_NtCsk8nCQTNnVi9_22tensor4all_itensorlike7optionsNtB5_15TruncateOptions2ci
FN:96,_RNvMs0_NtCsk8nCQTNnVi9_22tensor4all_itensorlike7optionsNtB5_15TruncateOptions2lu
FN:88,_RNvMs0_NtCsk8nCQTNnVi9_22tensor4all_itensorlike7optionsNtB5_15TruncateOptions3svd
FN:133,_RNvMs0_NtCsk8nCQTNnVi9_22tensor4all_itensorlike7optionsNtB5_15TruncateOptions4rtol
FN:138,_RNvMs0_NtCsk8nCQTNnVi9_22tensor4all_itensorlike7optionsNtB5_15TruncateOptions8max_rank
FN:112,_RNvMs0_NtCsk8nCQTNnVi9_22tensor4all_itensorlike7optionsNtB5_15TruncateOptions9with_rtol
FN:233,_RNvMs3_NtCsk8nCQTNnVi9_22tensor4all_itensorlike7optionsNtB5_15ContractOptions13with_max_rank
FN:251,_RNvMs3_NtCsk8nCQTNnVi9_22tensor4all_itensorlike7optionsNtB5_15ContractOptions16with_nhalfsweeps
FN:214,_RNvMs3_NtCsk8nCQTNnVi9_22tensor4all_itensorlike7optionsNtB5_15ContractOptions3fit
FN:260,_RNvMs3_NtCsk8nCQTNnVi9_22tensor4all_itensorlike7optionsNtB5_15ContractOptions4rtol
FN:225,_RNvMs3_NtCsk8nCQTNnVi9_22tensor4all_itensorlike7optionsNtB5_15ContractOptions5naive
FN:206,_RNvMs3_NtCsk8nCQTNnVi9_22tensor4all_itensorlike7optionsNtB5_15ContractOptions5zipup
FN:265,_RNvMs3_NtCsk8nCQTNnVi9_22tensor4all_itensorlike7optionsNtB5_15ContractOptions8max_rank
FN:239,_RNvMs3_NtCsk8nCQTNnVi9_22tensor4all_itensorlike7optionsNtB5_15ContractOptions9with_rtol
FN:67,_RNvXNtCsk8nCQTNnVi9_22tensor4all_itensorlike7optionsNtB2_15TruncateOptionsNtNtCskzPJi2J8k3N_4core7default7Default7default
FN:185,_RNvXs1_NtCsk8nCQTNnVi9_22tensor4all_itensorlike7optionsNtB5_15ContractOptionsNtNtCskzPJi2J8k3N_4core7default7Default7default
FN:195,_RNvXs2_NtCsk8nCQTNnVi9_22tensor4all_itensorlike7optionsNtB5_15ContractOptionsNtNtCsbrO2ourfQV3_15tensor4all_core10truncation19HasTruncationParams17truncation_params
FN:199,_RNvXs2_NtCsk8nCQTNnVi9_22tensor4all_itensorlike7optionsNtB5_15ContractOptionsNtNtCsbrO2ourfQV3_15tensor4all_core10truncation19HasTruncationParams21truncation_params_mut
FN:77,_RNvXs_NtCsk8nCQTNnVi9_22tensor4all_itensorlike7optionsNtB4_15TruncateOptionsNtNtCsbrO2ourfQV3_15tensor4all_core10truncation19HasTruncationParams17truncation_params
FN:81,_RNvXs_NtCsk8nCQTNnVi9_22tensor4all_itensorlike7optionsNtB4_15TruncateOptionsNtNtCsbrO2ourfQV3_15tensor4all_core10truncation19HasTruncationParams21truncation_params_mut
FNDA:0,_RNvMs0_NtCsaRfSWFUMrL5_22tensor4all_itensorlike7optionsNtB5_15TruncateOptions13with_max_rank
FNDA:0,_RNvMs0_NtCsaRfSWFUMrL5_22tensor4all_itensorlike7optionsNtB5_15TruncateOptions15with_site_range
FNDA:0,_RNvMs0_NtCsaRfSWFUMrL5_22tensor4all_itensorlike7optionsNtB5_15TruncateOptions2ci
FNDA:0,_RNvMs0_NtCsaRfSWFUMrL5_22tensor4all_itensorlike7optionsNtB5_15TruncateOptions2lu
FNDA:0,_RNvMs0_NtCsaRfSWFUMrL5_22tensor4all_itensorlike7optionsNtB5_15TruncateOptions3svd
FNDA:0,_RNvMs0_NtCsaRfSWFUMrL5_22tensor4all_itensorlike7optionsNtB5_15TruncateOptions4rtol
FNDA:0,_RNvMs0_NtCsaRfSWFUMrL5_22tensor4all_itensorlike7optionsNtB5_15TruncateOptions8max_rank
FNDA:0,_RNvMs0_NtCsaRfSWFUMrL5_22tensor4all_itensorlike7optionsNtB5_15TruncateOptions9with_rtol
FNDA:0,_RNvMs3_NtCsaRfSWFUMrL5_22tensor4all_itensorlike7optionsNtB5_15ContractOptions13with_max_rank
FNDA:1,_RNvMs3_NtCsaRfSWFUMrL5_22tensor4all_itensorlike7optionsNtB5_15ContractOptions16with_nhalfsweeps
FNDA:0,_RNvMs3_NtCsaRfSWFUMrL5_22tensor4all_itensorlike7optionsNtB5_15ContractOptions3fit
FNDA:0,_RNvMs3_NtCsaRfSWFUMrL5_22tensor4all_itensorlike7optionsNtB5_15ContractOptions4rtol
FNDA:0,_RNvMs3_NtCsaRfSWFUMrL5_22tensor4all_itensorlike7optionsNtB5_15ContractOptions5naive
FNDA:1,_RNvMs3_NtCsaRfSWFUMrL5_22tensor4all_itensorlike7optionsNtB5_15ContractOptions5zipup
FNDA:0,_RNvMs3_NtCsaRfSWFUMrL5_22tensor4all_itensorlike7optionsNtB5_15ContractOptions8max_rank
FNDA:0,_RNvMs3_NtCsaRfSWFUMrL5_22tensor4all_itensorlike7optionsNtB5_15ContractOptions9with_rtol
FNDA:0,_RNvXNtCsaRfSWFUMrL5_22tensor4all_itensorlike7optionsNtB2_15TruncateOptionsNtNtCskzPJi2J8k3N_4core7default7Default7default
FNDA:1,_RNvXs1_NtCsaRfSWFUMrL5_22tensor4all_itensorlike7optionsNtB5_15ContractOptionsNtNtCskzPJi2J8k3N_4core7default7Default7default
FNDA:0,_RNvXs2_NtCsaRfSWFUMrL5_22tensor4all_itensorlike7optionsNtB5_15ContractOptionsNtNtCsbrO2ourfQV3_15tensor4all_core10truncation19HasTruncationParams17truncation_params
FNDA:0,_RNvXs2_NtCsaRfSWFUMrL5_22tensor4all_itensorlike7optionsNtB5_15ContractOptionsNtNtCsbrO2ourfQV3_15tensor4all_core10truncation19HasTruncationParams21truncation_params_mut
FNDA:0,_RNvXs_NtCsaRfSWFUMrL5_22tensor4all_itensorlike7optionsNtB4_15TruncateOptionsNtNtCsbrO2ourfQV3_15tensor4all_core10truncation19HasTruncationParams17truncation_params
FNDA:0,_RNvXs_NtCsaRfSWFUMrL5_22tensor4all_itensorlike7optionsNtB4_15TruncateOptionsNtNtCsbrO2ourfQV3_15tensor4all_core10truncation19HasTruncationParams21truncation_params_mut
FNDA:1,_RNvNtNtCsk8nCQTNnVi9_22tensor4all_itensorlike7options5testss_28test_contract_method_default
FNDA:1,_RNvNtNtCsk8nCQTNnVi9_22tensor4all_itensorlike7options5testss_29test_contract_options_builder
FNDA:1,_RNvNtNtCsk8nCQTNnVi9_22tensor4all_itensorlike7options5testss_29test_contract_options_default
FNDA:1,_RNvNtNtCsk8nCQTNnVi9_22tensor4all_itensorlike7options5testss_29test_contract_options_methods
FNDA:1,_RNvNtNtCsk8nCQTNnVi9_22tensor4all_itensorlike7options5testss_29test_truncate_options_builder
FNDA:1,_RNvNtNtCsk8nCQTNnVi9_22tensor4all_itensorlike7options5testss_29test_truncate_options_default
FNDA:1,_RNvNtNtCsk8nCQTNnVi9_22tensor4all_itensorlike7options5testss_32test_truncate_options_algorithms
FNDA:1,_RNvNtNtCsk8nCQTNnVi9_22tensor4all_itensorlike7options5testss_32test_truncate_options_site_range
FNDA:1,_RNvNtNtCsk8nCQTNnVi9_22tensor4all_itensorlike7options5testss_43test_contract_options_has_truncation_params
FNDA:1,_RNvNtNtCsk8nCQTNnVi9_22tensor4all_itensorlike7options5testss_43test_truncate_options_has_truncation_params
FNDA:1,_RNvNtNtCsk8nCQTNnVi9_22tensor4all_itensorlike7options5testss_55test_contract_options_nhalfsweeps_must_be_multiple_of_2
FNDA:2,_RNvMs0_NtCsk8nCQTNnVi9_22tensor4all_itensorlike7optionsNtB5_15TruncateOptions13with_max_rank
FNDA:1,_RNvMs0_NtCsk8nCQTNnVi9_22tensor4all_itensorlike7optionsNtB5_15TruncateOptions15with_site_range
FNDA:1,_RNvMs0_NtCsk8nCQTNnVi9_22tensor4all_itensorlike7optionsNtB5_15TruncateOptions2ci
FNDA:1,_RNvMs0_NtCsk8nCQTNnVi9_22tensor4all_itensorlike7optionsNtB5_15TruncateOptions2lu
FNDA:5,_RNvMs0_NtCsk8nCQTNnVi9_22tensor4all_itensorlike7optionsNtB5_15TruncateOptions3svd
FNDA:2,_RNvMs0_NtCsk8nCQTNnVi9_22tensor4all_itensorlike7optionsNtB5_15TruncateOptions4rtol
FNDA:2,_RNvMs0_NtCsk8nCQTNnVi9_22tensor4all_itensorlike7optionsNtB5_15TruncateOptions8max_rank
FNDA:1,_RNvMs0_NtCsk8nCQTNnVi9_22tensor4all_itensorlike7optionsNtB5_15TruncateOptions9with_rtol
FNDA:3,_RNvMs3_NtCsk8nCQTNnVi9_22tensor4all_itensorlike7optionsNtB5_15ContractOptions13with_max_rank
FNDA:4,_RNvMs3_NtCsk8nCQTNnVi9_22tensor4all_itensorlike7optionsNtB5_15ContractOptions16with_nhalfsweeps
FNDA:4,_RNvMs3_NtCsk8nCQTNnVi9_22tensor4all_itensorlike7optionsNtB5_15ContractOptions3fit
FNDA:2,_RNvMs3_NtCsk8nCQTNnVi9_22tensor4all_itensorlike7optionsNtB5_15ContractOptions4rtol
FNDA:2,_RNvMs3_NtCsk8nCQTNnVi9_22tensor4all_itensorlike7optionsNtB5_15ContractOptions5naive
FNDA:3,_RNvMs3_NtCsk8nCQTNnVi9_22tensor4all_itensorlike7optionsNtB5_15ContractOptions5zipup
FNDA:2,_RNvMs3_NtCsk8nCQTNnVi9_22tensor4all_itensorlike7optionsNtB5_15ContractOptions8max_rank
FNDA:1,_RNvMs3_NtCsk8nCQTNnVi9_22tensor4all_itensorlike7optionsNtB5_15ContractOptions9with_rtol
FNDA:8,_RNvXNtCsk8nCQTNnVi9_22tensor4all_itensorlike7optionsNtB2_15TruncateOptionsNtNtCskzPJi2J8k3N_4core7default7Default7default
FNDA:10,_RNvXs1_NtCsk8nCQTNnVi9_22tensor4all_itensorlike7optionsNtB5_15ContractOptionsNtNtCskzPJi2J8k3N_4core7default7Default7default
FNDA:2,_RNvXs2_NtCsk8nCQTNnVi9_22tensor4all_itensorlike7optionsNtB5_15ContractOptionsNtNtCsbrO2ourfQV3_15tensor4all_core10truncation19HasTruncationParams17truncation_params
FNDA:1,_RNvXs2_NtCsk8nCQTNnVi9_22tensor4all_itensorlike7optionsNtB5_15ContractOptionsNtNtCsbrO2ourfQV3_15tensor4all_core10truncation19HasTruncationParams21truncation_params_mut
FNDA:2,_RNvXs_NtCsk8nCQTNnVi9_22tensor4all_itensorlike7optionsNtB4_15TruncateOptionsNtNtCsbrO2ourfQV3_15tensor4all_core10truncation19HasTruncationParams17truncation_params
FNDA:1,_RNvXs_NtCsk8nCQTNnVi9_22tensor4all_itensorlike7optionsNtB4_15TruncateOptionsNtNtCsbrO2ourfQV3_15tensor4all_core10truncation19HasTruncationParams21truncation_params_mut
FNF:33
FNH:33
DA:67,8
DA:68,8
DA:69,8
DA:70,8
DA:71,8
DA:72,8
DA:73,8
DA:77,2
DA:78,2
DA:79,2
DA:81,1
DA:82,1
DA:83,1
DA:88,5
DA:89,5
DA:90,5
DA:91,5
DA:92,5
DA:93,5
DA:96,1
DA:97,1
DA:98,1
DA:99,1
DA:100,1
DA:101,1
DA:104,1
DA:105,1
DA:106,1
DA:107,1
DA:108,1
DA:109,1
DA:112,1
DA:113,1
DA:114,1
DA:115,1
DA:118,2
DA:119,2
DA:120,2
DA:121,2
DA:127,1
DA:128,1
DA:129,1
DA:130,1
DA:133,2
DA:134,2
DA:135,2
DA:138,2
DA:139,2
DA:140,2
DA:185,11
DA:186,11
DA:187,11
DA:188,11
DA:189,11
DA:190,11
DA:191,11
DA:195,2
DA:196,2
DA:197,2
DA:199,1
DA:200,1
DA:201,1
DA:206,4
DA:207,4
DA:208,4
DA:209,4
DA:210,4
DA:211,4
DA:214,4
DA:215,4
DA:216,4
DA:217,4
DA:218,4
DA:219,4
DA:225,2
DA:226,2
DA:227,2
DA:228,2
DA:229,2
DA:230,2
DA:233,3
DA:234,3
DA:235,3
DA:236,3
DA:239,1
DA:240,1
DA:241,1
DA:242,1
DA:251,5
DA:252,5
DA:253,1
DA:254,4
DA:255,4
DA:256,4
DA:257,4
DA:260,2
DA:261,2
DA:262,2
DA:265,2
DA:266,2
DA:267,2
DA:275,1
DA:276,1
DA:277,1
DA:278,1
DA:279,1
DA:280,1
DA:283,1
DA:284,1
DA:285,1
DA:286,1
DA:287,1
DA:290,1
DA:291,1
DA:292,1
DA:293,1
DA:296,1
DA:297,1
DA:298,1
DA:299,1
DA:300,1
DA:301,1
DA:302,1
DA:305,1
DA:306,1
DA:307,1
DA:308,1
DA:309,1
DA:310,1
DA:313,1
DA:314,1
DA:315,1
DA:316,1
DA:317,1
DA:318,1
DA:319,1
DA:320,1
DA:321,1
DA:322,1
DA:325,1
DA:326,1
DA:327,1
DA:328,1
DA:329,1
DA:332,1
DA:333,1
DA:334,1
DA:335,1
DA:336,1
DA:337,1
DA:338,1
DA:341,1
DA:342,1
DA:343,1
DA:344,1
DA:345,1
DA:346,1
DA:350,1
DA:352,1
DA:353,1
DA:356,1
DA:357,1
DA:358,1
DA:359,1
BRF:0
BRH:0
LF:164
LH:164
end_of_record
SF:/Users/ken/git_for_collab4/tensor4all-rs/crates/tensor4all-itensorlike/src/tensortrain.rs
FN:255,_RNvMNtCsaRfSWFUMrL5_22tensor4all_itensorlike11tensortrainNtB2_11TensorTrain14canonical_formCslD6BJj2Z6b5_15tensor4all_capi
FN:156,_RNvMNtCsaRfSWFUMrL5_22tensor4all_itensorlike11tensortrainNtB2_11TensorTrain3lenCslD6BJj2Z6b5_15tensor4all_capi
FN:171,_RNvMNtCsaRfSWFUMrL5_22tensor4all_itensorlike11tensortrainNtB2_11TensorTrain4llimCslD6BJj2Z6b5_15tensor4all_capi
FN:183,_RNvMNtCsaRfSWFUMrL5_22tensor4all_itensorlike11tensortrainNtB2_11TensorTrain4rlimCslD6BJj2Z6b5_15tensor4all_capi
FN:271,_RNvMNtCsaRfSWFUMrL5_22tensor4all_itensorlike11tensortrainNtB2_11TensorTrain6tensorCslD6BJj2Z6b5_15tensor4all_capi
FN:235,_RNvMNtCsaRfSWFUMrL5_22tensor4all_itensorlike11tensortrainNtB2_11TensorTrain7isorthoCslD6BJj2Z6b5_15tensor4all_capi
FN:162,_RNvMNtCsaRfSWFUMrL5_22tensor4all_itensorlike11tensortrainNtB2_11TensorTrain8is_emptyCslD6BJj2Z6b5_15tensor4all_capi
FN:143,_RNCNvMNtCsaRfSWFUMrL5_22tensor4all_itensorlike11tensortrainNtB4_11TensorTrain10with_ortho0B6_
FN:369,_RNCNvMNtCsaRfSWFUMrL5_22tensor4all_itensorlike11tensortrainNtB4_11TensorTrain12sim_linkinds0B6_
FN:290,_RNCNvMNtCsaRfSWFUMrL5_22tensor4all_itensorlike11tensortrainNtB4_11TensorTrain14tensor_checked0B6_
FN:296,_RNCNvMNtCsaRfSWFUMrL5_22tensor4all_itensorlike11tensortrainNtB4_11TensorTrain14tensor_checkeds_0B6_
FN:516,_RNCNvMNtCsaRfSWFUMrL5_22tensor4all_itensorlike11tensortrainNtB4_11TensorTrain18orthogonalize_with0B6_
FN:109,_RNCNvMNtCsaRfSWFUMrL5_22tensor4all_itensorlike11tensortrainNtB4_11TensorTrain3new0B6_
FN:429,_RNCNvMNtCsaRfSWFUMrL5_22tensor4all_itensorlike11tensortrainNtB4_11TensorTrain8bond_dim0B6_
FN:686,_RNCNvMNtCsaRfSWFUMrL5_22tensor4all_itensorlike11tensortrainNtB4_11TensorTrain8contract0B6_
FN:689,_RNCNvMNtCsaRfSWFUMrL5_22tensor4all_itensorlike11tensortrainNtB4_11TensorTrain8contracts_0B6_
FN:353,_RNCNvMNtCsaRfSWFUMrL5_22tensor4all_itensorlike11tensortrainNtB4_11TensorTrain8linkinds0B6_
FN:408,_RNCNvMNtCsaRfSWFUMrL5_22tensor4all_itensorlike11tensortrainNtB4_11TensorTrain8siteinds0B6_
FN:415,_RNCNvMNtCsaRfSWFUMrL5_22tensor4all_itensorlike11tensortrainNtB4_11TensorTrain8siteindss_0B6_
FN:549,_RNCNvMNtCsaRfSWFUMrL5_22tensor4all_itensorlike11tensortrainNtB4_11TensorTrain8truncate0B6_
FN:436,_RNCNvMNtCsaRfSWFUMrL5_22tensor4all_itensorlike11tensortrainNtB4_11TensorTrain9bond_dims0B6_
FN:440,_RNvMNtCsaRfSWFUMrL5_22tensor4all_itensorlike11tensortrainNtB2_11TensorTrain10maxbonddim
FN:223,_RNvMNtCsaRfSWFUMrL5_22tensor4all_itensorlike11tensortrainNtB2_11TensorTrain10ortho_lims
FN:467,_RNvMNtCsaRfSWFUMrL5_22tensor4all_itensorlike11tensortrainNtB2_11TensorTrain10set_tensor
FN:131,_RNvMNtCsaRfSWFUMrL5_22tensor4all_itensorlike11tensortrainNtB2_11TensorTrain10with_ortho
FN:243,_RNvMNtCsaRfSWFUMrL5_22tensor4all_itensorlike11tensortrainNtB2_11TensorTrain11orthocenter
FN:602,_RNvMNtCsaRfSWFUMrL5_22tensor4all_itensorlike11tensortrainNtB2_11TensorTrain12norm_squared
FN:362,_RNvMNtCsaRfSWFUMrL5_22tensor4all_itensorlike11tensortrainNtB2_11TensorTrain12sim_linkinds
FN:486,_RNvMNtCsaRfSWFUMrL5_22tensor4all_itensorlike11tensortrainNtB2_11TensorTrain13orthogonalize
FN:279,_RNvMNtCsaRfSWFUMrL5_22tensor4all_itensorlike11tensortrainNtB2_11TensorTrain14tensor_checked
FN:499,_RNvMNtCsaRfSWFUMrL5_22tensor4all_itensorlike11tensortrainNtB2_11TensorTrain18orthogonalize_with
FN:156,_RNvMNtCsaRfSWFUMrL5_22tensor4all_itensorlike11tensortrainNtB2_11TensorTrain3lenB4_
FN:67,_RNvMNtCsaRfSWFUMrL5_22tensor4all_itensorlike11tensortrainNtB2_11TensorTrain3new
FN:171,_RNvMNtCsaRfSWFUMrL5_22tensor4all_itensorlike11tensortrainNtB2_11TensorTrain4llimB4_
FN:609,_RNvMNtCsaRfSWFUMrL5_22tensor4all_itensorlike11tensortrainNtB2_11TensorTrain4norm
FN:183,_RNvMNtCsaRfSWFUMrL5_22tensor4all_itensorlike11tensortrainNtB2_11TensorTrain4rlimB4_
FN:563,_RNvMNtCsaRfSWFUMrL5_22tensor4all_itensorlike11tensortrainNtB2_11TensorTrain5inner
FN:271,_RNvMNtCsaRfSWFUMrL5_22tensor4all_itensorlike11tensortrainNtB2_11TensorTrain6tensorB4_
FN:445,_RNvMNtCsaRfSWFUMrL5_22tensor4all_itensorlike11tensortrainNtB2_11TensorTrain7haslink
FN:335,_RNvMNtCsaRfSWFUMrL5_22tensor4all_itensorlike11tensortrainNtB2_11TensorTrain7linkind
FN:428,_RNvMNtCsaRfSWFUMrL5_22tensor4all_itensorlike11tensortrainNtB2_11TensorTrain8bond_dim
FN:630,_RNvMNtCsaRfSWFUMrL5_22tensor4all_itensorlike11tensortrainNtB2_11TensorTrain8contract
FN:162,_RNvMNtCsaRfSWFUMrL5_22tensor4all_itensorlike11tensortrainNtB2_11TensorTrain8is_emptyB4_
FN:351,_RNvMNtCsaRfSWFUMrL5_22tensor4all_itensorlike11tensortrainNtB2_11TensorTrain8linkinds
FN:394,_RNvMNtCsaRfSWFUMrL5_22tensor4all_itensorlike11tensortrainNtB2_11TensorTrain8siteinds
FN:530,_RNvMNtCsaRfSWFUMrL5_22tensor4all_itensorlike11tensortrainNtB2_11TensorTrain8truncate
FN:435,_RNvMNtCsaRfSWFUMrL5_22tensor4all_itensorlike11tensortrainNtB2_11TensorTrain9bond_dims
FN:714,_RNvNtCsaRfSWFUMrL5_22tensor4all_itensorlike11tensortrain20truncate_alg_to_form
FN:705,_RNvXs_NtCsaRfSWFUMrL5_22tensor4all_itensorlike11tensortrainNtB4_11TensorTrainNtNtCskzPJi2J8k3N_4core7default7Default7default
FN:729,_RNvNtNtCsk8nCQTNnVi9_22tensor4all_itensorlike11tensortrain5tests11make_tensor
FN:738,_RNvNtNtCsk8nCQTNnVi9_22tensor4all_itensorlike11tensortrain5tests3idx
FN:743,_RNvNtNtCsk8nCQTNnVi9_22tensor4all_itensorlike11tensortrain5testss_13test_empty_tt
FN:763,_RNvNtNtCsk8nCQTNnVi9_22tensor4all_itensorlike11tensortrain5testss_16test_two_site_tt
FN:1057,_RNvNtNtCsk8nCQTNnVi9_22tensor4all_itensorlike11tensortrain5testss_18test_inner_product
FN:811,_RNvNtNtCsk8nCQTNnVi9_22tensor4all_itensorlike11tensortrain5testss_19test_ortho_tracking
FN:753,_RNvNtNtCsk8nCQTNnVi9_22tensor4all_itensorlike11tensortrain5testss_19test_single_site_tt
FN:834,_RNvNtNtCsk8nCQTNnVi9_22tensor4all_itensorlike11tensortrain5testss_21test_ortho_lims_range
FN:791,_RNvNtNtCsk8nCQTNnVi9_22tensor4all_itensorlike11tensortrain5testss_23test_multi_site_indices
FN:854,_RNvNtNtCsk8nCQTNnVi9_22tensor4all_itensorlike11tensortrain5testss_26test_no_common_index_error
FN:943,_RNvNtNtCsk8nCQTNnVi9_22tensor4all_itensorlike11tensortrain5testss_26test_orthogonalize_with_ci
FN:926,_RNvNtNtCsk8nCQTNnVi9_22tensor4all_itensorlike11tensortrain5testss_26test_orthogonalize_with_lu
FN:870,_RNvNtNtCsk8nCQTNnVi9_22tensor4all_itensorlike11tensortrain5testss_27test_orthogonalize_two_site
FN:960,_RNvNtNtCsk8nCQTNnVi9_22tensor4all_itensorlike11tensortrain5testss_27test_truncate_with_max_rank
FN:985,_RNvNtNtCsk8nCQTNnVi9_22tensor4all_itensorlike11tensortrain5testss_29test_contract_with_fit_method
FN:895,_RNvNtNtCsk8nCQTNnVi9_22tensor4all_itensorlike11tensortrain5testss_29test_orthogonalize_three_site
FN:1010,_RNvNtNtCsk8nCQTNnVi9_22tensor4all_itensorlike11tensortrain5testss_31test_contract_with_naive_method
FN:1033,_RNvNtNtCsk8nCQTNnVi9_22tensor4all_itensorlike11tensortrain5testss_36test_contract_nhalfsweeps_conversion
FN:440,_RNvMNtCsk8nCQTNnVi9_22tensor4all_itensorlike11tensortrainNtB2_11TensorTrain10maxbonddim
FN:223,_RNvMNtCsk8nCQTNnVi9_22tensor4all_itensorlike11tensortrainNtB2_11TensorTrain10ortho_lims
FN:131,_RNvMNtCsk8nCQTNnVi9_22tensor4all_itensorlike11tensortrainNtB2_11TensorTrain10with_ortho
FN:243,_RNvMNtCsk8nCQTNnVi9_22tensor4all_itensorlike11tensortrainNtB2_11TensorTrain11orthocenter
FN:602,_RNvMNtCsk8nCQTNnVi9_22tensor4all_itensorlike11tensortrainNtB2_11TensorTrain12norm_squared
FN:362,_RNvMNtCsk8nCQTNnVi9_22tensor4all_itensorlike11tensortrainNtB2_11TensorTrain12sim_linkinds
FN:486,_RNvMNtCsk8nCQTNnVi9_22tensor4all_itensorlike11tensortrainNtB2_11TensorTrain13orthogonalize
FN:255,_RNvMNtCsk8nCQTNnVi9_22tensor4all_itensorlike11tensortrainNtB2_11TensorTrain14canonical_formB4_
FN:499,_RNvMNtCsk8nCQTNnVi9_22tensor4all_itensorlike11tensortrainNtB2_11TensorTrain18orthogonalize_with
FN:156,_RNvMNtCsk8nCQTNnVi9_22tensor4all_itensorlike11tensortrainNtB2_11TensorTrain3lenB4_
FN:67,_RNvMNtCsk8nCQTNnVi9_22tensor4all_itensorlike11tensortrainNtB2_11TensorTrain3new
FN:171,_RNvMNtCsk8nCQTNnVi9_22tensor4all_itensorlike11tensortrainNtB2_11TensorTrain4llimB4_
FN:609,_RNvMNtCsk8nCQTNnVi9_22tensor4all_itensorlike11tensortrainNtB2_11TensorTrain4norm
FN:183,_RNvMNtCsk8nCQTNnVi9_22tensor4all_itensorlike11tensortrainNtB2_11TensorTrain4rlimB4_
FN:563,_RNvMNtCsk8nCQTNnVi9_22tensor4all_itensorlike11tensortrainNtB2_11TensorTrain5inner
FN:271,_RNvMNtCsk8nCQTNnVi9_22tensor4all_itensorlike11tensortrainNtB2_11TensorTrain6tensorB4_
FN:235,_RNvMNtCsk8nCQTNnVi9_22tensor4all_itensorlike11tensortrainNtB2_11TensorTrain7isorthoB4_
FN:335,_RNvMNtCsk8nCQTNnVi9_22tensor4all_itensorlike11tensortrainNtB2_11TensorTrain7linkind
FN:630,_RNvMNtCsk8nCQTNnVi9_22tensor4all_itensorlike11tensortrainNtB2_11TensorTrain8contract
FN:162,_RNvMNtCsk8nCQTNnVi9_22tensor4all_itensorlike11tensortrainNtB2_11TensorTrain8is_emptyB4_
FN:351,_RNvMNtCsk8nCQTNnVi9_22tensor4all_itensorlike11tensortrainNtB2_11TensorTrain8linkinds
FN:394,_RNvMNtCsk8nCQTNnVi9_22tensor4all_itensorlike11tensortrainNtB2_11TensorTrain8siteinds
FN:530,_RNvMNtCsk8nCQTNnVi9_22tensor4all_itensorlike11tensortrainNtB2_11TensorTrain8truncate
FN:435,_RNvMNtCsk8nCQTNnVi9_22tensor4all_itensorlike11tensortrainNtB2_11TensorTrain9bond_dims
FN:714,_RNvNtCsk8nCQTNnVi9_22tensor4all_itensorlike11tensortrain20truncate_alg_to_form
FN:143,_RNCNvMNtCsk8nCQTNnVi9_22tensor4all_itensorlike11tensortrainNtB4_11TensorTrain10with_ortho0B6_
FN:369,_RNCNvMNtCsk8nCQTNnVi9_22tensor4all_itensorlike11tensortrainNtB4_11TensorTrain12sim_linkinds0B6_
FN:516,_RNCNvMNtCsk8nCQTNnVi9_22tensor4all_itensorlike11tensortrainNtB4_11TensorTrain18orthogonalize_with0B6_
FN:109,_RNCNvMNtCsk8nCQTNnVi9_22tensor4all_itensorlike11tensortrainNtB4_11TensorTrain3new0B6_
FN:686,_RNCNvMNtCsk8nCQTNnVi9_22tensor4all_itensorlike11tensortrainNtB4_11TensorTrain8contract0B6_
FN:689,_RNCNvMNtCsk8nCQTNnVi9_22tensor4all_itensorlike11tensortrainNtB4_11TensorTrain8contracts_0B6_
FN:353,_RNCNvMNtCsk8nCQTNnVi9_22tensor4all_itensorlike11tensortrainNtB4_11TensorTrain8linkinds0B6_
FN:408,_RNCNvMNtCsk8nCQTNnVi9_22tensor4all_itensorlike11tensortrainNtB4_11TensorTrain8siteinds0B6_
FN:415,_RNCNvMNtCsk8nCQTNnVi9_22tensor4all_itensorlike11tensortrainNtB4_11TensorTrain8siteindss_0B6_
FN:549,_RNCNvMNtCsk8nCQTNnVi9_22tensor4all_itensorlike11tensortrainNtB4_11TensorTrain8truncate0B6_
FN:436,_RNCNvMNtCsk8nCQTNnVi9_22tensor4all_itensorlike11tensortrainNtB4_11TensorTrain9bond_dims0B6_
FN:290,_RNCNvMNtCsk8nCQTNnVi9_22tensor4all_itensorlike11tensortrainNtB4_11TensorTrain14tensor_checked0B6_
FN:296,_RNCNvMNtCsk8nCQTNnVi9_22tensor4all_itensorlike11tensortrainNtB4_11TensorTrain14tensor_checkeds_0B6_
FN:316,_RNCNvMNtCsk8nCQTNnVi9_22tensor4all_itensorlike11tensortrainNtB4_11TensorTrain7tensors0B6_
FN:429,_RNCNvMNtCsk8nCQTNnVi9_22tensor4all_itensorlike11tensortrainNtB4_11TensorTrain8bond_dim0B6_
FN:467,_RNvMNtCsk8nCQTNnVi9_22tensor4all_itensorlike11tensortrainNtB2_11TensorTrain10set_tensor
FN:307,_RNvMNtCsk8nCQTNnVi9_22tensor4all_itensorlike11tensortrainNtB2_11TensorTrain10tensor_mutB4_
FN:325,_RNvMNtCsk8nCQTNnVi9_22tensor4all_itensorlike11tensortrainNtB2_11TensorTrain11tensors_mutB4_
FN:279,_RNvMNtCsk8nCQTNnVi9_22tensor4all_itensorlike11tensortrainNtB2_11TensorTrain14tensor_checked
FN:261,_RNvMNtCsk8nCQTNnVi9_22tensor4all_itensorlike11tensortrainNtB2_11TensorTrain18set_canonical_formB4_
FN:445,_RNvMNtCsk8nCQTNnVi9_22tensor4all_itensorlike11tensortrainNtB2_11TensorTrain7haslink
FN:314,_RNvMNtCsk8nCQTNnVi9_22tensor4all_itensorlike11tensortrainNtB2_11TensorTrain7tensorsB4_
FN:428,_RNvMNtCsk8nCQTNnVi9_22tensor4all_itensorlike11tensortrainNtB2_11TensorTrain8bond_dim
FN:192,_RNvMNtCsk8nCQTNnVi9_22tensor4all_itensorlike11tensortrainNtB2_11TensorTrain8set_llimB4_
FN:206,_RNvMNtCsk8nCQTNnVi9_22tensor4all_itensorlike11tensortrainNtB2_11TensorTrain8set_rlimB4_
FN:705,_RNvXs_NtCsk8nCQTNnVi9_22tensor4all_itensorlike11tensortrainNtB4_11TensorTrainNtNtCskzPJi2J8k3N_4core7default7Default7default
FN:730,_RNCNvNtNtCsk8nCQTNnVi9_22tensor4all_itensorlike11tensortrain5tests11make_tensor0B7_
FN:732,_RNCNvNtNtCsk8nCQTNnVi9_22tensor4all_itensorlike11tensortrain5tests11make_tensors_0B7_
FNDA:0,_RNvMNtCsaRfSWFUMrL5_22tensor4all_itensorlike11tensortrainNtB2_11TensorTrain14canonical_formCslD6BJj2Z6b5_15tensor4all_capi
FNDA:2,_RNvMNtCsaRfSWFUMrL5_22tensor4all_itensorlike11tensortrainNtB2_11TensorTrain3lenCslD6BJj2Z6b5_15tensor4all_capi
FNDA:0,_RNvMNtCsaRfSWFUMrL5_22tensor4all_itensorlike11tensortrainNtB2_11TensorTrain4llimCslD6BJj2Z6b5_15tensor4all_capi
FNDA:0,_RNvMNtCsaRfSWFUMrL5_22tensor4all_itensorlike11tensortrainNtB2_11TensorTrain4rlimCslD6BJj2Z6b5_15tensor4all_capi
FNDA:0,_RNvMNtCsaRfSWFUMrL5_22tensor4all_itensorlike11tensortrainNtB2_11TensorTrain6tensorCslD6BJj2Z6b5_15tensor4all_capi
FNDA:0,_RNvMNtCsaRfSWFUMrL5_22tensor4all_itensorlike11tensortrainNtB2_11TensorTrain7isorthoCslD6BJj2Z6b5_15tensor4all_capi
FNDA:1,_RNvMNtCsaRfSWFUMrL5_22tensor4all_itensorlike11tensortrainNtB2_11TensorTrain8is_emptyCslD6BJj2Z6b5_15tensor4all_capi
FNDA:0,_RNCNvMNtCsaRfSWFUMrL5_22tensor4all_itensorlike11tensortrainNtB4_11TensorTrain10with_ortho0B6_
FNDA:0,_RNCNvMNtCsaRfSWFUMrL5_22tensor4all_itensorlike11tensortrainNtB4_11TensorTrain12sim_linkinds0B6_
FNDA:0,_RNCNvMNtCsaRfSWFUMrL5_22tensor4all_itensorlike11tensortrainNtB4_11TensorTrain14tensor_checked0B6_
FNDA:0,_RNCNvMNtCsaRfSWFUMrL5_22tensor4all_itensorlike11tensortrainNtB4_11TensorTrain14tensor_checkeds_0B6_
FNDA:0,_RNCNvMNtCsaRfSWFUMrL5_22tensor4all_itensorlike11tensortrainNtB4_11TensorTrain18orthogonalize_with0B6_
FNDA:0,_RNCNvMNtCsaRfSWFUMrL5_22tensor4all_itensorlike11tensortrainNtB4_11TensorTrain3new0B6_
FNDA:0,_RNCNvMNtCsaRfSWFUMrL5_22tensor4all_itensorlike11tensortrainNtB4_11TensorTrain8bond_dim0B6_
FNDA:0,_RNCNvMNtCsaRfSWFUMrL5_22tensor4all_itensorlike11tensortrainNtB4_11TensorTrain8contract0B6_
FNDA:0,_RNCNvMNtCsaRfSWFUMrL5_22tensor4all_itensorlike11tensortrainNtB4_11TensorTrain8contracts_0B6_
FNDA:1,_RNCNvMNtCsaRfSWFUMrL5_22tensor4all_itensorlike11tensortrainNtB4_11TensorTrain8linkinds0B6_
FNDA:0,_RNCNvMNtCsaRfSWFUMrL5_22tensor4all_itensorlike11tensortrainNtB4_11TensorTrain8siteinds0B6_
FNDA:0,_RNCNvMNtCsaRfSWFUMrL5_22tensor4all_itensorlike11tensortrainNtB4_11TensorTrain8siteindss_0B6_
FNDA:0,_RNCNvMNtCsaRfSWFUMrL5_22tensor4all_itensorlike11tensortrainNtB4_11TensorTrain8truncate0B6_
FNDA:1,_RNCNvMNtCsaRfSWFUMrL5_22tensor4all_itensorlike11tensortrainNtB4_11TensorTrain9bond_dims0B6_
FNDA:1,_RNvMNtCsaRfSWFUMrL5_22tensor4all_itensorlike11tensortrainNtB2_11TensorTrain10maxbonddim
FNDA:0,_RNvMNtCsaRfSWFUMrL5_22tensor4all_itensorlike11tensortrainNtB2_11TensorTrain10ortho_lims
FNDA:0,_RNvMNtCsaRfSWFUMrL5_22tensor4all_itensorlike11tensortrainNtB2_11TensorTrain10set_tensor
FNDA:0,_RNvMNtCsaRfSWFUMrL5_22tensor4all_itensorlike11tensortrainNtB2_11TensorTrain10with_ortho
FNDA:0,_RNvMNtCsaRfSWFUMrL5_22tensor4all_itensorlike11tensortrainNtB2_11TensorTrain11orthocenter
FNDA:0,_RNvMNtCsaRfSWFUMrL5_22tensor4all_itensorlike11tensortrainNtB2_11TensorTrain12norm_squared
FNDA:0,_RNvMNtCsaRfSWFUMrL5_22tensor4all_itensorlike11tensortrainNtB2_11TensorTrain12sim_linkinds
FNDA:0,_RNvMNtCsaRfSWFUMrL5_22tensor4all_itensorlike11tensortrainNtB2_11TensorTrain13orthogonalize
FNDA:0,_RNvMNtCsaRfSWFUMrL5_22tensor4all_itensorlike11tensortrainNtB2_11TensorTrain14tensor_checked
FNDA:0,_RNvMNtCsaRfSWFUMrL5_22tensor4all_itensorlike11tensortrainNtB2_11TensorTrain18orthogonalize_with
FNDA:5,_RNvMNtCsaRfSWFUMrL5_22tensor4all_itensorlike11tensortrainNtB2_11TensorTrain3lenB4_
FNDA:4,_RNvMNtCsaRfSWFUMrL5_22tensor4all_itensorlike11tensortrainNtB2_11TensorTrain3new
FNDA:0,_RNvMNtCsaRfSWFUMrL5_22tensor4all_itensorlike11tensortrainNtB2_11TensorTrain4llimB4_
FNDA:0,_RNvMNtCsaRfSWFUMrL5_22tensor4all_itensorlike11tensortrainNtB2_11TensorTrain4norm
FNDA:0,_RNvMNtCsaRfSWFUMrL5_22tensor4all_itensorlike11tensortrainNtB2_11TensorTrain4rlimB4_
FNDA:0,_RNvMNtCsaRfSWFUMrL5_22tensor4all_itensorlike11tensortrainNtB2_11TensorTrain5inner
FNDA:0,_RNvMNtCsaRfSWFUMrL5_22tensor4all_itensorlike11tensortrainNtB2_11TensorTrain6tensorB4_
FNDA:0,_RNvMNtCsaRfSWFUMrL5_22tensor4all_itensorlike11tensortrainNtB2_11TensorTrain7haslink
FNDA:1,_RNvMNtCsaRfSWFUMrL5_22tensor4all_itensorlike11tensortrainNtB2_11TensorTrain7linkind
FNDA:0,_RNvMNtCsaRfSWFUMrL5_22tensor4all_itensorlike11tensortrainNtB2_11TensorTrain8bond_dim
FNDA:1,_RNvMNtCsaRfSWFUMrL5_22tensor4all_itensorlike11tensortrainNtB2_11TensorTrain8contract
FNDA:2,_RNvMNtCsaRfSWFUMrL5_22tensor4all_itensorlike11tensortrainNtB2_11TensorTrain8is_emptyB4_
FNDA:1,_RNvMNtCsaRfSWFUMrL5_22tensor4all_itensorlike11tensortrainNtB2_11TensorTrain8linkinds
FNDA:0,_RNvMNtCsaRfSWFUMrL5_22tensor4all_itensorlike11tensortrainNtB2_11TensorTrain8siteinds
FNDA:0,_RNvMNtCsaRfSWFUMrL5_22tensor4all_itensorlike11tensortrainNtB2_11TensorTrain8truncate
FNDA:1,_RNvMNtCsaRfSWFUMrL5_22tensor4all_itensorlike11tensortrainNtB2_11TensorTrain9bond_dims
FNDA:0,_RNvNtCsaRfSWFUMrL5_22tensor4all_itensorlike11tensortrain20truncate_alg_to_form
FNDA:0,_RNvXs_NtCsaRfSWFUMrL5_22tensor4all_itensorlike11tensortrainNtB4_11TensorTrainNtNtCskzPJi2J8k3N_4core7default7Default7default
FNDA:32,_RNvNtNtCsk8nCQTNnVi9_22tensor4all_itensorlike11tensortrain5tests11make_tensor
FNDA:46,_RNvNtNtCsk8nCQTNnVi9_22tensor4all_itensorlike11tensortrain5tests3idx
FNDA:1,_RNvNtNtCsk8nCQTNnVi9_22tensor4all_itensorlike11tensortrain5testss_13test_empty_tt
FNDA:1,_RNvNtNtCsk8nCQTNnVi9_22tensor4all_itensorlike11tensortrain5testss_16test_two_site_tt
FNDA:1,_RNvNtNtCsk8nCQTNnVi9_22tensor4all_itensorlike11tensortrain5testss_18test_inner_product
FNDA:1,_RNvNtNtCsk8nCQTNnVi9_22tensor4all_itensorlike11tensortrain5testss_19test_ortho_tracking
FNDA:1,_RNvNtNtCsk8nCQTNnVi9_22tensor4all_itensorlike11tensortrain5testss_19test_single_site_tt
FNDA:1,_RNvNtNtCsk8nCQTNnVi9_22tensor4all_itensorlike11tensortrain5testss_21test_ortho_lims_range
FNDA:1,_RNvNtNtCsk8nCQTNnVi9_22tensor4all_itensorlike11tensortrain5testss_23test_multi_site_indices
FNDA:1,_RNvNtNtCsk8nCQTNnVi9_22tensor4all_itensorlike11tensortrain5testss_26test_no_common_index_error
FNDA:1,_RNvNtNtCsk8nCQTNnVi9_22tensor4all_itensorlike11tensortrain5testss_26test_orthogonalize_with_ci
FNDA:1,_RNvNtNtCsk8nCQTNnVi9_22tensor4all_itensorlike11tensortrain5testss_26test_orthogonalize_with_lu
FNDA:1,_RNvNtNtCsk8nCQTNnVi9_22tensor4all_itensorlike11tensortrain5testss_27test_orthogonalize_two_site
FNDA:1,_RNvNtNtCsk8nCQTNnVi9_22tensor4all_itensorlike11tensortrain5testss_27test_truncate_with_max_rank
FNDA:1,_RNvNtNtCsk8nCQTNnVi9_22tensor4all_itensorlike11tensortrain5testss_29test_contract_with_fit_method
FNDA:1,_RNvNtNtCsk8nCQTNnVi9_22tensor4all_itensorlike11tensortrain5testss_29test_orthogonalize_three_site
FNDA:1,_RNvNtNtCsk8nCQTNnVi9_22tensor4all_itensorlike11tensortrain5testss_31test_contract_with_naive_method
FNDA:1,_RNvNtNtCsk8nCQTNnVi9_22tensor4all_itensorlike11tensortrain5testss_36test_contract_nhalfsweeps_conversion
FNDA:3,_RNvMNtCsk8nCQTNnVi9_22tensor4all_itensorlike11tensortrainNtB2_11TensorTrain10maxbonddim
FNDA:1,_RNvMNtCsk8nCQTNnVi9_22tensor4all_itensorlike11tensortrainNtB2_11TensorTrain10ortho_lims
FNDA:2,_RNvMNtCsk8nCQTNnVi9_22tensor4all_itensorlike11tensortrainNtB2_11TensorTrain10with_ortho
FNDA:13,_RNvMNtCsk8nCQTNnVi9_22tensor4all_itensorlike11tensortrainNtB2_11TensorTrain11orthocenter
FNDA:2,_RNvMNtCsk8nCQTNnVi9_22tensor4all_itensorlike11tensortrainNtB2_11TensorTrain12norm_squared
FNDA:2,_RNvMNtCsk8nCQTNnVi9_22tensor4all_itensorlike11tensortrainNtB2_11TensorTrain12sim_linkinds
FNDA:5,_RNvMNtCsk8nCQTNnVi9_22tensor4all_itensorlike11tensortrainNtB2_11TensorTrain13orthogonalize
FNDA:5,_RNvMNtCsk8nCQTNnVi9_22tensor4all_itensorlike11tensortrainNtB2_11TensorTrain14canonical_formB4_
FNDA:7,_RNvMNtCsk8nCQTNnVi9_22tensor4all_itensorlike11tensortrainNtB2_11TensorTrain18orthogonalize_with
FNDA:67,_RNvMNtCsk8nCQTNnVi9_22tensor4all_itensorlike11tensortrainNtB2_11TensorTrain3lenB4_
FNDA:21,_RNvMNtCsk8nCQTNnVi9_22tensor4all_itensorlike11tensortrainNtB2_11TensorTrain3new
FNDA:2,_RNvMNtCsk8nCQTNnVi9_22tensor4all_itensorlike11tensortrainNtB2_11TensorTrain4llimB4_
FNDA:1,_RNvMNtCsk8nCQTNnVi9_22tensor4all_itensorlike11tensortrainNtB2_11TensorTrain4norm
FNDA:2,_RNvMNtCsk8nCQTNnVi9_22tensor4all_itensorlike11tensortrainNtB2_11TensorTrain4rlimB4_
FNDA:2,_RNvMNtCsk8nCQTNnVi9_22tensor4all_itensorlike11tensortrainNtB2_11TensorTrain5inner
FNDA:16,_RNvMNtCsk8nCQTNnVi9_22tensor4all_itensorlike11tensortrainNtB2_11TensorTrain6tensorB4_
FNDA:12,_RNvMNtCsk8nCQTNnVi9_22tensor4all_itensorlike11tensortrainNtB2_11TensorTrain7isorthoB4_
FNDA:13,_RNvMNtCsk8nCQTNnVi9_22tensor4all_itensorlike11tensortrainNtB2_11TensorTrain7linkind
FNDA:3,_RNvMNtCsk8nCQTNnVi9_22tensor4all_itensorlike11tensortrainNtB2_11TensorTrain8contract
FNDA:18,_RNvMNtCsk8nCQTNnVi9_22tensor4all_itensorlike11tensortrainNtB2_11TensorTrain8is_emptyB4_
FNDA:7,_RNvMNtCsk8nCQTNnVi9_22tensor4all_itensorlike11tensortrainNtB2_11TensorTrain8linkinds
FNDA:2,_RNvMNtCsk8nCQTNnVi9_22tensor4all_itensorlike11tensortrainNtB2_11TensorTrain8siteinds
FNDA:1,_RNvMNtCsk8nCQTNnVi9_22tensor4all_itensorlike11tensortrainNtB2_11TensorTrain8truncate
FNDA:5,_RNvMNtCsk8nCQTNnVi9_22tensor4all_itensorlike11tensortrainNtB2_11TensorTrain9bond_dims
FNDA:1,_RNvNtCsk8nCQTNnVi9_22tensor4all_itensorlike11tensortrain20truncate_alg_to_form
FNDA:0,_RNCNvMNtCsk8nCQTNnVi9_22tensor4all_itensorlike11tensortrainNtB4_11TensorTrain10with_ortho0B6_
FNDA:2,_RNCNvMNtCsk8nCQTNnVi9_22tensor4all_itensorlike11tensortrainNtB4_11TensorTrain12sim_linkinds0B6_
FNDA:0,_RNCNvMNtCsk8nCQTNnVi9_22tensor4all_itensorlike11tensortrainNtB4_11TensorTrain18orthogonalize_with0B6_
FNDA:0,_RNCNvMNtCsk8nCQTNnVi9_22tensor4all_itensorlike11tensortrainNtB4_11TensorTrain3new0B6_
FNDA:0,_RNCNvMNtCsk8nCQTNnVi9_22tensor4all_itensorlike11tensortrainNtB4_11TensorTrain8contract0B6_
FNDA:0,_RNCNvMNtCsk8nCQTNnVi9_22tensor4all_itensorlike11tensortrainNtB4_11TensorTrain8contracts_0B6_
FNDA:8,_RNCNvMNtCsk8nCQTNnVi9_22tensor4all_itensorlike11tensortrainNtB4_11TensorTrain8linkinds0B6_
FNDA:4,_RNCNvMNtCsk8nCQTNnVi9_22tensor4all_itensorlike11tensortrainNtB4_11TensorTrain8siteinds0B6_
FNDA:5,_RNCNvMNtCsk8nCQTNnVi9_22tensor4all_itensorlike11tensortrainNtB4_11TensorTrain8siteindss_0B6_
FNDA:0,_RNCNvMNtCsk8nCQTNnVi9_22tensor4all_itensorlike11tensortrainNtB4_11TensorTrain8truncate0B6_
FNDA:6,_RNCNvMNtCsk8nCQTNnVi9_22tensor4all_itensorlike11tensortrainNtB4_11TensorTrain9bond_dims0B6_
FNDA:0,_RNCNvMNtCsk8nCQTNnVi9_22tensor4all_itensorlike11tensortrainNtB4_11TensorTrain14tensor_checked0B6_
FNDA:0,_RNCNvMNtCsk8nCQTNnVi9_22tensor4all_itensorlike11tensortrainNtB4_11TensorTrain14tensor_checkeds_0B6_
FNDA:0,_RNCNvMNtCsk8nCQTNnVi9_22tensor4all_itensorlike11tensortrainNtB4_11TensorTrain7tensors0B6_
FNDA:0,_RNCNvMNtCsk8nCQTNnVi9_22tensor4all_itensorlike11tensortrainNtB4_11TensorTrain8bond_dim0B6_
FNDA:0,_RNvMNtCsk8nCQTNnVi9_22tensor4all_itensorlike11tensortrainNtB2_11TensorTrain10set_tensor
FNDA:0,_RNvMNtCsk8nCQTNnVi9_22tensor4all_itensorlike11tensortrainNtB2_11TensorTrain10tensor_mutB4_
FNDA:0,_RNvMNtCsk8nCQTNnVi9_22tensor4all_itensorlike11tensortrainNtB2_11TensorTrain11tensors_mutB4_
FNDA:0,_RNvMNtCsk8nCQTNnVi9_22tensor4all_itensorlike11tensortrainNtB2_11TensorTrain14tensor_checked
FNDA:0,_RNvMNtCsk8nCQTNnVi9_22tensor4all_itensorlike11tensortrainNtB2_11TensorTrain18set_canonical_formB4_
FNDA:0,_RNvMNtCsk8nCQTNnVi9_22tensor4all_itensorlike11tensortrainNtB2_11TensorTrain7haslink
FNDA:0,_RNvMNtCsk8nCQTNnVi9_22tensor4all_itensorlike11tensortrainNtB2_11TensorTrain7tensorsB4_
FNDA:0,_RNvMNtCsk8nCQTNnVi9_22tensor4all_itensorlike11tensortrainNtB2_11TensorTrain8bond_dim
FNDA:0,_RNvMNtCsk8nCQTNnVi9_22tensor4all_itensorlike11tensortrainNtB2_11TensorTrain8set_llimB4_
FNDA:0,_RNvMNtCsk8nCQTNnVi9_22tensor4all_itensorlike11tensortrainNtB2_11TensorTrain8set_rlimB4_
FNDA:0,_RNvXs_NtCsk8nCQTNnVi9_22tensor4all_itensorlike11tensortrainNtB4_11TensorTrainNtNtCskzPJi2J8k3N_4core7default7Default7default
FNDA:59,_RNCNvNtNtCsk8nCQTNnVi9_22tensor4all_itensorlike11tensortrain5tests11make_tensor0B7_
FNDA:502,_RNCNvNtNtCsk8nCQTNnVi9_22tensor4all_itensorlike11tensortrain5tests11make_tensors_0B7_
FNF:71
FNH:50
DA:67,25
DA:68,25
DA:70,2
DA:71,2
DA:72,2
DA:73,2
DA:74,2
DA:75,23
DA:78,23
DA:79,17
DA:80,17
DA:82,17
DA:83,17
DA:84,1
DA:85,1
DA:86,1
DA:87,1
DA:88,1
DA:89,1
DA:90,1
DA:91,16
DA:92,16
DA:93,0
DA:94,0
DA:95,0
DA:96,0
DA:97,0
DA:98,0
DA:99,0
DA:100,0
DA:101,16
DA:105,22
DA:108,22
DA:109,22
DA:110,0
DA:111,0
DA:112,0
DA:113,0
DA:115,22
DA:116,22
DA:117,22
DA:118,22
DA:119,25
DA:131,2
DA:132,2
DA:133,2
DA:134,2
DA:135,2
DA:136,2
DA:137,2
DA:141,2
DA:142,2
DA:143,2
DA:144,0
DA:145,0
DA:146,0
DA:147,0
DA:148,0
DA:150,2
DA:151,2
DA:152,2
DA:156,74
DA:157,74
DA:158,74
DA:162,21
DA:163,21
DA:164,21
DA:171,2
DA:172,2
DA:173,1
DA:174,1
DA:176,2
DA:183,2
DA:184,2
DA:185,1
DA:186,1
DA:188,2
DA:192,0
DA:194,0
DA:195,0
DA:196,0
DA:197,0
DA:198,0
DA:199,0
DA:200,0
DA:201,0
DA:202,0
DA:206,0
DA:208,0
DA:209,0
DA:210,0
DA:211,0
DA:212,0
DA:213,0
DA:214,0
DA:215,0
DA:216,0
DA:223,1
DA:224,1
DA:225,1
DA:226,1
DA:227,1
DA:228,1
DA:229,1
DA:235,12
DA:236,12
DA:237,12
DA:243,13
DA:244,13
DA:245,13
DA:247,11
DA:249,2
DA:251,13
DA:255,5
DA:256,5
DA:257,5
DA:261,0
DA:262,0
DA:263,0
DA:271,16
DA:272,16
DA:273,16
DA:274,16
DA:279,0
DA:280,0
DA:281,0
DA:282,0
DA:283,0
DA:284,0
DA:285,0
DA:286,0
DA:287,0
DA:288,0
DA:289,0
DA:290,0
DA:291,0
DA:292,0
DA:293,0
DA:294,0
DA:295,0
DA:296,0
DA:297,0
DA:298,0
DA:299,0
DA:307,0
DA:308,0
DA:309,0
DA:310,0
DA:314,0
DA:315,0
DA:316,0
DA:317,0
DA:318,0
DA:319,0
DA:320,0
DA:321,0
DA:325,0
DA:329,0
DA:330,0
DA:335,14
DA:336,14
DA:337,0
DA:338,14
DA:340,14
DA:341,14
DA:342,14
DA:343,14
DA:344,14
DA:345,14
DA:346,14
DA:351,8
DA:352,8
DA:353,9
DA:354,8
DA:355,8
DA:362,2
DA:363,2
DA:364,0
DA:365,2
DA:368,2
DA:369,2
DA:370,2
DA:371,2
DA:372,2
DA:373,2
DA:374,2
DA:377,2
DA:378,4
DA:379,4
DA:380,4
DA:381,8
DA:382,4
DA:383,4
DA:384,4
DA:387,2
DA:388,2
DA:394,2
DA:395,2
DA:396,0
DA:397,2
DA:399,2
DA:401,4
DA:402,4
DA:403,4
DA:406,4
DA:407,2
DA:408,4
DA:409,0
DA:410,2
DA:413,4
DA:414,2
DA:415,5
DA:416,0
DA:417,2
DA:419,4
DA:422,2
DA:423,2
DA:428,0
DA:429,0
DA:430,0
DA:435,6
DA:436,7
DA:437,6
DA:440,4
DA:441,4
DA:442,4
DA:445,0
DA:446,0
DA:447,0
DA:448,0
DA:449,0
DA:450,0
DA:451,0
DA:452,0
DA:453,0
DA:454,0
DA:455,0
DA:456,0
DA:457,0
DA:460,0
DA:462,0
DA:467,0
DA:468,0
DA:469,0
DA:471,0
DA:472,0
DA:486,5
DA:487,5
DA:488,5
DA:499,7
DA:500,7
DA:501,0
DA:502,7
DA:503,7
DA:504,0
DA:505,0
DA:506,0
DA:507,0
DA:508,7
DA:512,7
DA:513,7
DA:514,7
DA:515,7
DA:516,0
DA:517,0
DA:519,7
DA:520,7
DA:521,7
DA:530,1
DA:531,1
DA:532,0
DA:533,1
DA:536,1
DA:537,1
DA:538,1
DA:539,1
DA:540,1
DA:544,1
DA:546,1
DA:547,1
DA:548,1
DA:549,0
DA:550,0
DA:552,1
DA:554,1
DA:555,1
DA:563,2
DA:564,2
DA:565,2
DA:566,2
DA:567,0
DA:570,2
DA:571,0
DA:572,2
DA:575,2
DA:578,2
DA:579,2
DA:580,2
DA:581,2
DA:585,2
DA:586,2
DA:587,2
DA:588,2
DA:589,2
DA:590,2
DA:591,2
DA:592,2
DA:593,2
DA:596,2
DA:597,2
DA:602,2
DA:603,2
DA:604,2
DA:609,1
DA:610,1
DA:611,1
DA:630,4
DA:631,4
DA:632,0
DA:633,0
DA:634,0
DA:635,4
DA:637,4
DA:638,0
DA:639,0
DA:640,0
DA:641,0
DA:642,0
DA:643,0
DA:644,0
DA:645,4
DA:648,4
DA:649,1
DA:650,2
DA:651,1
DA:656,4
DA:657,4
DA:658,4
DA:660,4
DA:661,2
DA:663,2
DA:666,4
DA:667,0
DA:669,4
DA:673,4
DA:676,4
DA:677,1
DA:678,1
DA:679,1
DA:680,1
DA:681,1
DA:682,1
DA:683,1
DA:685,1
DA:686,0
DA:687,0
DA:689,3
DA:690,0
DA:691,0
DA:692,0
DA:693,0
DA:696,4
DA:697,4
DA:698,4
DA:699,4
DA:700,4
DA:705,0
DA:706,0
DA:707,0
DA:714,1
DA:715,1
DA:716,1
DA:717,0
DA:718,0
DA:720,1
DA:729,32
DA:730,59
DA:731,32
DA:732,502
DA:733,32
DA:734,32
DA:735,32
DA:738,46
DA:739,46
DA:740,46
DA:743,1
DA:744,1
DA:745,1
DA:746,1
DA:747,1
DA:748,1
DA:749,1
DA:750,1
DA:753,1
DA:754,1
DA:756,1
DA:757,1
DA:758,1
DA:759,1
DA:760,1
DA:763,1
DA:765,1
DA:766,1
DA:767,1
DA:769,1
DA:770,1
DA:772,1
DA:773,1
DA:774,1
DA:775,1
DA:778,1
DA:779,1
DA:782,1
DA:783,1
DA:784,1
DA:785,1
DA:786,1
DA:787,1
DA:788,1
DA:791,1
DA:793,1
DA:794,1
DA:795,1
DA:796,1
DA:798,1
DA:799,1
DA:801,1
DA:804,1
DA:805,1
DA:806,1
DA:807,1
DA:808,1
DA:811,1
DA:812,1
DA:813,1
DA:814,1
DA:816,1
DA:817,1
DA:820,1
DA:821,1
DA:824,1
DA:826,1
DA:828,1
DA:829,1
DA:830,1
DA:831,1
DA:834,1
DA:835,1
DA:836,1
DA:837,1
DA:838,1
DA:839,1
DA:841,1
DA:842,1
DA:843,1
DA:846,1
DA:848,1
DA:849,1
DA:850,1
DA:851,1
DA:854,1
DA:855,1
DA:856,1
DA:858,1
DA:859,1
DA:861,1
DA:862,1
DA:863,1
DA:864,1
DA:867,1
DA:870,1
DA:872,1
DA:873,1
DA:874,1
DA:876,1
DA:877,1
DA:879,1
DA:880,1
DA:883,1
DA:884,1
DA:885,1
DA:886,1
DA:889,1
DA:890,1
DA:891,1
DA:892,1
DA:895,1
DA:897,1
DA:898,1
DA:899,1
DA:900,1
DA:901,1
DA:903,1
DA:904,1
DA:905,1
DA:907,1
DA:910,1
DA:911,1
DA:912,1
DA:915,1
DA:916,1
DA:917,1
DA:920,1
DA:921,1
DA:922,1
DA:923,1
DA:926,1
DA:927,1
DA:928,1
DA:929,1
DA:931,1
DA:932,1
DA:934,1
DA:936,1
DA:937,1
DA:938,1
DA:939,1
DA:940,1
DA:943,1
DA:944,1
DA:945,1
DA:946,1
DA:948,1
DA:949,1
DA:951,1
DA:953,1
DA:954,1
DA:955,1
DA:956,1
DA:957,1
DA:960,1
DA:962,1
DA:963,1
DA:964,1
DA:965,1
DA:966,1
DA:968,1
DA:969,1
DA:970,1
DA:972,1
DA:973,1
DA:976,1
DA:977,1
DA:980,1
DA:981,1
DA:982,1
DA:985,1
DA:989,1
DA:990,1
DA:993,1
DA:994,1
DA:996,1
DA:997,1
DA:1000,1
DA:1001,1
DA:1002,1
DA:1003,1
DA:1004,1
DA:1005,1
DA:1006,1
DA:1007,1
DA:1010,1
DA:1014,1
DA:1015,1
DA:1018,1
DA:1019,1
DA:1021,1
DA:1022,1
DA:1025,1
DA:1026,1
DA:1027,1
DA:1028,1
DA:1029,1
DA:1030,1
DA:1033,1
DA:1037,1
DA:1038,1
DA:1041,1
DA:1042,1
DA:1044,1
DA:1045,1
DA:1049,1
DA:1050,1
DA:1051,1
DA:1052,1
DA:1053,1
DA:1054,1
DA:1057,1
DA:1058,1
DA:1059,1
DA:1060,1
DA:1062,1
DA:1063,1
DA:1065,1
DA:1068,1
DA:1069,1
DA:1072,1
DA:1073,1
DA:1074,1
BRF:0
BRH:0
LF:618
LH:464
end_of_record
SF:/Users/ken/git_for_collab4/tensor4all-rs/crates/tensor4all-simplett/src/tensortrain.rs
FN:60,_RNCNvMNtCsbLbRjVM637I_19tensor4all_simplett11tensortrainINtB4_11TensorTraindE5zeros0CslD6BJj2Z6b5_15tensor4all_capi
FN:27,_RNvMNtCsbLbRjVM637I_19tensor4all_simplett11tensortrainINtB2_11TensorTraindE3newCslD6BJj2Z6b5_15tensor4all_capi
FN:59,_RNvMNtCsbLbRjVM637I_19tensor4all_simplett11tensortrainINtB2_11TensorTraindE5zerosCslD6BJj2Z6b5_15tensor4all_capi
FN:65,_RNvMNtCsbLbRjVM637I_19tensor4all_simplett11tensortrainINtB2_11TensorTraindE8constantCslD6BJj2Z6b5_15tensor4all_capi
FN:217,_RNvXs0_NtCsbLbRjVM637I_19tensor4all_simplett11tensortrainINtB5_11TensorTraindEINtNtB7_6traits19AbstractTensorTraindE11site_tensorCslD6BJj2Z6b5_15tensor4all_capi
FN:213,_RNvXs0_NtCsbLbRjVM637I_19tensor4all_simplett11tensortrainINtB5_11TensorTraindEINtNtB7_6traits19AbstractTensorTraindE3lenCslD6BJj2Z6b5_15tensor4all_capi
FNDA:0,_RNCNvMNtCsbLbRjVM637I_19tensor4all_simplett11tensortrainINtB4_11TensorTraindE5zeros0CslD6BJj2Z6b5_15tensor4all_capi
FNDA:1,_RNvMNtCsbLbRjVM637I_19tensor4all_simplett11tensortrainINtB2_11TensorTraindE3newCslD6BJj2Z6b5_15tensor4all_capi
FNDA:0,_RNvMNtCsbLbRjVM637I_19tensor4all_simplett11tensortrainINtB2_11TensorTraindE5zerosCslD6BJj2Z6b5_15tensor4all_capi
FNDA:2,_RNvMNtCsbLbRjVM637I_19tensor4all_simplett11tensortrainINtB2_11TensorTraindE8constantCslD6BJj2Z6b5_15tensor4all_capi
FNDA:7,_RNvXs0_NtCsbLbRjVM637I_19tensor4all_simplett11tensortrainINtB5_11TensorTraindEINtNtB7_6traits19AbstractTensorTraindE11site_tensorCslD6BJj2Z6b5_15tensor4all_capi
FNDA:7,_RNvXs0_NtCsbLbRjVM637I_19tensor4all_simplett11tensortrainINtB5_11TensorTraindEINtNtB7_6traits19AbstractTensorTraindE3lenCslD6BJj2Z6b5_15tensor4all_capi
FNF:6
FNH:4
DA:27,1
DA:29,1
DA:30,1
DA:31,0
DA:32,1
DA:36,1
DA:37,0
DA:38,0
DA:39,0
DA:40,1
DA:43,1
DA:44,0
DA:45,0
DA:46,0
DA:47,1
DA:49,1
DA:50,1
DA:59,0
DA:60,0
DA:61,0
DA:62,0
DA:65,2
DA:66,2
DA:67,0
DA:68,0
DA:69,0
DA:70,2
DA:72,2
DA:73,2
DA:76,2
DA:77,4
DA:78,4
DA:79,4
DA:80,2
DA:83,2
DA:84,1
DA:85,3
DA:86,3
DA:87,3
DA:88,1
DA:92,2
DA:93,2
DA:94,7
DA:95,7
DA:96,7
DA:97,2
DA:100,0
DA:101,0
DA:102,0
DA:103,0
DA:106,2
DA:107,2
DA:213,7
DA:214,7
DA:215,7
DA:217,7
DA:218,7
DA:219,7
BRF:0
BRH:0
LF:59
LH:40
end_of_record
SF:/Users/ken/git_for_collab4/tensor4all-rs/crates/tensor4all-simplett/src/traits.rs
FN:115,_RNCNvYINtNtCsbLbRjVM637I_19tensor4all_simplett11tensortrain11TensorTraindEINtNtB9_6traits19AbstractTensorTraindE9link_dims0CslD6BJj2Z6b5_15tensor4all_capi
FN:127,_RNCNvYINtNtCsbLbRjVM637I_19tensor4all_simplett11tensortrain11TensorTraindEINtNtB9_6traits19AbstractTensorTraindE9site_dims0CslD6BJj2Z6b5_15tensor4all_capi
FN:217,_RNvYINtNtCsbLbRjVM637I_19tensor4all_simplett11tensortrain11TensorTraindEINtNtB7_6traits19AbstractTensorTraindE3sumCslD6BJj2Z6b5_15tensor4all_capi
FN:321,_RNvYINtNtCsbLbRjVM637I_19tensor4all_simplett11tensortrain11TensorTraindEINtNtB7_6traits19AbstractTensorTraindE4normCslD6BJj2Z6b5_15tensor4all_capi
FN:137,_RNvYINtNtCsbLbRjVM637I_19tensor4all_simplett11tensortrain11TensorTraindEINtNtB7_6traits19AbstractTensorTraindE4rankCslD6BJj2Z6b5_15tensor4all_capi
FN:264,_RNvYINtNtCsbLbRjVM637I_19tensor4all_simplett11tensortrain11TensorTraindEINtNtB7_6traits19AbstractTensorTraindE5norm2CslD6BJj2Z6b5_15tensor4all_capi
FN:147,_RNvYINtNtCsbLbRjVM637I_19tensor4all_simplett11tensortrain11TensorTraindEINtNtB7_6traits19AbstractTensorTraindE8evaluateCslD6BJj2Z6b5_15tensor4all_capi
FN:98,_RNvYINtNtCsbLbRjVM637I_19tensor4all_simplett11tensortrain11TensorTraindEINtNtB7_6traits19AbstractTensorTraindE8is_emptyCslD6BJj2Z6b5_15tensor4all_capi
FN:110,_RNvYINtNtCsbLbRjVM637I_19tensor4all_simplett11tensortrain11TensorTraindEINtNtB7_6traits19AbstractTensorTraindE9link_dimsCslD6BJj2Z6b5_15tensor4all_capi
FN:125,_RNvYINtNtCsbLbRjVM637I_19tensor4all_simplett11tensortrain11TensorTraindEINtNtB7_6traits19AbstractTensorTraindE9site_dimsCslD6BJj2Z6b5_15tensor4all_capi
FN:34,_RNvXNtCsbLbRjVM637I_19tensor4all_simplett6traitsdNtB2_8TTScalar4conj
FN:38,_RNvXNtCsbLbRjVM637I_19tensor4all_simplett6traitsdNtB2_8TTScalar6abs_sq
FN:42,_RNvXNtCsbLbRjVM637I_19tensor4all_simplett6traitsdNtB2_8TTScalar8from_f64
FN:48,_RNvXs_NtCsbLbRjVM637I_19tensor4all_simplett6traitsfNtB4_8TTScalar4conj
FN:52,_RNvXs_NtCsbLbRjVM637I_19tensor4all_simplett6traitsfNtB4_8TTScalar6abs_sq
FN:56,_RNvXs_NtCsbLbRjVM637I_19tensor4all_simplett6traitsfNtB4_8TTScalar8from_f64
FNDA:0,_RNCNvYINtNtCsbLbRjVM637I_19tensor4all_simplett11tensortrain11TensorTraindEINtNtB9_6traits19AbstractTensorTraindE9link_dims0CslD6BJj2Z6b5_15tensor4all_capi
FNDA:0,_RNCNvYINtNtCsbLbRjVM637I_19tensor4all_simplett11tensortrain11TensorTraindEINtNtB9_6traits19AbstractTensorTraindE9site_dims0CslD6BJj2Z6b5_15tensor4all_capi
FNDA:2,_RNvYINtNtCsbLbRjVM637I_19tensor4all_simplett11tensortrain11TensorTraindEINtNtB7_6traits19AbstractTensorTraindE3sumCslD6BJj2Z6b5_15tensor4all_capi
FNDA:0,_RNvYINtNtCsbLbRjVM637I_19tensor4all_simplett11tensortrain11TensorTraindEINtNtB7_6traits19AbstractTensorTraindE4normCslD6BJj2Z6b5_15tensor4all_capi
FNDA:0,_RNvYINtNtCsbLbRjVM637I_19tensor4all_simplett11tensortrain11TensorTraindEINtNtB7_6traits19AbstractTensorTraindE4rankCslD6BJj2Z6b5_15tensor4all_capi
FNDA:0,_RNvYINtNtCsbLbRjVM637I_19tensor4all_simplett11tensortrain11TensorTraindEINtNtB7_6traits19AbstractTensorTraindE5norm2CslD6BJj2Z6b5_15tensor4all_capi
FNDA:1,_RNvYINtNtCsbLbRjVM637I_19tensor4all_simplett11tensortrain11TensorTraindEINtNtB7_6traits19AbstractTensorTraindE8evaluateCslD6BJj2Z6b5_15tensor4all_capi
FNDA:3,_RNvYINtNtCsbLbRjVM637I_19tensor4all_simplett11tensortrain11TensorTraindEINtNtB7_6traits19AbstractTensorTraindE8is_emptyCslD6BJj2Z6b5_15tensor4all_capi
FNDA:0,_RNvYINtNtCsbLbRjVM637I_19tensor4all_simplett11tensortrain11TensorTraindEINtNtB7_6traits19AbstractTensorTraindE9link_dimsCslD6BJj2Z6b5_15tensor4all_capi
FNDA:0,_RNvYINtNtCsbLbRjVM637I_19tensor4all_simplett11tensortrain11TensorTraindEINtNtB7_6traits19AbstractTensorTraindE9site_dimsCslD6BJj2Z6b5_15tensor4all_capi
FNDA:0,_RNvXNtCsbLbRjVM637I_19tensor4all_simplett6traitsdNtB2_8TTScalar4conj
FNDA:0,_RNvXNtCsbLbRjVM637I_19tensor4all_simplett6traitsdNtB2_8TTScalar6abs_sq
FNDA:0,_RNvXNtCsbLbRjVM637I_19tensor4all_simplett6traitsdNtB2_8TTScalar8from_f64
FNDA:0,_RNvXs_NtCsbLbRjVM637I_19tensor4all_simplett6traitsfNtB4_8TTScalar4conj
FNDA:0,_RNvXs_NtCsbLbRjVM637I_19tensor4all_simplett6traitsfNtB4_8TTScalar6abs_sq
FNDA:0,_RNvXs_NtCsbLbRjVM637I_19tensor4all_simplett6traitsfNtB4_8TTScalar8from_f64
FNF:16
FNH:3
DA:34,0
DA:35,0
DA:36,0
DA:38,0
DA:39,0
DA:40,0
DA:42,0
DA:43,0
DA:44,0
DA:48,0
DA:49,0
DA:50,0
DA:52,0
DA:53,0
DA:54,0
DA:56,0
DA:57,0
DA:58,0
DA:98,3
DA:99,3
DA:100,3
DA:110,0
DA:111,0
DA:112,0
DA:113,0
DA:114,0
DA:115,0
DA:116,0
DA:117,0
DA:125,0
DA:126,0
DA:127,0
DA:128,0
DA:129,0
DA:137,0
DA:138,0
DA:139,0
DA:140,0
DA:142,0
DA:144,0
DA:147,1
DA:150,1
DA:151,0
DA:152,0
DA:153,0
DA:154,0
DA:155,1
DA:157,1
DA:158,0
DA:159,1
DA:162,1
DA:163,1
DA:164,1
DA:165,0
DA:166,0
DA:167,0
DA:168,0
DA:169,0
DA:170,1
DA:173,1
DA:176,1
DA:177,1
DA:178,1
DA:179,0
DA:180,0
DA:181,0
DA:182,0
DA:183,0
DA:184,1
DA:186,1
DA:187,1
DA:188,1
DA:191,1
DA:192,1
DA:193,1
DA:194,1
DA:195,1
DA:196,1
DA:197,1
DA:199,1
DA:203,1
DA:204,0
DA:205,0
DA:206,0
DA:207,0
DA:208,0
DA:209,0
DA:210,1
DA:212,1
DA:213,1
DA:217,2
DA:218,2
DA:219,0
DA:220,2
DA:223,2
DA:224,2
DA:225,5
DA:226,5
DA:227,5
DA:228,5
DA:232,3
DA:233,3
DA:234,3
DA:235,3
DA:238,3
DA:239,3
DA:240,11
DA:241,11
DA:242,11
DA:243,11
DA:244,11
DA:249,3
DA:250,3
DA:251,3
DA:252,3
DA:253,3
DA:254,3
DA:255,3
DA:257,3
DA:260,2
DA:261,2
DA:264,0
DA:265,0
DA:266,0
DA:267,0
DA:271,0
DA:272,0
DA:275,0
DA:276,0
DA:277,0
DA:278,0
DA:279,0
DA:280,0
DA:281,0
DA:282,0
DA:287,0
DA:288,0
DA:289,0
DA:290,0
DA:294,0
DA:296,0
DA:297,0
DA:298,0
DA:299,0
DA:300,0
DA:301,0
DA:302,0
DA:303,0
DA:304,0
DA:305,0
DA:306,0
DA:307,0
DA:313,0
DA:317,0
DA:318,0
DA:321,0
DA:322,0
DA:323,0
BRF:0
BRH:0
LF:160
LH:62
end_of_record
SF:/Users/ken/git_for_collab4/tensor4all-rs/crates/tensor4all-simplett/src/types.rs
FN:118,_RINvNtCsbLbRjVM637I_19tensor4all_simplett5types13tensor3_zerosdECslD6BJj2Z6b5_15tensor4all_capi
FN:70,_RNvXNtCsbLbRjVM637I_19tensor4all_simplett5typesINtNtCs13SXilukNVV_7mdarray6tensor6TensordTjjjEEINtB2_10Tensor3OpsdE10slice_siteCslD6BJj2Z6b5_15tensor4all_capi
FN:58,_RNvXNtCsbLbRjVM637I_19tensor4all_simplett5typesINtNtCs13SXilukNVV_7mdarray6tensor6TensordTjjjEEINtB2_10Tensor3OpsdE4get3CslD6BJj2Z6b5_15tensor4all_capi
FN:66,_RNvXNtCsbLbRjVM637I_19tensor4all_simplett5typesINtNtCs13SXilukNVV_7mdarray6tensor6TensordTjjjEEINtB2_10Tensor3OpsdE4set3CslD6BJj2Z6b5_15tensor4all_capi
FN:46,_RNvXNtCsbLbRjVM637I_19tensor4all_simplett5typesINtNtCs13SXilukNVV_7mdarray6tensor6TensordTjjjEEINtB2_10Tensor3OpsdE8left_dimCslD6BJj2Z6b5_15tensor4all_capi
FN:50,_RNvXNtCsbLbRjVM637I_19tensor4all_simplett5typesINtNtCs13SXilukNVV_7mdarray6tensor6TensordTjjjEEINtB2_10Tensor3OpsdE8site_dimCslD6BJj2Z6b5_15tensor4all_capi
FN:54,_RNvXNtCsbLbRjVM637I_19tensor4all_simplett5typesINtNtCs13SXilukNVV_7mdarray6tensor6TensordTjjjEEINtB2_10Tensor3OpsdE9right_dimCslD6BJj2Z6b5_15tensor4all_capi
FNDA:14,_RINvNtCsbLbRjVM637I_19tensor4all_simplett5types13tensor3_zerosdECslD6BJj2Z6b5_15tensor4all_capi
FNDA:2,_RNvXNtCsbLbRjVM637I_19tensor4all_simplett5typesINtNtCs13SXilukNVV_7mdarray6tensor6TensordTjjjEEINtB2_10Tensor3OpsdE10slice_siteCslD6BJj2Z6b5_15tensor4all_capi
FNDA:16,_RNvXNtCsbLbRjVM637I_19tensor4all_simplett5typesINtNtCs13SXilukNVV_7mdarray6tensor6TensordTjjjEEINtB2_10Tensor3OpsdE4get3CslD6BJj2Z6b5_15tensor4all_capi
FNDA:21,_RNvXNtCsbLbRjVM637I_19tensor4all_simplett5typesINtNtCs13SXilukNVV_7mdarray6tensor6TensordTjjjEEINtB2_10Tensor3OpsdE4set3CslD6BJj2Z6b5_15tensor4all_capi
FNDA:8,_RNvXNtCsbLbRjVM637I_19tensor4all_simplett5typesINtNtCs13SXilukNVV_7mdarray6tensor6TensordTjjjEEINtB2_10Tensor3OpsdE8left_dimCslD6BJj2Z6b5_15tensor4all_capi
FNDA:7,_RNvXNtCsbLbRjVM637I_19tensor4all_simplett5typesINtNtCs13SXilukNVV_7mdarray6tensor6TensordTjjjEEINtB2_10Tensor3OpsdE8site_dimCslD6BJj2Z6b5_15tensor4all_capi
FNDA:15,_RNvXNtCsbLbRjVM637I_19tensor4all_simplett5typesINtNtCs13SXilukNVV_7mdarray6tensor6TensordTjjjEEINtB2_10Tensor3OpsdE9right_dimCslD6BJj2Z6b5_15tensor4all_capi
FNF:7
FNH:7
DA:46,8
DA:47,8
DA:48,8
DA:50,7
DA:51,7
DA:52,7
DA:54,15
DA:55,15
DA:56,15
DA:58,16
DA:59,16
DA:60,16
DA:66,21
DA:67,21
DA:68,21
DA:70,2
DA:71,2
DA:72,2
DA:73,2
DA:74,2
DA:75,2
DA:76,2
DA:77,2
DA:79,2
DA:80,2
DA:118,14
DA:119,14
DA:120,14
DA:121,14
DA:122,14
DA:123,14
DA:124,14
BRF:0
BRH:0
LF:32
LH:32
end_of_record
SF:/Users/ken/git_for_collab4/tensor4all-rs/crates/tensor4all-tensorbackend/src/any_scalar.rs
FN:206,_RNvXs8_NtCs75BZxj724SK_24tensor4all_tensorbackend10any_scalarINtCsggbFOsTKhzv_11num_complex7ComplexdEINtNtCskzPJi2J8k3N_4core7convert4FromNtB5_9AnyScalarE4from
FN:56,_RNvMs_NtCs75BZxj724SK_24tensor4all_tensorbackend10any_scalarNtB4_9AnyScalar10is_complex
FN:51,_RNvMs_NtCs75BZxj724SK_24tensor4all_tensorbackend10any_scalarNtB4_9AnyScalar11new_complex
FN:69,_RNvMs_NtCs75BZxj724SK_24tensor4all_tensorbackend10any_scalarNtB4_9AnyScalar3abs
FN:95,_RNvMs_NtCs75BZxj724SK_24tensor4all_tensorbackend10any_scalarNtB4_9AnyScalar4powf
FN:109,_RNvMs_NtCs75BZxj724SK_24tensor4all_tensorbackend10any_scalarNtB4_9AnyScalar4powi
FN:61,_RNvMs_NtCs75BZxj724SK_24tensor4all_tensorbackend10any_scalarNtB4_9AnyScalar4real
FN:79,_RNvMs_NtCs75BZxj724SK_24tensor4all_tensorbackend10any_scalarNtB4_9AnyScalar4sqrt
FN:40,_RNvMs_NtCs75BZxj724SK_24tensor4all_tensorbackend10any_scalarNtB4_9AnyScalar8new_real
FN:20,_RNvXNtCs75BZxj724SK_24tensor4all_tensorbackend10any_scalarNtB2_9AnyScalarNtNtB4_7storage14SumFromStorage16sum_from_storage
FN:121,_RNvXs0_NtCs75BZxj724SK_24tensor4all_tensorbackend10any_scalarNtB5_9AnyScalarNtNtNtCskzPJi2J8k3N_4core3ops5arith3Add3add
FN:134,_RNvXs1_NtCs75BZxj724SK_24tensor4all_tensorbackend10any_scalarNtB5_9AnyScalarNtNtNtCskzPJi2J8k3N_4core3ops5arith3Sub3sub
FN:147,_RNvXs2_NtCs75BZxj724SK_24tensor4all_tensorbackend10any_scalarNtB5_9AnyScalarNtNtNtCskzPJi2J8k3N_4core3ops5arith3Mul3mul
FN:160,_RNvXs3_NtCs75BZxj724SK_24tensor4all_tensorbackend10any_scalarNtB5_9AnyScalarNtNtNtCskzPJi2J8k3N_4core3ops5arith3Div3div
FN:173,_RNvXs4_NtCs75BZxj724SK_24tensor4all_tensorbackend10any_scalarNtB5_9AnyScalarNtNtNtCskzPJi2J8k3N_4core3ops5arith3Neg3neg
FN:183,_RNvXs5_NtCs75BZxj724SK_24tensor4all_tensorbackend10any_scalarNtB5_9AnyScalarINtNtCskzPJi2J8k3N_4core7convert4FromdE4from
FN:189,_RNvXs6_NtCs75BZxj724SK_24tensor4all_tensorbackend10any_scalarNtB5_9AnyScalarINtNtCskzPJi2J8k3N_4core7convert4FromINtCsggbFOsTKhzv_11num_complex7ComplexdEE4from
FN:197,_RNvXs7_NtCs75BZxj724SK_24tensor4all_tensorbackend10any_scalardINtNtCskzPJi2J8k3N_4core7convert7TryFromNtB5_9AnyScalarE8try_from
FN:216,_RNvXs9_NtCs75BZxj724SK_24tensor4all_tensorbackend10any_scalarNtB5_9AnyScalarNtNtCskzPJi2J8k3N_4core7default7Default7default
FN:222,_RNvXsa_NtCs75BZxj724SK_24tensor4all_tensorbackend10any_scalarNtB5_9AnyScalarNtNtCseFABiuQbRAY_10num_traits10identities4Zero4zero
FN:226,_RNvXsa_NtCs75BZxj724SK_24tensor4all_tensorbackend10any_scalarNtB5_9AnyScalarNtNtCseFABiuQbRAY_10num_traits10identities4Zero7is_zero
FN:235,_RNvXsb_NtCs75BZxj724SK_24tensor4all_tensorbackend10any_scalarNtB5_9AnyScalarNtNtCseFABiuQbRAY_10num_traits10identities3One3one
FN:241,_RNvXsc_NtCs75BZxj724SK_24tensor4all_tensorbackend10any_scalarNtB5_9AnyScalarNtNtCskzPJi2J8k3N_4core3cmp10PartialOrd11partial_cmp
FN:250,_RNvXsd_NtCs75BZxj724SK_24tensor4all_tensorbackend10any_scalarNtB5_9AnyScalarNtNtCskzPJi2J8k3N_4core3fmt7Display3fmt
FNDA:0,_RNvXs8_NtCs75BZxj724SK_24tensor4all_tensorbackend10any_scalarINtCsggbFOsTKhzv_11num_complex7ComplexdEINtNtCskzPJi2J8k3N_4core7convert4FromNtB5_9AnyScalarE4from
FNDA:0,_RNvMs_NtCs75BZxj724SK_24tensor4all_tensorbackend10any_scalarNtB4_9AnyScalar10is_complex
FNDA:0,_RNvMs_NtCs75BZxj724SK_24tensor4all_tensorbackend10any_scalarNtB4_9AnyScalar11new_complex
FNDA:0,_RNvMs_NtCs75BZxj724SK_24tensor4all_tensorbackend10any_scalarNtB4_9AnyScalar3abs
FNDA:0,_RNvMs_NtCs75BZxj724SK_24tensor4all_tensorbackend10any_scalarNtB4_9AnyScalar4powf
FNDA:0,_RNvMs_NtCs75BZxj724SK_24tensor4all_tensorbackend10any_scalarNtB4_9AnyScalar4powi
FNDA:2,_RNvMs_NtCs75BZxj724SK_24tensor4all_tensorbackend10any_scalarNtB4_9AnyScalar4real
FNDA:0,_RNvMs_NtCs75BZxj724SK_24tensor4all_tensorbackend10any_scalarNtB4_9AnyScalar4sqrt
FNDA:0,_RNvMs_NtCs75BZxj724SK_24tensor4all_tensorbackend10any_scalarNtB4_9AnyScalar8new_real
FNDA:2,_RNvXNtCs75BZxj724SK_24tensor4all_tensorbackend10any_scalarNtB2_9AnyScalarNtNtB4_7storage14SumFromStorage16sum_from_storage
FNDA:0,_RNvXs0_NtCs75BZxj724SK_24tensor4all_tensorbackend10any_scalarNtB5_9AnyScalarNtNtNtCskzPJi2J8k3N_4core3ops5arith3Add3add
FNDA:0,_RNvXs1_NtCs75BZxj724SK_24tensor4all_tensorbackend10any_scalarNtB5_9AnyScalarNtNtNtCskzPJi2J8k3N_4core3ops5arith3Sub3sub
FNDA:0,_RNvXs2_NtCs75BZxj724SK_24tensor4all_tensorbackend10any_scalarNtB5_9AnyScalarNtNtNtCskzPJi2J8k3N_4core3ops5arith3Mul3mul
FNDA:0,_RNvXs3_NtCs75BZxj724SK_24tensor4all_tensorbackend10any_scalarNtB5_9AnyScalarNtNtNtCskzPJi2J8k3N_4core3ops5arith3Div3div
FNDA:0,_RNvXs4_NtCs75BZxj724SK_24tensor4all_tensorbackend10any_scalarNtB5_9AnyScalarNtNtNtCskzPJi2J8k3N_4core3ops5arith3Neg3neg
FNDA:0,_RNvXs5_NtCs75BZxj724SK_24tensor4all_tensorbackend10any_scalarNtB5_9AnyScalarINtNtCskzPJi2J8k3N_4core7convert4FromdE4from
FNDA:0,_RNvXs6_NtCs75BZxj724SK_24tensor4all_tensorbackend10any_scalarNtB5_9AnyScalarINtNtCskzPJi2J8k3N_4core7convert4FromINtCsggbFOsTKhzv_11num_complex7ComplexdEE4from
FNDA:0,_RNvXs7_NtCs75BZxj724SK_24tensor4all_tensorbackend10any_scalardINtNtCskzPJi2J8k3N_4core7convert7TryFromNtB5_9AnyScalarE8try_from
FNDA:0,_RNvXs9_NtCs75BZxj724SK_24tensor4all_tensorbackend10any_scalarNtB5_9AnyScalarNtNtCskzPJi2J8k3N_4core7default7Default7default
FNDA:0,_RNvXsa_NtCs75BZxj724SK_24tensor4all_tensorbackend10any_scalarNtB5_9AnyScalarNtNtCseFABiuQbRAY_10num_traits10identities4Zero4zero
FNDA:0,_RNvXsa_NtCs75BZxj724SK_24tensor4all_tensorbackend10any_scalarNtB5_9AnyScalarNtNtCseFABiuQbRAY_10num_traits10identities4Zero7is_zero
FNDA:0,_RNvXsb_NtCs75BZxj724SK_24tensor4all_tensorbackend10any_scalarNtB5_9AnyScalarNtNtCseFABiuQbRAY_10num_traits10identities3One3one
FNDA:0,_RNvXsc_NtCs75BZxj724SK_24tensor4all_tensorbackend10any_scalarNtB5_9AnyScalarNtNtCskzPJi2J8k3N_4core3cmp10PartialOrd11partial_cmp
FNDA:0,_RNvXsd_NtCs75BZxj724SK_24tensor4all_tensorbackend10any_scalarNtB5_9AnyScalarNtNtCskzPJi2J8k3N_4core3fmt7Display3fmt
FNF:24
FNH:2
DA:20,2
DA:21,2
DA:23,2
DA:26,0
DA:29,2
DA:40,0
DA:41,0
DA:42,0
DA:51,0
DA:52,0
DA:53,0
DA:56,0
DA:57,0
DA:58,0
DA:61,2
DA:62,2
DA:63,2
DA:64,0
DA:66,2
DA:69,0
DA:70,0
DA:71,0
DA:72,0
DA:74,0
DA:79,0
DA:80,0
DA:81,0
DA:82,0
DA:83,0
DA:85,0
DA:88,0
DA:90,0
DA:95,0
DA:96,0
DA:97,0
DA:98,0
DA:99,0
DA:101,0
DA:104,0
DA:106,0
DA:109,0
DA:110,0
DA:111,0
DA:112,0
DA:114,0
DA:121,0
DA:122,0
DA:123,0
DA:124,0
DA:125,0
DA:126,0
DA:128,0
DA:134,0
DA:135,0
DA:136,0
DA:137,0
DA:138,0
DA:139,0
DA:141,0
DA:147,0
DA:148,0
DA:149,0
DA:150,0
DA:151,0
DA:152,0
DA:154,0
DA:160,0
DA:161,0
DA:162,0
DA:163,0
DA:164,0
DA:165,0
DA:167,0
DA:173,0
DA:174,0
DA:175,0
DA:176,0
DA:178,0
DA:183,0
DA:184,0
DA:185,0
DA:189,0
DA:190,0
DA:191,0
DA:197,0
DA:198,0
DA:199,0
DA:200,0
DA:202,0
DA:206,0
DA:207,0
DA:208,0
DA:209,0
DA:211,0
DA:216,0
DA:217,0
DA:218,0
DA:222,0
DA:223,0
DA:224,0
DA:226,0
DA:227,0
DA:228,0
DA:229,0
DA:231,0
DA:235,0
DA:236,0
DA:237,0
DA:241,0
DA:242,0
DA:243,0
DA:244,0
DA:246,0
DA:250,0
DA:251,0
DA:252,0
DA:253,0
DA:255,0
BRF:0
BRH:0
LF:118
LH:8
end_of_record
SF:/Users/ken/git_for_collab4/tensor4all-rs/crates/tensor4all-tensorbackend/src/backend.rs
FN:42,_RINvNtCs75BZxj724SK_24tensor4all_tensorbackend7backend17tensor_to_dtensorINtCsggbFOsTKhzv_11num_complex7ComplexdEECsbrO2ourfQV3_15tensor4all_core
FN:42,_RINvNtCs75BZxj724SK_24tensor4all_tensorbackend7backend17tensor_to_dtensordECsbrO2ourfQV3_15tensor4all_core
FN:46,_RNCINvNtCs75BZxj724SK_24tensor4all_tensorbackend7backend17tensor_to_dtensorINtCsggbFOsTKhzv_11num_complex7ComplexdEE0CsbrO2ourfQV3_15tensor4all_core
FN:46,_RNCINvNtCs75BZxj724SK_24tensor4all_tensorbackend7backend17tensor_to_dtensordE0CsbrO2ourfQV3_15tensor4all_core
FN:80,_RINvNtNtCs75BZxj724SK_24tensor4all_tensorbackend7backend9faer_impl10qr_backendINtCsggbFOsTKhzv_11num_complex7ComplexdEECsbrO2ourfQV3_15tensor4all_core
FN:80,_RINvNtNtCs75BZxj724SK_24tensor4all_tensorbackend7backend9faer_impl10qr_backenddECsbrO2ourfQV3_15tensor4all_core
FN:58,_RINvNtNtCs75BZxj724SK_24tensor4all_tensorbackend7backend9faer_impl11svd_backendINtCsggbFOsTKhzv_11num_complex7ComplexdEECsbrO2ourfQV3_15tensor4all_core
FN:58,_RINvNtNtCs75BZxj724SK_24tensor4all_tensorbackend7backend9faer_impl11svd_backenddECsbrO2ourfQV3_15tensor4all_core
FN:70,_RNCINvNtNtCs75BZxj724SK_24tensor4all_tensorbackend7backend9faer_impl11svd_backendINtCsggbFOsTKhzv_11num_complex7ComplexdEE0CsbrO2ourfQV3_15tensor4all_core
FN:70,_RNCINvNtNtCs75BZxj724SK_24tensor4all_tensorbackend7backend9faer_impl11svd_backenddE0CsbrO2ourfQV3_15tensor4all_core
FN:42,_RINvNtCs75BZxj724SK_24tensor4all_tensorbackend7backend17tensor_to_dtensorpEB4_
FN:80,_RINvNtNtCs75BZxj724SK_24tensor4all_tensorbackend7backend9faer_impl10qr_backendpEB6_
FN:58,_RINvNtNtCs75BZxj724SK_24tensor4all_tensorbackend7backend9faer_impl11svd_backendpEB6_
FN:46,_RNCINvNtCs75BZxj724SK_24tensor4all_tensorbackend7backend17tensor_to_dtensorpE0B6_
FN:70,_RNCINvNtNtCs75BZxj724SK_24tensor4all_tensorbackend7backend9faer_impl11svd_backendpE0B8_
FNDA:0,_RINvNtCs75BZxj724SK_24tensor4all_tensorbackend7backend17tensor_to_dtensorINtCsggbFOsTKhzv_11num_complex7ComplexdEECsbrO2ourfQV3_15tensor4all_core
FNDA:12,_RINvNtCs75BZxj724SK_24tensor4all_tensorbackend7backend17tensor_to_dtensordECsbrO2ourfQV3_15tensor4all_core
FNDA:0,_RNCINvNtCs75BZxj724SK_24tensor4all_tensorbackend7backend17tensor_to_dtensorINtCsggbFOsTKhzv_11num_complex7ComplexdEE0CsbrO2ourfQV3_15tensor4all_core
FNDA:464,_RNCINvNtCs75BZxj724SK_24tensor4all_tensorbackend7backend17tensor_to_dtensordE0CsbrO2ourfQV3_15tensor4all_core
FNDA:0,_RINvNtNtCs75BZxj724SK_24tensor4all_tensorbackend7backend9faer_impl10qr_backendINtCsggbFOsTKhzv_11num_complex7ComplexdEECsbrO2ourfQV3_15tensor4all_core
FNDA:10,_RINvNtNtCs75BZxj724SK_24tensor4all_tensorbackend7backend9faer_impl10qr_backenddECsbrO2ourfQV3_15tensor4all_core
FNDA:0,_RINvNtNtCs75BZxj724SK_24tensor4all_tensorbackend7backend9faer_impl11svd_backendINtCsggbFOsTKhzv_11num_complex7ComplexdEECsbrO2ourfQV3_15tensor4all_core
FNDA:4,_RINvNtNtCs75BZxj724SK_24tensor4all_tensorbackend7backend9faer_impl11svd_backenddECsbrO2ourfQV3_15tensor4all_core
FNDA:0,_RNCINvNtNtCs75BZxj724SK_24tensor4all_tensorbackend7backend9faer_impl11svd_backendINtCsggbFOsTKhzv_11num_complex7ComplexdEE0CsbrO2ourfQV3_15tensor4all_core
FNDA:0,_RNCINvNtNtCs75BZxj724SK_24tensor4all_tensorbackend7backend9faer_impl11svd_backenddE0CsbrO2ourfQV3_15tensor4all_core
FNDA:0,_RINvNtCs75BZxj724SK_24tensor4all_tensorbackend7backend17tensor_to_dtensorpEB4_
FNDA:0,_RINvNtNtCs75BZxj724SK_24tensor4all_tensorbackend7backend9faer_impl10qr_backendpEB6_
FNDA:0,_RINvNtNtCs75BZxj724SK_24tensor4all_tensorbackend7backend9faer_impl11svd_backendpEB6_
FNDA:0,_RNCINvNtCs75BZxj724SK_24tensor4all_tensorbackend7backend17tensor_to_dtensorpE0B6_
FNDA:0,_RNCINvNtNtCs75BZxj724SK_24tensor4all_tensorbackend7backend9faer_impl11svd_backendpE0B8_
FNF:5
FNH:4
DA:42,12
DA:44,12
DA:45,12
DA:46,464
DA:47,12
DA:58,4
DA:59,4
DA:60,4
DA:61,4
DA:62,4
DA:63,4
DA:64,4
DA:65,4
DA:67,4
DA:68,4
DA:69,4
DA:70,4
DA:72,4
DA:73,4
DA:74,4
DA:76,4
DA:77,4
DA:80,10
DA:81,10
DA:82,10
DA:83,10
DA:84,10
DA:85,10
DA:86,10
DA:87,10
DA:89,10
DA:90,10
DA:91,10
BRF:0
BRH:0
LF:35
LH:34
end_of_record
SF:/Users/ken/git_for_collab4/tensor4all-rs/crates/tensor4all-tensorbackend/src/storage.rs
FN:1638,_RINvNtCs75BZxj724SK_24tensor4all_tensorbackend7storage18storage_to_dtensorINtCsggbFOsTKhzv_11num_complex7ComplexdEECsbrO2ourfQV3_15tensor4all_core
FN:1638,_RINvNtCs75BZxj724SK_24tensor4all_tensorbackend7storage18storage_to_dtensordECsbrO2ourfQV3_15tensor4all_core
FN:88,_RNvMs1_NtCs75BZxj724SK_24tensor4all_tensorbackend7storageINtB5_12DenseStorageINtCsggbFOsTKhzv_11num_complex7ComplexdEE3getCsbrO2ourfQV3_15tensor4all_core
FN:88,_RNvMs1_NtCs75BZxj724SK_24tensor4all_tensorbackend7storageINtB5_12DenseStoragedE3getCsbrO2ourfQV3_15tensor4all_core
FN:1614,_RNvYdNtNtCs75BZxj724SK_24tensor4all_tensorbackend7storage13StorageScalar13extract_denseCsbrO2ourfQV3_15tensor4all_core
FN:1607,_RNvYdNtNtCs75BZxj724SK_24tensor4all_tensorbackend7storage13StorageScalar17extract_dense_cowCsbrO2ourfQV3_15tensor4all_core
FN:1614,_RNvYINtCsggbFOsTKhzv_11num_complex7ComplexdENtNtCs75BZxj724SK_24tensor4all_tensorbackend7storage13StorageScalar13extract_denseCsbrO2ourfQV3_15tensor4all_core
FN:1607,_RNvYINtCsggbFOsTKhzv_11num_complex7ComplexdENtNtCs75BZxj724SK_24tensor4all_tensorbackend7storage13StorageScalar17extract_dense_cowCsbrO2ourfQV3_15tensor4all_core
FN:730,_RNvXsc_NtCs75BZxj724SK_24tensor4all_tensorbackend7storageINtCsggbFOsTKhzv_11num_complex7ComplexdENtB5_19DenseStorageFactory9new_dense
FN:754,_RNvXse_NtCs75BZxj724SK_24tensor4all_tensorbackend7storageINtCsggbFOsTKhzv_11num_complex7ComplexdENtB5_14SumFromStorage16sum_from_storage
FN:1681,_RNvXsh_NtCs75BZxj724SK_24tensor4all_tensorbackend7storageINtCsggbFOsTKhzv_11num_complex7ComplexdENtB5_13StorageScalar13dense_storage
FN:1674,_RNvXsh_NtCs75BZxj724SK_24tensor4all_tensorbackend7storageINtCsggbFOsTKhzv_11num_complex7ComplexdENtB5_13StorageScalar18extract_dense_view
FN:100,_RINvMs3_NtCs75BZxj724SK_24tensor4all_tensorbackend7storageINtB6_12DenseStoragepE6extendpEB8_
FN:211,_RINvMs5_NtCs75BZxj724SK_24tensor4all_tensorbackend7storageINtB6_12DenseStoragedE6randompEB8_
FN:220,_RINvMs6_NtCs75BZxj724SK_24tensor4all_tensorbackend7storageINtB6_12DenseStorageINtCsggbFOsTKhzv_11num_complex7ComplexdEE6randompEB8_
FN:1638,_RINvNtCs75BZxj724SK_24tensor4all_tensorbackend7storage18storage_to_dtensorpEB4_
FN:212,_RNCINvMs5_NtCs75BZxj724SK_24tensor4all_tensorbackend7storageINtB8_12DenseStoragedE6randompE0Ba_
FN:222,_RNCINvMs6_NtCs75BZxj724SK_24tensor4all_tensorbackend7storageINtB8_12DenseStorageINtCsggbFOsTKhzv_11num_complex7ComplexdEE6randompE0Ba_
FN:54,_RNvMs0_NtCs75BZxj724SK_24tensor4all_tensorbackend7storageINtB5_12DenseStoragepE12as_mut_sliceB7_
FN:78,_RNvMs0_NtCs75BZxj724SK_24tensor4all_tensorbackend7storageINtB5_12DenseStoragepE4iterB7_
FN:74,_RNvMs0_NtCs75BZxj724SK_24tensor4all_tensorbackend7storageINtB5_12DenseStoragepE4pushB7_
FN:70,_RNvMs0_NtCs75BZxj724SK_24tensor4all_tensorbackend7storageINtB5_12DenseStoragepE8capacityB7_
FN:58,_RNvMs0_NtCs75BZxj724SK_24tensor4all_tensorbackend7storageINtB5_12DenseStoragepE8into_vecB7_
FN:66,_RNvMs0_NtCs75BZxj724SK_24tensor4all_tensorbackend7storageINtB5_12DenseStoragepE8is_emptyB7_
FN:84,_RNvMs1_NtCs75BZxj724SK_24tensor4all_tensorbackend7storageINtB5_12DenseStoragepE17extend_from_sliceB7_
FN:88,_RNvMs1_NtCs75BZxj724SK_24tensor4all_tensorbackend7storageINtB5_12DenseStoragepE3getB7_
FN:94,_RNvMs2_NtCs75BZxj724SK_24tensor4all_tensorbackend7storageINtB5_12DenseStoragepE3setB7_
FN:360,_RNvMs7_NtCs75BZxj724SK_24tensor4all_tensorbackend7storageINtB5_11DiagStoragepE12as_mut_sliceB7_
FN:364,_RNvMs7_NtCs75BZxj724SK_24tensor4all_tensorbackend7storageINtB5_11DiagStoragepE8into_vecB7_
FN:372,_RNvMs7_NtCs75BZxj724SK_24tensor4all_tensorbackend7storageINtB5_11DiagStoragepE8is_emptyB7_
FN:378,_RNvMs8_NtCs75BZxj724SK_24tensor4all_tensorbackend7storageINtB5_11DiagStoragepE3getB7_
FN:384,_RNvMs9_NtCs75BZxj724SK_24tensor4all_tensorbackend7storageINtB5_11DiagStoragepE3setB7_
FN:1614,_RNvYpNtNtCs75BZxj724SK_24tensor4all_tensorbackend7storage13StorageScalar13extract_denseB7_
FN:1607,_RNvYpNtNtCs75BZxj724SK_24tensor4all_tensorbackend7storage13StorageScalar17extract_dense_cowB7_
FN:784,_RNvMsf_NtCs75BZxj724SK_24tensor4all_tensorbackend7storageNtB5_7Storage12new_diag_c64
FN:779,_RNvMsf_NtCs75BZxj724SK_24tensor4all_tensorbackend7storageNtB5_7Storage12new_diag_f64
FN:774,_RNvMsf_NtCs75BZxj724SK_24tensor4all_tensorbackend7storageNtB5_7Storage13new_dense_c64
FN:769,_RNvMsf_NtCs75BZxj724SK_24tensor4all_tensorbackend7storageNtB5_7Storage13new_dense_f64
FN:840,_RNvMsf_NtCs75BZxj724SK_24tensor4all_tensorbackend7storageNtB5_7Storage15permute_storage
FN:822,_RNvMsf_NtCs75BZxj724SK_24tensor4all_tensorbackend7storageNtB5_7Storage16to_dense_storage
FN:873,_RNvMsf_NtCs75BZxj724SK_24tensor4all_tensorbackend7storageNtB5_7Storage17extract_imag_part
FN:852,_RNvMsf_NtCs75BZxj724SK_24tensor4all_tensorbackend7storageNtB5_7Storage17extract_real_part
FN:967,_RNvMsf_NtCs75BZxj724SK_24tensor4all_tensorbackend7storageNtB5_7Storage18combine_to_complex
FN:898,_RNvMsf_NtCs75BZxj724SK_24tensor4all_tensorbackend7storageNtB5_7Storage18to_complex_storage
FN:794,_RNvMsf_NtCs75BZxj724SK_24tensor4all_tensorbackend7storageNtB5_7Storage3len
FN:943,_RNvMsf_NtCs75BZxj724SK_24tensor4all_tensorbackend7storageNtB5_7Storage4conj
FN:1218,_RNvMsf_NtCs75BZxj724SK_24tensor4all_tensorbackend7storageNtB5_7Storage5axpby
FN:1155,_RNvMsf_NtCs75BZxj724SK_24tensor4all_tensorbackend7storageNtB5_7Storage5scale
FN:789,_RNvMsf_NtCs75BZxj724SK_24tensor4all_tensorbackend7storageNtB5_7Storage7is_diag
FN:814,_RNvMsf_NtCs75BZxj724SK_24tensor4all_tensorbackend7storageNtB5_7Storage7sum_c64
FN:809,_RNvMsf_NtCs75BZxj724SK_24tensor4all_tensorbackend7storageNtB5_7Storage7sum_f64
FN:1001,_RNvMsf_NtCs75BZxj724SK_24tensor4all_tensorbackend7storageNtB5_7Storage7try_add
FN:1078,_RNvMsf_NtCs75BZxj724SK_24tensor4all_tensorbackend7storageNtB5_7Storage7try_sub
FN:804,_RNvMsf_NtCs75BZxj724SK_24tensor4all_tensorbackend7storageNtB5_7Storage8is_empty
FN:633,_RNvNtCs75BZxj724SK_24tensor4all_tensorbackend7storage15compute_strides
FN:1352,_RNvNtCs75BZxj724SK_24tensor4all_tensorbackend7storage16contract_storage
FN:1321,_RNvNtCs75BZxj724SK_24tensor4all_tensorbackend7storage16make_mut_storage
FN:1565,_RNvNtCs75BZxj724SK_24tensor4all_tensorbackend7storage19promote_diag_to_c64
FN:1575,_RNvNtCs75BZxj724SK_24tensor4all_tensorbackend7storage20promote_dense_to_c64
FN:314,_RNvNtCs75BZxj724SK_24tensor4all_tensorbackend7storage31compute_contraction_permutation
FN:1327,_RNvNtCs75BZxj724SK_24tensor4all_tensorbackend7storage6mindim
FN:724,_RNvXsb_NtCs75BZxj724SK_24tensor4all_tensorbackend7storagedNtB5_19DenseStorageFactory9new_dense
FN:743,_RNvXsd_NtCs75BZxj724SK_24tensor4all_tensorbackend7storagedNtB5_14SumFromStorage16sum_from_storage
FN:1668,_RNvXsg_NtCs75BZxj724SK_24tensor4all_tensorbackend7storagedNtB5_13StorageScalar13dense_storage
FN:1661,_RNvXsg_NtCs75BZxj724SK_24tensor4all_tensorbackend7storagedNtB5_13StorageScalar18extract_dense_view
FN:1700,_RNvXsi_NtCs75BZxj724SK_24tensor4all_tensorbackend7storageRNtB5_7StorageNtNtNtCskzPJi2J8k3N_4core3ops5arith3Add3add
FN:1752,_RNvXsj_NtCs75BZxj724SK_24tensor4all_tensorbackend7storageRNtB5_7StorageINtNtNtCskzPJi2J8k3N_4core3ops5arith3MuldE3mul
FN:1786,_RNvXsk_NtCs75BZxj724SK_24tensor4all_tensorbackend7storageRNtB5_7StorageINtNtNtCskzPJi2J8k3N_4core3ops5arith3MulINtCsggbFOsTKhzv_11num_complex7ComplexdEE3mul
FN:1823,_RNvXsl_NtCs75BZxj724SK_24tensor4all_tensorbackend7storageRNtB5_7StorageINtNtNtCskzPJi2J8k3N_4core3ops5arith3MulNtNtB7_10any_scalar9AnyScalarE3mul
FN:430,_RINvMsa_NtCs75BZxj724SK_24tensor4all_tensorbackend7storageINtB6_11DiagStorageINtCsggbFOsTKhzv_11num_complex7ComplexdEE18contract_diag_diagNCNvB6_16contract_storages0_0NCB2e_s1_0EB8_
FN:467,_RINvMsa_NtCs75BZxj724SK_24tensor4all_tensorbackend7storageINtB6_11DiagStorageINtCsggbFOsTKhzv_11num_complex7ComplexdEE19contract_diag_denseNCNvB6_16contract_storages3_0EB8_
FN:467,_RINvMsa_NtCs75BZxj724SK_24tensor4all_tensorbackend7storageINtB6_11DiagStorageINtCsggbFOsTKhzv_11num_complex7ComplexdEE19contract_diag_denseNCNvB6_16contract_storages8_0EB8_
FN:467,_RINvMsa_NtCs75BZxj724SK_24tensor4all_tensorbackend7storageINtB6_11DiagStorageINtCsggbFOsTKhzv_11num_complex7ComplexdEE19contract_diag_denseNCNvB6_16contract_storagesb_0EB8_
FN:430,_RINvMsa_NtCs75BZxj724SK_24tensor4all_tensorbackend7storageINtB6_11DiagStoragedE18contract_diag_diagNCNvB6_16contract_storage0NCB1B_s_0EB8_
FN:467,_RINvMsa_NtCs75BZxj724SK_24tensor4all_tensorbackend7storageINtB6_11DiagStoragedE19contract_diag_denseNCNvB6_16contract_storages2_0EB8_
FN:246,_RINvNtCs75BZxj724SK_24tensor4all_tensorbackend7storage17contract_via_gemmINtCsggbFOsTKhzv_11num_complex7ComplexdEEB4_
FN:246,_RINvNtCs75BZxj724SK_24tensor4all_tensorbackend7storage17contract_via_gemmdEB4_
FN:650,_RINvNtCs75BZxj724SK_24tensor4all_tensorbackend7storage24contract_dense_diag_implINtCsggbFOsTKhzv_11num_complex7ComplexdENCNvB2_16contract_storages6_0NCB1W_s7_0EB4_
FN:650,_RINvNtCs75BZxj724SK_24tensor4all_tensorbackend7storage24contract_dense_diag_implINtCsggbFOsTKhzv_11num_complex7ComplexdENCNvB2_16contract_storages9_0NCB1W_sa_0EB4_
FN:650,_RINvNtCs75BZxj724SK_24tensor4all_tensorbackend7storage24contract_dense_diag_implINtCsggbFOsTKhzv_11num_complex7ComplexdENCNvB2_16contract_storagesc_0NCB1W_sd_0EB4_
FN:650,_RINvNtCs75BZxj724SK_24tensor4all_tensorbackend7storage24contract_dense_diag_impldNCNvB2_16contract_storages4_0NCB1j_s5_0EB4_
FN:508,_RINvNtCs75BZxj724SK_24tensor4all_tensorbackend7storage24contract_diag_dense_implINtCsggbFOsTKhzv_11num_complex7ComplexdENCNvB2_16contract_storages3_0EB4_
FN:508,_RINvNtCs75BZxj724SK_24tensor4all_tensorbackend7storage24contract_diag_dense_implINtCsggbFOsTKhzv_11num_complex7ComplexdENCNvB2_16contract_storages6_0EB4_
FN:508,_RINvNtCs75BZxj724SK_24tensor4all_tensorbackend7storage24contract_diag_dense_implINtCsggbFOsTKhzv_11num_complex7ComplexdENCNvB2_16contract_storages8_0EB4_
FN:508,_RINvNtCs75BZxj724SK_24tensor4all_tensorbackend7storage24contract_diag_dense_implINtCsggbFOsTKhzv_11num_complex7ComplexdENCNvB2_16contract_storages9_0EB4_
FN:508,_RINvNtCs75BZxj724SK_24tensor4all_tensorbackend7storage24contract_diag_dense_implINtCsggbFOsTKhzv_11num_complex7ComplexdENCNvB2_16contract_storagesb_0EB4_
FN:508,_RINvNtCs75BZxj724SK_24tensor4all_tensorbackend7storage24contract_diag_dense_implINtCsggbFOsTKhzv_11num_complex7ComplexdENCNvB2_16contract_storagesc_0EB4_
FN:508,_RINvNtCs75BZxj724SK_24tensor4all_tensorbackend7storage24contract_diag_dense_impldNCNvB2_16contract_storages2_0EB4_
FN:508,_RINvNtCs75BZxj724SK_24tensor4all_tensorbackend7storage24contract_diag_dense_impldNCNvB2_16contract_storages4_0EB4_
FN:445,_RNCINvMsa_NtCs75BZxj724SK_24tensor4all_tensorbackend7storageINtB8_11DiagStorageINtCsggbFOsTKhzv_11num_complex7ComplexdEE18contract_diag_diagNCNvB8_16contract_storages0_0NCB2g_s1_0E0Ba_
FN:449,_RNCINvMsa_NtCs75BZxj724SK_24tensor4all_tensorbackend7storageINtB8_11DiagStorageINtCsggbFOsTKhzv_11num_complex7ComplexdEE18contract_diag_diagNCNvB8_16contract_storages0_0NCB2g_s1_0Es_0Ba_
FN:445,_RNCINvMsa_NtCs75BZxj724SK_24tensor4all_tensorbackend7storageINtB8_11DiagStoragedE18contract_diag_diagNCNvB8_16contract_storage0NCB1D_s_0E0Ba_
FN:449,_RNCINvMsa_NtCs75BZxj724SK_24tensor4all_tensorbackend7storageINtB8_11DiagStoragedE18contract_diag_diagNCNvB8_16contract_storage0NCB1D_s_0Es_0Ba_
FN:668,_RNCINvNtCs75BZxj724SK_24tensor4all_tensorbackend7storage24contract_dense_diag_implINtCsggbFOsTKhzv_11num_complex7ComplexdENCNvB4_16contract_storages6_0NCB1Y_s7_0E0B6_
FN:672,_RNCINvNtCs75BZxj724SK_24tensor4all_tensorbackend7storage24contract_dense_diag_implINtCsggbFOsTKhzv_11num_complex7ComplexdENCNvB4_16contract_storages6_0NCB1Y_s7_0Es0_0B6_
FN:673,_RNCINvNtCs75BZxj724SK_24tensor4all_tensorbackend7storage24contract_dense_diag_implINtCsggbFOsTKhzv_11num_complex7ComplexdENCNvB4_16contract_storages6_0NCB1Y_s7_0Es1_0B6_
FN:669,_RNCINvNtCs75BZxj724SK_24tensor4all_tensorbackend7storage24contract_dense_diag_implINtCsggbFOsTKhzv_11num_complex7ComplexdENCNvB4_16contract_storages6_0NCB1Y_s7_0Es_0B6_
FN:668,_RNCINvNtCs75BZxj724SK_24tensor4all_tensorbackend7storage24contract_dense_diag_implINtCsggbFOsTKhzv_11num_complex7ComplexdENCNvB4_16contract_storages9_0NCB1Y_sa_0E0B6_
FN:672,_RNCINvNtCs75BZxj724SK_24tensor4all_tensorbackend7storage24contract_dense_diag_implINtCsggbFOsTKhzv_11num_complex7ComplexdENCNvB4_16contract_storages9_0NCB1Y_sa_0Es0_0B6_
FN:673,_RNCINvNtCs75BZxj724SK_24tensor4all_tensorbackend7storage24contract_dense_diag_implINtCsggbFOsTKhzv_11num_complex7ComplexdENCNvB4_16contract_storages9_0NCB1Y_sa_0Es1_0B6_
FN:669,_RNCINvNtCs75BZxj724SK_24tensor4all_tensorbackend7storage24contract_dense_diag_implINtCsggbFOsTKhzv_11num_complex7ComplexdENCNvB4_16contract_storages9_0NCB1Y_sa_0Es_0B6_
FN:668,_RNCINvNtCs75BZxj724SK_24tensor4all_tensorbackend7storage24contract_dense_diag_implINtCsggbFOsTKhzv_11num_complex7ComplexdENCNvB4_16contract_storagesc_0NCB1Y_sd_0E0B6_
FN:672,_RNCINvNtCs75BZxj724SK_24tensor4all_tensorbackend7storage24contract_dense_diag_implINtCsggbFOsTKhzv_11num_complex7ComplexdENCNvB4_16contract_storagesc_0NCB1Y_sd_0Es0_0B6_
FN:673,_RNCINvNtCs75BZxj724SK_24tensor4all_tensorbackend7storage24contract_dense_diag_implINtCsggbFOsTKhzv_11num_complex7ComplexdENCNvB4_16contract_storagesc_0NCB1Y_sd_0Es1_0B6_
FN:669,_RNCINvNtCs75BZxj724SK_24tensor4all_tensorbackend7storage24contract_dense_diag_implINtCsggbFOsTKhzv_11num_complex7ComplexdENCNvB4_16contract_storagesc_0NCB1Y_sd_0Es_0B6_
FN:668,_RNCINvNtCs75BZxj724SK_24tensor4all_tensorbackend7storage24contract_dense_diag_impldNCNvB4_16contract_storages4_0NCB1l_s5_0E0B6_
FN:672,_RNCINvNtCs75BZxj724SK_24tensor4all_tensorbackend7storage24contract_dense_diag_impldNCNvB4_16contract_storages4_0NCB1l_s5_0Es0_0B6_
FN:673,_RNCINvNtCs75BZxj724SK_24tensor4all_tensorbackend7storage24contract_dense_diag_impldNCNvB4_16contract_storages4_0NCB1l_s5_0Es1_0B6_
FN:669,_RNCINvNtCs75BZxj724SK_24tensor4all_tensorbackend7storage24contract_dense_diag_impldNCNvB4_16contract_storages4_0NCB1l_s5_0Es_0B6_
FN:531,_RNCINvNtCs75BZxj724SK_24tensor4all_tensorbackend7storage24contract_diag_dense_implINtCsggbFOsTKhzv_11num_complex7ComplexdENCNvB4_16contract_storages3_0E0B6_
FN:546,_RNCINvNtCs75BZxj724SK_24tensor4all_tensorbackend7storage24contract_diag_dense_implINtCsggbFOsTKhzv_11num_complex7ComplexdENCNvB4_16contract_storages3_0Es0_0B6_
FN:569,_RNCINvNtCs75BZxj724SK_24tensor4all_tensorbackend7storage24contract_diag_dense_implINtCsggbFOsTKhzv_11num_complex7ComplexdENCNvB4_16contract_storages3_0Es1_0B6_
FN:601,_RNCINvNtCs75BZxj724SK_24tensor4all_tensorbackend7storage24contract_diag_dense_implINtCsggbFOsTKhzv_11num_complex7ComplexdENCNvB4_16contract_storages3_0Es2_0B6_
FN:605,_RNCINvNtCs75BZxj724SK_24tensor4all_tensorbackend7storage24contract_diag_dense_implINtCsggbFOsTKhzv_11num_complex7ComplexdENCNvB4_16contract_storages3_0Es3_0B6_
FN:533,_RNCINvNtCs75BZxj724SK_24tensor4all_tensorbackend7storage24contract_diag_dense_implINtCsggbFOsTKhzv_11num_complex7ComplexdENCNvB4_16contract_storages3_0Es_0B6_
FN:531,_RNCINvNtCs75BZxj724SK_24tensor4all_tensorbackend7storage24contract_diag_dense_implINtCsggbFOsTKhzv_11num_complex7ComplexdENCNvB4_16contract_storages6_0E0B6_
FN:546,_RNCINvNtCs75BZxj724SK_24tensor4all_tensorbackend7storage24contract_diag_dense_implINtCsggbFOsTKhzv_11num_complex7ComplexdENCNvB4_16contract_storages6_0Es0_0B6_
FN:569,_RNCINvNtCs75BZxj724SK_24tensor4all_tensorbackend7storage24contract_diag_dense_implINtCsggbFOsTKhzv_11num_complex7ComplexdENCNvB4_16contract_storages6_0Es1_0B6_
FN:601,_RNCINvNtCs75BZxj724SK_24tensor4all_tensorbackend7storage24contract_diag_dense_implINtCsggbFOsTKhzv_11num_complex7ComplexdENCNvB4_16contract_storages6_0Es2_0B6_
FN:605,_RNCINvNtCs75BZxj724SK_24tensor4all_tensorbackend7storage24contract_diag_dense_implINtCsggbFOsTKhzv_11num_complex7ComplexdENCNvB4_16contract_storages6_0Es3_0B6_
FN:533,_RNCINvNtCs75BZxj724SK_24tensor4all_tensorbackend7storage24contract_diag_dense_implINtCsggbFOsTKhzv_11num_complex7ComplexdENCNvB4_16contract_storages6_0Es_0B6_
FN:531,_RNCINvNtCs75BZxj724SK_24tensor4all_tensorbackend7storage24contract_diag_dense_implINtCsggbFOsTKhzv_11num_complex7ComplexdENCNvB4_16contract_storages8_0E0B6_
FN:546,_RNCINvNtCs75BZxj724SK_24tensor4all_tensorbackend7storage24contract_diag_dense_implINtCsggbFOsTKhzv_11num_complex7ComplexdENCNvB4_16contract_storages8_0Es0_0B6_
FN:569,_RNCINvNtCs75BZxj724SK_24tensor4all_tensorbackend7storage24contract_diag_dense_implINtCsggbFOsTKhzv_11num_complex7ComplexdENCNvB4_16contract_storages8_0Es1_0B6_
FN:601,_RNCINvNtCs75BZxj724SK_24tensor4all_tensorbackend7storage24contract_diag_dense_implINtCsggbFOsTKhzv_11num_complex7ComplexdENCNvB4_16contract_storages8_0Es2_0B6_
FN:605,_RNCINvNtCs75BZxj724SK_24tensor4all_tensorbackend7storage24contract_diag_dense_implINtCsggbFOsTKhzv_11num_complex7ComplexdENCNvB4_16contract_storages8_0Es3_0B6_
FN:533,_RNCINvNtCs75BZxj724SK_24tensor4all_tensorbackend7storage24contract_diag_dense_implINtCsggbFOsTKhzv_11num_complex7ComplexdENCNvB4_16contract_storages8_0Es_0B6_
FN:531,_RNCINvNtCs75BZxj724SK_24tensor4all_tensorbackend7storage24contract_diag_dense_implINtCsggbFOsTKhzv_11num_complex7ComplexdENCNvB4_16contract_storages9_0E0B6_
FN:546,_RNCINvNtCs75BZxj724SK_24tensor4all_tensorbackend7storage24contract_diag_dense_implINtCsggbFOsTKhzv_11num_complex7ComplexdENCNvB4_16contract_storages9_0Es0_0B6_
FN:569,_RNCINvNtCs75BZxj724SK_24tensor4all_tensorbackend7storage24contract_diag_dense_implINtCsggbFOsTKhzv_11num_complex7ComplexdENCNvB4_16contract_storages9_0Es1_0B6_
FN:601,_RNCINvNtCs75BZxj724SK_24tensor4all_tensorbackend7storage24contract_diag_dense_implINtCsggbFOsTKhzv_11num_complex7ComplexdENCNvB4_16contract_storages9_0Es2_0B6_
FN:605,_RNCINvNtCs75BZxj724SK_24tensor4all_tensorbackend7storage24contract_diag_dense_implINtCsggbFOsTKhzv_11num_complex7ComplexdENCNvB4_16contract_storages9_0Es3_0B6_
FN:533,_RNCINvNtCs75BZxj724SK_24tensor4all_tensorbackend7storage24contract_diag_dense_implINtCsggbFOsTKhzv_11num_complex7ComplexdENCNvB4_16contract_storages9_0Es_0B6_
FN:531,_RNCINvNtCs75BZxj724SK_24tensor4all_tensorbackend7storage24contract_diag_dense_implINtCsggbFOsTKhzv_11num_complex7ComplexdENCNvB4_16contract_storagesb_0E0B6_
FN:546,_RNCINvNtCs75BZxj724SK_24tensor4all_tensorbackend7storage24contract_diag_dense_implINtCsggbFOsTKhzv_11num_complex7ComplexdENCNvB4_16contract_storagesb_0Es0_0B6_
FN:569,_RNCINvNtCs75BZxj724SK_24tensor4all_tensorbackend7storage24contract_diag_dense_implINtCsggbFOsTKhzv_11num_complex7ComplexdENCNvB4_16contract_storagesb_0Es1_0B6_
FN:601,_RNCINvNtCs75BZxj724SK_24tensor4all_tensorbackend7storage24contract_diag_dense_implINtCsggbFOsTKhzv_11num_complex7ComplexdENCNvB4_16contract_storagesb_0Es2_0B6_
FN:605,_RNCINvNtCs75BZxj724SK_24tensor4all_tensorbackend7storage24contract_diag_dense_implINtCsggbFOsTKhzv_11num_complex7ComplexdENCNvB4_16contract_storagesb_0Es3_0B6_
FN:533,_RNCINvNtCs75BZxj724SK_24tensor4all_tensorbackend7storage24contract_diag_dense_implINtCsggbFOsTKhzv_11num_complex7ComplexdENCNvB4_16contract_storagesb_0Es_0B6_
FN:531,_RNCINvNtCs75BZxj724SK_24tensor4all_tensorbackend7storage24contract_diag_dense_implINtCsggbFOsTKhzv_11num_complex7ComplexdENCNvB4_16contract_storagesc_0E0B6_
FN:546,_RNCINvNtCs75BZxj724SK_24tensor4all_tensorbackend7storage24contract_diag_dense_implINtCsggbFOsTKhzv_11num_complex7ComplexdENCNvB4_16contract_storagesc_0Es0_0B6_
FN:569,_RNCINvNtCs75BZxj724SK_24tensor4all_tensorbackend7storage24contract_diag_dense_implINtCsggbFOsTKhzv_11num_complex7ComplexdENCNvB4_16contract_storagesc_0Es1_0B6_
FN:601,_RNCINvNtCs75BZxj724SK_24tensor4all_tensorbackend7storage24contract_diag_dense_implINtCsggbFOsTKhzv_11num_complex7ComplexdENCNvB4_16contract_storagesc_0Es2_0B6_
FN:605,_RNCINvNtCs75BZxj724SK_24tensor4all_tensorbackend7storage24contract_diag_dense_implINtCsggbFOsTKhzv_11num_complex7ComplexdENCNvB4_16contract_storagesc_0Es3_0B6_
FN:533,_RNCINvNtCs75BZxj724SK_24tensor4all_tensorbackend7storage24contract_diag_dense_implINtCsggbFOsTKhzv_11num_complex7ComplexdENCNvB4_16contract_storagesc_0Es_0B6_
FN:531,_RNCINvNtCs75BZxj724SK_24tensor4all_tensorbackend7storage24contract_diag_dense_impldNCNvB4_16contract_storages2_0E0B6_
FN:546,_RNCINvNtCs75BZxj724SK_24tensor4all_tensorbackend7storage24contract_diag_dense_impldNCNvB4_16contract_storages2_0Es0_0B6_
FN:569,_RNCINvNtCs75BZxj724SK_24tensor4all_tensorbackend7storage24contract_diag_dense_impldNCNvB4_16contract_storages2_0Es1_0B6_
FN:601,_RNCINvNtCs75BZxj724SK_24tensor4all_tensorbackend7storage24contract_diag_dense_impldNCNvB4_16contract_storages2_0Es2_0B6_
FN:605,_RNCINvNtCs75BZxj724SK_24tensor4all_tensorbackend7storage24contract_diag_dense_impldNCNvB4_16contract_storages2_0Es3_0B6_
FN:533,_RNCINvNtCs75BZxj724SK_24tensor4all_tensorbackend7storage24contract_diag_dense_impldNCNvB4_16contract_storages2_0Es_0B6_
FN:531,_RNCINvNtCs75BZxj724SK_24tensor4all_tensorbackend7storage24contract_diag_dense_impldNCNvB4_16contract_storages4_0E0B6_
FN:546,_RNCINvNtCs75BZxj724SK_24tensor4all_tensorbackend7storage24contract_diag_dense_impldNCNvB4_16contract_storages4_0Es0_0B6_
FN:569,_RNCINvNtCs75BZxj724SK_24tensor4all_tensorbackend7storage24contract_diag_dense_impldNCNvB4_16contract_storages4_0Es1_0B6_
FN:601,_RNCINvNtCs75BZxj724SK_24tensor4all_tensorbackend7storage24contract_diag_dense_impldNCNvB4_16contract_storages4_0Es2_0B6_
FN:605,_RNCINvNtCs75BZxj724SK_24tensor4all_tensorbackend7storage24contract_diag_dense_impldNCNvB4_16contract_storages4_0Es3_0B6_
FN:533,_RNCINvNtCs75BZxj724SK_24tensor4all_tensorbackend7storage24contract_diag_dense_impldNCNvB4_16contract_storages4_0Es_0B6_
FN:180,_RNCNvMs4_NtCs75BZxj724SK_24tensor4all_tensorbackend7storageINtB7_12DenseStorageINtCsggbFOsTKhzv_11num_complex7ComplexdEE8contract0B9_
FN:187,_RNCNvMs4_NtCs75BZxj724SK_24tensor4all_tensorbackend7storageINtB7_12DenseStorageINtCsggbFOsTKhzv_11num_complex7ComplexdEE8contracts_0B9_
FN:180,_RNCNvMs4_NtCs75BZxj724SK_24tensor4all_tensorbackend7storageINtB7_12DenseStoragedE8contract0B9_
FN:187,_RNCNvMs4_NtCs75BZxj724SK_24tensor4all_tensorbackend7storageINtB7_12DenseStoragedE8contracts_0B9_
FN:975,_RNCNvMsf_NtCs75BZxj724SK_24tensor4all_tensorbackend7storageNtB7_7Storage18combine_to_complex0B9_
FN:985,_RNCNvMsf_NtCs75BZxj724SK_24tensor4all_tensorbackend7storageNtB7_7Storage18combine_to_complexs_0B9_
FN:904,_RNCNvMsf_NtCs75BZxj724SK_24tensor4all_tensorbackend7storageNtB7_7Storage18to_complex_storage0B9_
FN:912,_RNCNvMsf_NtCs75BZxj724SK_24tensor4all_tensorbackend7storageNtB7_7Storage18to_complex_storages_0B9_
FN:950,_RNCNvMsf_NtCs75BZxj724SK_24tensor4all_tensorbackend7storageNtB7_7Storage4conj0B9_
FN:958,_RNCNvMsf_NtCs75BZxj724SK_24tensor4all_tensorbackend7storageNtB7_7Storage4conjs_0B9_
FN:1251,_RNCNvMsf_NtCs75BZxj724SK_24tensor4all_tensorbackend7storageNtB7_7Storage5axpby0B9_
FN:1263,_RNCNvMsf_NtCs75BZxj724SK_24tensor4all_tensorbackend7storageNtB7_7Storage5axpbys0_0B9_
FN:1269,_RNCNvMsf_NtCs75BZxj724SK_24tensor4all_tensorbackend7storageNtB7_7Storage5axpbys1_0B9_
FN:1297,_RNCNvMsf_NtCs75BZxj724SK_24tensor4all_tensorbackend7storageNtB7_7Storage5axpbys2_0B9_
FN:1306,_RNCNvMsf_NtCs75BZxj724SK_24tensor4all_tensorbackend7storageNtB7_7Storage5axpbys3_0B9_
FN:1257,_RNCNvMsf_NtCs75BZxj724SK_24tensor4all_tensorbackend7storageNtB7_7Storage5axpbys_0B9_
FN:1160,_RNCNvMsf_NtCs75BZxj724SK_24tensor4all_tensorbackend7storageNtB7_7Storage5scale0B9_
FN:1177,_RNCNvMsf_NtCs75BZxj724SK_24tensor4all_tensorbackend7storageNtB7_7Storage5scales0_0B9_
FN:1183,_RNCNvMsf_NtCs75BZxj724SK_24tensor4all_tensorbackend7storageNtB7_7Storage5scales1_0B9_
FN:1188,_RNCNvMsf_NtCs75BZxj724SK_24tensor4all_tensorbackend7storageNtB7_7Storage5scales2_0B9_
FN:1195,_RNCNvMsf_NtCs75BZxj724SK_24tensor4all_tensorbackend7storageNtB7_7Storage5scales3_0B9_
FN:1203,_RNCNvMsf_NtCs75BZxj724SK_24tensor4all_tensorbackend7storageNtB7_7Storage5scales4_0B9_
FN:1208,_RNCNvMsf_NtCs75BZxj724SK_24tensor4all_tensorbackend7storageNtB7_7Storage5scales5_0B9_
FN:1168,_RNCNvMsf_NtCs75BZxj724SK_24tensor4all_tensorbackend7storageNtB7_7Storage5scales_0B9_
FN:1015,_RNCNvMsf_NtCs75BZxj724SK_24tensor4all_tensorbackend7storageNtB7_7Storage7try_add0B9_
FN:1047,_RNCNvMsf_NtCs75BZxj724SK_24tensor4all_tensorbackend7storageNtB7_7Storage7try_adds0_0B9_
FN:1063,_RNCNvMsf_NtCs75BZxj724SK_24tensor4all_tensorbackend7storageNtB7_7Storage7try_adds1_0B9_
FN:1031,_RNCNvMsf_NtCs75BZxj724SK_24tensor4all_tensorbackend7storageNtB7_7Storage7try_adds_0B9_
FN:1092,_RNCNvMsf_NtCs75BZxj724SK_24tensor4all_tensorbackend7storageNtB7_7Storage7try_sub0B9_
FN:1124,_RNCNvMsf_NtCs75BZxj724SK_24tensor4all_tensorbackend7storageNtB7_7Storage7try_subs0_0B9_
FN:1140,_RNCNvMsf_NtCs75BZxj724SK_24tensor4all_tensorbackend7storageNtB7_7Storage7try_subs1_0B9_
FN:1108,_RNCNvMsf_NtCs75BZxj724SK_24tensor4all_tensorbackend7storageNtB7_7Storage7try_subs_0B9_
FN:1384,_RNCNvNtCs75BZxj724SK_24tensor4all_tensorbackend7storage16contract_storage0B5_
FN:1392,_RNCNvNtCs75BZxj724SK_24tensor4all_tensorbackend7storage16contract_storages0_0B5_
FN:1393,_RNCNvNtCs75BZxj724SK_24tensor4all_tensorbackend7storage16contract_storages1_0B5_
FN:1470,_RNCNvNtCs75BZxj724SK_24tensor4all_tensorbackend7storage16contract_storages2_0B5_
FN:1475,_RNCNvNtCs75BZxj724SK_24tensor4all_tensorbackend7storage16contract_storages3_0B5_
FN:1489,_RNCNvNtCs75BZxj724SK_24tensor4all_tensorbackend7storage16contract_storages4_0B5_
FN:1490,_RNCNvNtCs75BZxj724SK_24tensor4all_tensorbackend7storage16contract_storages5_0B5_
FN:1500,_RNCNvNtCs75BZxj724SK_24tensor4all_tensorbackend7storage16contract_storages6_0B5_
FN:1501,_RNCNvNtCs75BZxj724SK_24tensor4all_tensorbackend7storage16contract_storages7_0B5_
FN:1515,_RNCNvNtCs75BZxj724SK_24tensor4all_tensorbackend7storage16contract_storages8_0B5_
FN:1529,_RNCNvNtCs75BZxj724SK_24tensor4all_tensorbackend7storage16contract_storages9_0B5_
FN:1385,_RNCNvNtCs75BZxj724SK_24tensor4all_tensorbackend7storage16contract_storages_0B5_
FN:1530,_RNCNvNtCs75BZxj724SK_24tensor4all_tensorbackend7storage16contract_storagesa_0B5_
FN:1543,_RNCNvNtCs75BZxj724SK_24tensor4all_tensorbackend7storage16contract_storagesb_0B5_
FN:1557,_RNCNvNtCs75BZxj724SK_24tensor4all_tensorbackend7storage16contract_storagesc_0B5_
FN:1558,_RNCNvNtCs75BZxj724SK_24tensor4all_tensorbackend7storage16contract_storagesd_0B5_
FN:1569,_RNCNvNtCs75BZxj724SK_24tensor4all_tensorbackend7storage19promote_diag_to_c640B5_
FN:1580,_RNCNvNtCs75BZxj724SK_24tensor4all_tensorbackend7storage20promote_dense_to_c640B5_
FN:323,_RNCNvNtCs75BZxj724SK_24tensor4all_tensorbackend7storage31compute_contraction_permutation0B5_
FN:334,_RNCNvNtCs75BZxj724SK_24tensor4all_tensorbackend7storage31compute_contraction_permutations_0B5_
FN:1708,_RNCNvXsi_NtCs75BZxj724SK_24tensor4all_tensorbackend7storageRNtB7_7StorageNtNtNtCskzPJi2J8k3N_4core3ops5arith3Add3add0B9_
FN:1728,_RNCNvXsi_NtCs75BZxj724SK_24tensor4all_tensorbackend7storageRNtB7_7StorageNtNtNtCskzPJi2J8k3N_4core3ops5arith3Add3adds0_0B9_
FN:1738,_RNCNvXsi_NtCs75BZxj724SK_24tensor4all_tensorbackend7storageRNtB7_7StorageNtNtNtCskzPJi2J8k3N_4core3ops5arith3Add3adds1_0B9_
FN:1718,_RNCNvXsi_NtCs75BZxj724SK_24tensor4all_tensorbackend7storageRNtB7_7StorageNtNtNtCskzPJi2J8k3N_4core3ops5arith3Add3adds_0B9_
FN:1755,_RNCNvXsj_NtCs75BZxj724SK_24tensor4all_tensorbackend7storageRNtB7_7StorageINtNtNtCskzPJi2J8k3N_4core3ops5arith3MuldE3mul0B9_
FN:1767,_RNCNvXsj_NtCs75BZxj724SK_24tensor4all_tensorbackend7storageRNtB7_7StorageINtNtNtCskzPJi2J8k3N_4core3ops5arith3MuldE3muls0_0B9_
FN:1774,_RNCNvXsj_NtCs75BZxj724SK_24tensor4all_tensorbackend7storageRNtB7_7StorageINtNtNtCskzPJi2J8k3N_4core3ops5arith3MuldE3muls1_0B9_
FN:1762,_RNCNvXsj_NtCs75BZxj724SK_24tensor4all_tensorbackend7storageRNtB7_7StorageINtNtNtCskzPJi2J8k3N_4core3ops5arith3MuldE3muls_0B9_
FN:1793,_RNCNvXsk_NtCs75BZxj724SK_24tensor4all_tensorbackend7storageRNtB7_7StorageINtNtNtCskzPJi2J8k3N_4core3ops5arith3MulINtCsggbFOsTKhzv_11num_complex7ComplexdEE3mul0B9_
FN:1806,_RNCNvXsk_NtCs75BZxj724SK_24tensor4all_tensorbackend7storageRNtB7_7StorageINtNtNtCskzPJi2J8k3N_4core3ops5arith3MulINtCsggbFOsTKhzv_11num_complex7ComplexdEE3muls0_0B9_
FN:1811,_RNCNvXsk_NtCs75BZxj724SK_24tensor4all_tensorbackend7storageRNtB7_7StorageINtNtNtCskzPJi2J8k3N_4core3ops5arith3MulINtCsggbFOsTKhzv_11num_complex7ComplexdEE3muls1_0B9_
FN:1798,_RNCNvXsk_NtCs75BZxj724SK_24tensor4all_tensorbackend7storageRNtB7_7StorageINtNtNtCskzPJi2J8k3N_4core3ops5arith3MulINtCsggbFOsTKhzv_11num_complex7ComplexdEE3muls_0B9_
FN:42,_RNvMs0_NtCs75BZxj724SK_24tensor4all_tensorbackend7storageINtB5_12DenseStorageINtCsggbFOsTKhzv_11num_complex7ComplexdEE13with_capacityB7_
FN:62,_RNvMs0_NtCs75BZxj724SK_24tensor4all_tensorbackend7storageINtB5_12DenseStorageINtCsggbFOsTKhzv_11num_complex7ComplexdEE3lenB7_
FN:50,_RNvMs0_NtCs75BZxj724SK_24tensor4all_tensorbackend7storageINtB5_12DenseStorageINtCsggbFOsTKhzv_11num_complex7ComplexdEE8as_sliceB7_
FN:46,_RNvMs0_NtCs75BZxj724SK_24tensor4all_tensorbackend7storageINtB5_12DenseStorageINtCsggbFOsTKhzv_11num_complex7ComplexdEE8from_vecB7_
FN:42,_RNvMs0_NtCs75BZxj724SK_24tensor4all_tensorbackend7storageINtB5_12DenseStoragedE13with_capacityB7_
FN:62,_RNvMs0_NtCs75BZxj724SK_24tensor4all_tensorbackend7storageINtB5_12DenseStoragedE3lenB7_
FN:50,_RNvMs0_NtCs75BZxj724SK_24tensor4all_tensorbackend7storageINtB5_12DenseStoragedE8as_sliceB7_
FN:46,_RNvMs0_NtCs75BZxj724SK_24tensor4all_tensorbackend7storageINtB5_12DenseStoragedE8from_vecB7_
FN:107,_RNvMs4_NtCs75BZxj724SK_24tensor4all_tensorbackend7storageINtB5_12DenseStorageINtCsggbFOsTKhzv_11num_complex7ComplexdEE7permuteB7_
FN:144,_RNvMs4_NtCs75BZxj724SK_24tensor4all_tensorbackend7storageINtB5_12DenseStorageINtCsggbFOsTKhzv_11num_complex7ComplexdEE8contractB7_
FN:107,_RNvMs4_NtCs75BZxj724SK_24tensor4all_tensorbackend7storageINtB5_12DenseStoragedE7permuteB7_
FN:144,_RNvMs4_NtCs75BZxj724SK_24tensor4all_tensorbackend7storageINtB5_12DenseStoragedE8contractB7_
FN:368,_RNvMs7_NtCs75BZxj724SK_24tensor4all_tensorbackend7storageINtB5_11DiagStorageINtCsggbFOsTKhzv_11num_complex7ComplexdEE3lenB7_
FN:356,_RNvMs7_NtCs75BZxj724SK_24tensor4all_tensorbackend7storageINtB5_11DiagStorageINtCsggbFOsTKhzv_11num_complex7ComplexdEE8as_sliceB7_
FN:352,_RNvMs7_NtCs75BZxj724SK_24tensor4all_tensorbackend7storageINtB5_11DiagStorageINtCsggbFOsTKhzv_11num_complex7ComplexdEE8from_vecB7_
FN:368,_RNvMs7_NtCs75BZxj724SK_24tensor4all_tensorbackend7storageINtB5_11DiagStoragedE3lenB7_
FN:356,_RNvMs7_NtCs75BZxj724SK_24tensor4all_tensorbackend7storageINtB5_11DiagStoragedE8as_sliceB7_
FN:352,_RNvMs7_NtCs75BZxj724SK_24tensor4all_tensorbackend7storageINtB5_11DiagStoragedE8from_vecB7_
FN:392,_RNvMsa_NtCs75BZxj724SK_24tensor4all_tensorbackend7storageINtB5_11DiagStorageINtCsggbFOsTKhzv_11num_complex7ComplexdEE12to_dense_vecB7_
FN:392,_RNvMsa_NtCs75BZxj724SK_24tensor4all_tensorbackend7storageINtB5_11DiagStoragedE12to_dense_vecB7_
FNDA:0,_RINvNtCs75BZxj724SK_24tensor4all_tensorbackend7storage18storage_to_dtensorINtCsggbFOsTKhzv_11num_complex7ComplexdEECsbrO2ourfQV3_15tensor4all_core
FNDA:16,_RINvNtCs75BZxj724SK_24tensor4all_tensorbackend7storage18storage_to_dtensordECsbrO2ourfQV3_15tensor4all_core
FNDA:0,_RNvMs1_NtCs75BZxj724SK_24tensor4all_tensorbackend7storageINtB5_12DenseStorageINtCsggbFOsTKhzv_11num_complex7ComplexdEE3getCsbrO2ourfQV3_15tensor4all_core
FNDA:0,_RNvMs1_NtCs75BZxj724SK_24tensor4all_tensorbackend7storageINtB5_12DenseStoragedE3getCsbrO2ourfQV3_15tensor4all_core
FNDA:16,_RNvYdNtNtCs75BZxj724SK_24tensor4all_tensorbackend7storage13StorageScalar13extract_denseCsbrO2ourfQV3_15tensor4all_core
FNDA:16,_RNvYdNtNtCs75BZxj724SK_24tensor4all_tensorbackend7storage13StorageScalar17extract_dense_cowCsbrO2ourfQV3_15tensor4all_core
FNDA:0,_RNvYINtCsggbFOsTKhzv_11num_complex7ComplexdENtNtCs75BZxj724SK_24tensor4all_tensorbackend7storage13StorageScalar13extract_denseCsbrO2ourfQV3_15tensor4all_core
FNDA:0,_RNvYINtCsggbFOsTKhzv_11num_complex7ComplexdENtNtCs75BZxj724SK_24tensor4all_tensorbackend7storage13StorageScalar17extract_dense_cowCsbrO2ourfQV3_15tensor4all_core
FNDA:0,_RNvXsc_NtCs75BZxj724SK_24tensor4all_tensorbackend7storageINtCsggbFOsTKhzv_11num_complex7ComplexdENtB5_19DenseStorageFactory9new_dense
FNDA:0,_RNvXse_NtCs75BZxj724SK_24tensor4all_tensorbackend7storageINtCsggbFOsTKhzv_11num_complex7ComplexdENtB5_14SumFromStorage16sum_from_storage
FNDA:0,_RNvXsh_NtCs75BZxj724SK_24tensor4all_tensorbackend7storageINtCsggbFOsTKhzv_11num_complex7ComplexdENtB5_13StorageScalar13dense_storage
FNDA:0,_RNvXsh_NtCs75BZxj724SK_24tensor4all_tensorbackend7storageINtCsggbFOsTKhzv_11num_complex7ComplexdENtB5_13StorageScalar18extract_dense_view
FNDA:0,_RINvMs3_NtCs75BZxj724SK_24tensor4all_tensorbackend7storageINtB6_12DenseStoragepE6extendpEB8_
FNDA:0,_RINvMs5_NtCs75BZxj724SK_24tensor4all_tensorbackend7storageINtB6_12DenseStoragedE6randompEB8_
FNDA:0,_RINvMs6_NtCs75BZxj724SK_24tensor4all_tensorbackend7storageINtB6_12DenseStorageINtCsggbFOsTKhzv_11num_complex7ComplexdEE6randompEB8_
FNDA:0,_RINvNtCs75BZxj724SK_24tensor4all_tensorbackend7storage18storage_to_dtensorpEB4_
FNDA:0,_RNCINvMs5_NtCs75BZxj724SK_24tensor4all_tensorbackend7storageINtB8_12DenseStoragedE6randompE0Ba_
FNDA:0,_RNCINvMs6_NtCs75BZxj724SK_24tensor4all_tensorbackend7storageINtB8_12DenseStorageINtCsggbFOsTKhzv_11num_complex7ComplexdEE6randompE0Ba_
FNDA:0,_RNvMs0_NtCs75BZxj724SK_24tensor4all_tensorbackend7storageINtB5_12DenseStoragepE12as_mut_sliceB7_
FNDA:0,_RNvMs0_NtCs75BZxj724SK_24tensor4all_tensorbackend7storageINtB5_12DenseStoragepE4iterB7_
FNDA:0,_RNvMs0_NtCs75BZxj724SK_24tensor4all_tensorbackend7storageINtB5_12DenseStoragepE4pushB7_
FNDA:0,_RNvMs0_NtCs75BZxj724SK_24tensor4all_tensorbackend7storageINtB5_12DenseStoragepE8capacityB7_
FNDA:0,_RNvMs0_NtCs75BZxj724SK_24tensor4all_tensorbackend7storageINtB5_12DenseStoragepE8into_vecB7_
FNDA:0,_RNvMs0_NtCs75BZxj724SK_24tensor4all_tensorbackend7storageINtB5_12DenseStoragepE8is_emptyB7_
FNDA:0,_RNvMs1_NtCs75BZxj724SK_24tensor4all_tensorbackend7storageINtB5_12DenseStoragepE17extend_from_sliceB7_
FNDA:0,_RNvMs1_NtCs75BZxj724SK_24tensor4all_tensorbackend7storageINtB5_12DenseStoragepE3getB7_
FNDA:0,_RNvMs2_NtCs75BZxj724SK_24tensor4all_tensorbackend7storageINtB5_12DenseStoragepE3setB7_
FNDA:0,_RNvMs7_NtCs75BZxj724SK_24tensor4all_tensorbackend7storageINtB5_11DiagStoragepE12as_mut_sliceB7_
FNDA:0,_RNvMs7_NtCs75BZxj724SK_24tensor4all_tensorbackend7storageINtB5_11DiagStoragepE8into_vecB7_
FNDA:0,_RNvMs7_NtCs75BZxj724SK_24tensor4all_tensorbackend7storageINtB5_11DiagStoragepE8is_emptyB7_
FNDA:0,_RNvMs8_NtCs75BZxj724SK_24tensor4all_tensorbackend7storageINtB5_11DiagStoragepE3getB7_
FNDA:0,_RNvMs9_NtCs75BZxj724SK_24tensor4all_tensorbackend7storageINtB5_11DiagStoragepE3setB7_
FNDA:0,_RNvYpNtNtCs75BZxj724SK_24tensor4all_tensorbackend7storage13StorageScalar13extract_denseB7_
FNDA:0,_RNvYpNtNtCs75BZxj724SK_24tensor4all_tensorbackend7storage13StorageScalar17extract_dense_cowB7_
FNDA:0,_RNvMsf_NtCs75BZxj724SK_24tensor4all_tensorbackend7storageNtB5_7Storage12new_diag_c64
FNDA:4,_RNvMsf_NtCs75BZxj724SK_24tensor4all_tensorbackend7storageNtB5_7Storage12new_diag_f64
FNDA:0,_RNvMsf_NtCs75BZxj724SK_24tensor4all_tensorbackend7storageNtB5_7Storage13new_dense_c64
FNDA:0,_RNvMsf_NtCs75BZxj724SK_24tensor4all_tensorbackend7storageNtB5_7Storage13new_dense_f64
FNDA:16,_RNvMsf_NtCs75BZxj724SK_24tensor4all_tensorbackend7storageNtB5_7Storage15permute_storage
FNDA:0,_RNvMsf_NtCs75BZxj724SK_24tensor4all_tensorbackend7storageNtB5_7Storage16to_dense_storage
FNDA:0,_RNvMsf_NtCs75BZxj724SK_24tensor4all_tensorbackend7storageNtB5_7Storage17extract_imag_part
FNDA:0,_RNvMsf_NtCs75BZxj724SK_24tensor4all_tensorbackend7storageNtB5_7Storage17extract_real_part
FNDA:0,_RNvMsf_NtCs75BZxj724SK_24tensor4all_tensorbackend7storageNtB5_7Storage18combine_to_complex
FNDA:0,_RNvMsf_NtCs75BZxj724SK_24tensor4all_tensorbackend7storageNtB5_7Storage18to_complex_storage
FNDA:0,_RNvMsf_NtCs75BZxj724SK_24tensor4all_tensorbackend7storageNtB5_7Storage3len
FNDA:4,_RNvMsf_NtCs75BZxj724SK_24tensor4all_tensorbackend7storageNtB5_7Storage4conj
FNDA:0,_RNvMsf_NtCs75BZxj724SK_24tensor4all_tensorbackend7storageNtB5_7Storage5axpby
FNDA:0,_RNvMsf_NtCs75BZxj724SK_24tensor4all_tensorbackend7storageNtB5_7Storage5scale
FNDA:176,_RNvMsf_NtCs75BZxj724SK_24tensor4all_tensorbackend7storageNtB5_7Storage7is_diag
FNDA:0,_RNvMsf_NtCs75BZxj724SK_24tensor4all_tensorbackend7storageNtB5_7Storage7sum_c64
FNDA:0,_RNvMsf_NtCs75BZxj724SK_24tensor4all_tensorbackend7storageNtB5_7Storage7sum_f64
FNDA:0,_RNvMsf_NtCs75BZxj724SK_24tensor4all_tensorbackend7storageNtB5_7Storage7try_add
FNDA:0,_RNvMsf_NtCs75BZxj724SK_24tensor4all_tensorbackend7storageNtB5_7Storage7try_sub
FNDA:0,_RNvMsf_NtCs75BZxj724SK_24tensor4all_tensorbackend7storageNtB5_7Storage8is_empty
FNDA:12,_RNvNtCs75BZxj724SK_24tensor4all_tensorbackend7storage15compute_strides
FNDA:30,_RNvNtCs75BZxj724SK_24tensor4all_tensorbackend7storage16contract_storage
FNDA:0,_RNvNtCs75BZxj724SK_24tensor4all_tensorbackend7storage16make_mut_storage
FNDA:0,_RNvNtCs75BZxj724SK_24tensor4all_tensorbackend7storage19promote_diag_to_c64
FNDA:0,_RNvNtCs75BZxj724SK_24tensor4all_tensorbackend7storage20promote_dense_to_c64
FNDA:52,_RNvNtCs75BZxj724SK_24tensor4all_tensorbackend7storage31compute_contraction_permutation
FNDA:0,_RNvNtCs75BZxj724SK_24tensor4all_tensorbackend7storage6mindim
FNDA:0,_RNvXsb_NtCs75BZxj724SK_24tensor4all_tensorbackend7storagedNtB5_19DenseStorageFactory9new_dense
FNDA:2,_RNvXsd_NtCs75BZxj724SK_24tensor4all_tensorbackend7storagedNtB5_14SumFromStorage16sum_from_storage
FNDA:64,_RNvXsg_NtCs75BZxj724SK_24tensor4all_tensorbackend7storagedNtB5_13StorageScalar13dense_storage
FNDA:16,_RNvXsg_NtCs75BZxj724SK_24tensor4all_tensorbackend7storagedNtB5_13StorageScalar18extract_dense_view
FNDA:0,_RNvXsi_NtCs75BZxj724SK_24tensor4all_tensorbackend7storageRNtB5_7StorageNtNtNtCskzPJi2J8k3N_4core3ops5arith3Add3add
FNDA:0,_RNvXsj_NtCs75BZxj724SK_24tensor4all_tensorbackend7storageRNtB5_7StorageINtNtNtCskzPJi2J8k3N_4core3ops5arith3MuldE3mul
FNDA:0,_RNvXsk_NtCs75BZxj724SK_24tensor4all_tensorbackend7storageRNtB5_7StorageINtNtNtCskzPJi2J8k3N_4core3ops5arith3MulINtCsggbFOsTKhzv_11num_complex7ComplexdEE3mul
FNDA:0,_RNvXsl_NtCs75BZxj724SK_24tensor4all_tensorbackend7storageRNtB5_7StorageINtNtNtCskzPJi2J8k3N_4core3ops5arith3MulNtNtB7_10any_scalar9AnyScalarE3mul
FNDA:0,_RINvMsa_NtCs75BZxj724SK_24tensor4all_tensorbackend7storageINtB6_11DiagStorageINtCsggbFOsTKhzv_11num_complex7ComplexdEE18contract_diag_diagNCNvB6_16contract_storages0_0NCB2e_s1_0EB8_
FNDA:0,_RINvMsa_NtCs75BZxj724SK_24tensor4all_tensorbackend7storageINtB6_11DiagStorageINtCsggbFOsTKhzv_11num_complex7ComplexdEE19contract_diag_denseNCNvB6_16contract_storages3_0EB8_
FNDA:0,_RINvMsa_NtCs75BZxj724SK_24tensor4all_tensorbackend7storageINtB6_11DiagStorageINtCsggbFOsTKhzv_11num_complex7ComplexdEE19contract_diag_denseNCNvB6_16contract_storages8_0EB8_
FNDA:0,_RINvMsa_NtCs75BZxj724SK_24tensor4all_tensorbackend7storageINtB6_11DiagStorageINtCsggbFOsTKhzv_11num_complex7ComplexdEE19contract_diag_denseNCNvB6_16contract_storagesb_0EB8_
FNDA:0,_RINvMsa_NtCs75BZxj724SK_24tensor4all_tensorbackend7storageINtB6_11DiagStoragedE18contract_diag_diagNCNvB6_16contract_storage0NCB1B_s_0EB8_
FNDA:4,_RINvMsa_NtCs75BZxj724SK_24tensor4all_tensorbackend7storageINtB6_11DiagStoragedE19contract_diag_denseNCNvB6_16contract_storages2_0EB8_
FNDA:0,_RINvNtCs75BZxj724SK_24tensor4all_tensorbackend7storage17contract_via_gemmINtCsggbFOsTKhzv_11num_complex7ComplexdEEB4_
FNDA:26,_RINvNtCs75BZxj724SK_24tensor4all_tensorbackend7storage17contract_via_gemmdEB4_
FNDA:0,_RINvNtCs75BZxj724SK_24tensor4all_tensorbackend7storage24contract_dense_diag_implINtCsggbFOsTKhzv_11num_complex7ComplexdENCNvB2_16contract_storages6_0NCB1W_s7_0EB4_
FNDA:0,_RINvNtCs75BZxj724SK_24tensor4all_tensorbackend7storage24contract_dense_diag_implINtCsggbFOsTKhzv_11num_complex7ComplexdENCNvB2_16contract_storages9_0NCB1W_sa_0EB4_
FNDA:0,_RINvNtCs75BZxj724SK_24tensor4all_tensorbackend7storage24contract_dense_diag_implINtCsggbFOsTKhzv_11num_complex7ComplexdENCNvB2_16contract_storagesc_0NCB1W_sd_0EB4_
FNDA:0,_RINvNtCs75BZxj724SK_24tensor4all_tensorbackend7storage24contract_dense_diag_impldNCNvB2_16contract_storages4_0NCB1j_s5_0EB4_
FNDA:0,_RINvNtCs75BZxj724SK_24tensor4all_tensorbackend7storage24contract_diag_dense_implINtCsggbFOsTKhzv_11num_complex7ComplexdENCNvB2_16contract_storages3_0EB4_
FNDA:0,_RINvNtCs75BZxj724SK_24tensor4all_tensorbackend7storage24contract_diag_dense_implINtCsggbFOsTKhzv_11num_complex7ComplexdENCNvB2_16contract_storages6_0EB4_
FNDA:0,_RINvNtCs75BZxj724SK_24tensor4all_tensorbackend7storage24contract_diag_dense_implINtCsggbFOsTKhzv_11num_complex7ComplexdENCNvB2_16contract_storages8_0EB4_
FNDA:0,_RINvNtCs75BZxj724SK_24tensor4all_tensorbackend7storage24contract_diag_dense_implINtCsggbFOsTKhzv_11num_complex7ComplexdENCNvB2_16contract_storages9_0EB4_
FNDA:0,_RINvNtCs75BZxj724SK_24tensor4all_tensorbackend7storage24contract_diag_dense_implINtCsggbFOsTKhzv_11num_complex7ComplexdENCNvB2_16contract_storagesb_0EB4_
FNDA:0,_RINvNtCs75BZxj724SK_24tensor4all_tensorbackend7storage24contract_diag_dense_implINtCsggbFOsTKhzv_11num_complex7ComplexdENCNvB2_16contract_storagesc_0EB4_
FNDA:4,_RINvNtCs75BZxj724SK_24tensor4all_tensorbackend7storage24contract_diag_dense_impldNCNvB2_16contract_storages2_0EB4_
FNDA:0,_RINvNtCs75BZxj724SK_24tensor4all_tensorbackend7storage24contract_diag_dense_impldNCNvB2_16contract_storages4_0EB4_
FNDA:0,_RNCINvMsa_NtCs75BZxj724SK_24tensor4all_tensorbackend7storageINtB8_11DiagStorageINtCsggbFOsTKhzv_11num_complex7ComplexdEE18contract_diag_diagNCNvB8_16contract_storages0_0NCB2g_s1_0E0Ba_
FNDA:0,_RNCINvMsa_NtCs75BZxj724SK_24tensor4all_tensorbackend7storageINtB8_11DiagStorageINtCsggbFOsTKhzv_11num_complex7ComplexdEE18contract_diag_diagNCNvB8_16contract_storages0_0NCB2g_s1_0Es_0Ba_
FNDA:0,_RNCINvMsa_NtCs75BZxj724SK_24tensor4all_tensorbackend7storageINtB8_11DiagStoragedE18contract_diag_diagNCNvB8_16contract_storage0NCB1D_s_0E0Ba_
FNDA:0,_RNCINvMsa_NtCs75BZxj724SK_24tensor4all_tensorbackend7storageINtB8_11DiagStoragedE18contract_diag_diagNCNvB8_16contract_storage0NCB1D_s_0Es_0Ba_
FNDA:0,_RNCINvNtCs75BZxj724SK_24tensor4all_tensorbackend7storage24contract_dense_diag_implINtCsggbFOsTKhzv_11num_complex7ComplexdENCNvB4_16contract_storages6_0NCB1Y_s7_0E0B6_
FNDA:0,_RNCINvNtCs75BZxj724SK_24tensor4all_tensorbackend7storage24contract_dense_diag_implINtCsggbFOsTKhzv_11num_complex7ComplexdENCNvB4_16contract_storages6_0NCB1Y_s7_0Es0_0B6_
FNDA:0,_RNCINvNtCs75BZxj724SK_24tensor4all_tensorbackend7storage24contract_dense_diag_implINtCsggbFOsTKhzv_11num_complex7ComplexdENCNvB4_16contract_storages6_0NCB1Y_s7_0Es1_0B6_
FNDA:0,_RNCINvNtCs75BZxj724SK_24tensor4all_tensorbackend7storage24contract_dense_diag_implINtCsggbFOsTKhzv_11num_complex7ComplexdENCNvB4_16contract_storages6_0NCB1Y_s7_0Es_0B6_
FNDA:0,_RNCINvNtCs75BZxj724SK_24tensor4all_tensorbackend7storage24contract_dense_diag_implINtCsggbFOsTKhzv_11num_complex7ComplexdENCNvB4_16contract_storages9_0NCB1Y_sa_0E0B6_
FNDA:0,_RNCINvNtCs75BZxj724SK_24tensor4all_tensorbackend7storage24contract_dense_diag_implINtCsggbFOsTKhzv_11num_complex7ComplexdENCNvB4_16contract_storages9_0NCB1Y_sa_0Es0_0B6_
FNDA:0,_RNCINvNtCs75BZxj724SK_24tensor4all_tensorbackend7storage24contract_dense_diag_implINtCsggbFOsTKhzv_11num_complex7ComplexdENCNvB4_16contract_storages9_0NCB1Y_sa_0Es1_0B6_
FNDA:0,_RNCINvNtCs75BZxj724SK_24tensor4all_tensorbackend7storage24contract_dense_diag_implINtCsggbFOsTKhzv_11num_complex7ComplexdENCNvB4_16contract_storages9_0NCB1Y_sa_0Es_0B6_
FNDA:0,_RNCINvNtCs75BZxj724SK_24tensor4all_tensorbackend7storage24contract_dense_diag_implINtCsggbFOsTKhzv_11num_complex7ComplexdENCNvB4_16contract_storagesc_0NCB1Y_sd_0E0B6_
FNDA:0,_RNCINvNtCs75BZxj724SK_24tensor4all_tensorbackend7storage24contract_dense_diag_implINtCsggbFOsTKhzv_11num_complex7ComplexdENCNvB4_16contract_storagesc_0NCB1Y_sd_0Es0_0B6_
FNDA:0,_RNCINvNtCs75BZxj724SK_24tensor4all_tensorbackend7storage24contract_dense_diag_implINtCsggbFOsTKhzv_11num_complex7ComplexdENCNvB4_16contract_storagesc_0NCB1Y_sd_0Es1_0B6_
FNDA:0,_RNCINvNtCs75BZxj724SK_24tensor4all_tensorbackend7storage24contract_dense_diag_implINtCsggbFOsTKhzv_11num_complex7ComplexdENCNvB4_16contract_storagesc_0NCB1Y_sd_0Es_0B6_
FNDA:0,_RNCINvNtCs75BZxj724SK_24tensor4all_tensorbackend7storage24contract_dense_diag_impldNCNvB4_16contract_storages4_0NCB1l_s5_0E0B6_
FNDA:0,_RNCINvNtCs75BZxj724SK_24tensor4all_tensorbackend7storage24contract_dense_diag_impldNCNvB4_16contract_storages4_0NCB1l_s5_0Es0_0B6_
FNDA:0,_RNCINvNtCs75BZxj724SK_24tensor4all_tensorbackend7storage24contract_dense_diag_impldNCNvB4_16contract_storages4_0NCB1l_s5_0Es1_0B6_
FNDA:0,_RNCINvNtCs75BZxj724SK_24tensor4all_tensorbackend7storage24contract_dense_diag_impldNCNvB4_16contract_storages4_0NCB1l_s5_0Es_0B6_
FNDA:0,_RNCINvNtCs75BZxj724SK_24tensor4all_tensorbackend7storage24contract_diag_dense_implINtCsggbFOsTKhzv_11num_complex7ComplexdENCNvB4_16contract_storages3_0E0B6_
FNDA:0,_RNCINvNtCs75BZxj724SK_24tensor4all_tensorbackend7storage24contract_diag_dense_implINtCsggbFOsTKhzv_11num_complex7ComplexdENCNvB4_16contract_storages3_0Es0_0B6_
FNDA:0,_RNCINvNtCs75BZxj724SK_24tensor4all_tensorbackend7storage24contract_diag_dense_implINtCsggbFOsTKhzv_11num_complex7ComplexdENCNvB4_16contract_storages3_0Es1_0B6_
FNDA:0,_RNCINvNtCs75BZxj724SK_24tensor4all_tensorbackend7storage24contract_diag_dense_implINtCsggbFOsTKhzv_11num_complex7ComplexdENCNvB4_16contract_storages3_0Es2_0B6_
FNDA:0,_RNCINvNtCs75BZxj724SK_24tensor4all_tensorbackend7storage24contract_diag_dense_implINtCsggbFOsTKhzv_11num_complex7ComplexdENCNvB4_16contract_storages3_0Es3_0B6_
FNDA:0,_RNCINvNtCs75BZxj724SK_24tensor4all_tensorbackend7storage24contract_diag_dense_implINtCsggbFOsTKhzv_11num_complex7ComplexdENCNvB4_16contract_storages3_0Es_0B6_
FNDA:0,_RNCINvNtCs75BZxj724SK_24tensor4all_tensorbackend7storage24contract_diag_dense_implINtCsggbFOsTKhzv_11num_complex7ComplexdENCNvB4_16contract_storages6_0E0B6_
FNDA:0,_RNCINvNtCs75BZxj724SK_24tensor4all_tensorbackend7storage24contract_diag_dense_implINtCsggbFOsTKhzv_11num_complex7ComplexdENCNvB4_16contract_storages6_0Es0_0B6_
FNDA:0,_RNCINvNtCs75BZxj724SK_24tensor4all_tensorbackend7storage24contract_diag_dense_implINtCsggbFOsTKhzv_11num_complex7ComplexdENCNvB4_16contract_storages6_0Es1_0B6_
FNDA:0,_RNCINvNtCs75BZxj724SK_24tensor4all_tensorbackend7storage24contract_diag_dense_implINtCsggbFOsTKhzv_11num_complex7ComplexdENCNvB4_16contract_storages6_0Es2_0B6_
FNDA:0,_RNCINvNtCs75BZxj724SK_24tensor4all_tensorbackend7storage24contract_diag_dense_implINtCsggbFOsTKhzv_11num_complex7ComplexdENCNvB4_16contract_storages6_0Es3_0B6_
FNDA:0,_RNCINvNtCs75BZxj724SK_24tensor4all_tensorbackend7storage24contract_diag_dense_implINtCsggbFOsTKhzv_11num_complex7ComplexdENCNvB4_16contract_storages6_0Es_0B6_
FNDA:0,_RNCINvNtCs75BZxj724SK_24tensor4all_tensorbackend7storage24contract_diag_dense_implINtCsggbFOsTKhzv_11num_complex7ComplexdENCNvB4_16contract_storages8_0E0B6_
FNDA:0,_RNCINvNtCs75BZxj724SK_24tensor4all_tensorbackend7storage24contract_diag_dense_implINtCsggbFOsTKhzv_11num_complex7ComplexdENCNvB4_16contract_storages8_0Es0_0B6_
FNDA:0,_RNCINvNtCs75BZxj724SK_24tensor4all_tensorbackend7storage24contract_diag_dense_implINtCsggbFOsTKhzv_11num_complex7ComplexdENCNvB4_16contract_storages8_0Es1_0B6_
FNDA:0,_RNCINvNtCs75BZxj724SK_24tensor4all_tensorbackend7storage24contract_diag_dense_implINtCsggbFOsTKhzv_11num_complex7ComplexdENCNvB4_16contract_storages8_0Es2_0B6_
FNDA:0,_RNCINvNtCs75BZxj724SK_24tensor4all_tensorbackend7storage24contract_diag_dense_implINtCsggbFOsTKhzv_11num_complex7ComplexdENCNvB4_16contract_storages8_0Es3_0B6_
FNDA:0,_RNCINvNtCs75BZxj724SK_24tensor4all_tensorbackend7storage24contract_diag_dense_implINtCsggbFOsTKhzv_11num_complex7ComplexdENCNvB4_16contract_storages8_0Es_0B6_
FNDA:0,_RNCINvNtCs75BZxj724SK_24tensor4all_tensorbackend7storage24contract_diag_dense_implINtCsggbFOsTKhzv_11num_complex7ComplexdENCNvB4_16contract_storages9_0E0B6_
FNDA:0,_RNCINvNtCs75BZxj724SK_24tensor4all_tensorbackend7storage24contract_diag_dense_implINtCsggbFOsTKhzv_11num_complex7ComplexdENCNvB4_16contract_storages9_0Es0_0B6_
FNDA:0,_RNCINvNtCs75BZxj724SK_24tensor4all_tensorbackend7storage24contract_diag_dense_implINtCsggbFOsTKhzv_11num_complex7ComplexdENCNvB4_16contract_storages9_0Es1_0B6_
FNDA:0,_RNCINvNtCs75BZxj724SK_24tensor4all_tensorbackend7storage24contract_diag_dense_implINtCsggbFOsTKhzv_11num_complex7ComplexdENCNvB4_16contract_storages9_0Es2_0B6_
FNDA:0,_RNCINvNtCs75BZxj724SK_24tensor4all_tensorbackend7storage24contract_diag_dense_implINtCsggbFOsTKhzv_11num_complex7ComplexdENCNvB4_16contract_storages9_0Es3_0B6_
FNDA:0,_RNCINvNtCs75BZxj724SK_24tensor4all_tensorbackend7storage24contract_diag_dense_implINtCsggbFOsTKhzv_11num_complex7ComplexdENCNvB4_16contract_storages9_0Es_0B6_
FNDA:0,_RNCINvNtCs75BZxj724SK_24tensor4all_tensorbackend7storage24contract_diag_dense_implINtCsggbFOsTKhzv_11num_complex7ComplexdENCNvB4_16contract_storagesb_0E0B6_
FNDA:0,_RNCINvNtCs75BZxj724SK_24tensor4all_tensorbackend7storage24contract_diag_dense_implINtCsggbFOsTKhzv_11num_complex7ComplexdENCNvB4_16contract_storagesb_0Es0_0B6_
FNDA:0,_RNCINvNtCs75BZxj724SK_24tensor4all_tensorbackend7storage24contract_diag_dense_implINtCsggbFOsTKhzv_11num_complex7ComplexdENCNvB4_16contract_storagesb_0Es1_0B6_
FNDA:0,_RNCINvNtCs75BZxj724SK_24tensor4all_tensorbackend7storage24contract_diag_dense_implINtCsggbFOsTKhzv_11num_complex7ComplexdENCNvB4_16contract_storagesb_0Es2_0B6_
FNDA:0,_RNCINvNtCs75BZxj724SK_24tensor4all_tensorbackend7storage24contract_diag_dense_implINtCsggbFOsTKhzv_11num_complex7ComplexdENCNvB4_16contract_storagesb_0Es3_0B6_
FNDA:0,_RNCINvNtCs75BZxj724SK_24tensor4all_tensorbackend7storage24contract_diag_dense_implINtCsggbFOsTKhzv_11num_complex7ComplexdENCNvB4_16contract_storagesb_0Es_0B6_
FNDA:0,_RNCINvNtCs75BZxj724SK_24tensor4all_tensorbackend7storage24contract_diag_dense_implINtCsggbFOsTKhzv_11num_complex7ComplexdENCNvB4_16contract_storagesc_0E0B6_
FNDA:0,_RNCINvNtCs75BZxj724SK_24tensor4all_tensorbackend7storage24contract_diag_dense_implINtCsggbFOsTKhzv_11num_complex7ComplexdENCNvB4_16contract_storagesc_0Es0_0B6_
FNDA:0,_RNCINvNtCs75BZxj724SK_24tensor4all_tensorbackend7storage24contract_diag_dense_implINtCsggbFOsTKhzv_11num_complex7ComplexdENCNvB4_16contract_storagesc_0Es1_0B6_
FNDA:0,_RNCINvNtCs75BZxj724SK_24tensor4all_tensorbackend7storage24contract_diag_dense_implINtCsggbFOsTKhzv_11num_complex7ComplexdENCNvB4_16contract_storagesc_0Es2_0B6_
FNDA:0,_RNCINvNtCs75BZxj724SK_24tensor4all_tensorbackend7storage24contract_diag_dense_implINtCsggbFOsTKhzv_11num_complex7ComplexdENCNvB4_16contract_storagesc_0Es3_0B6_
FNDA:0,_RNCINvNtCs75BZxj724SK_24tensor4all_tensorbackend7storage24contract_diag_dense_implINtCsggbFOsTKhzv_11num_complex7ComplexdENCNvB4_16contract_storagesc_0Es_0B6_
FNDA:8,_RNCINvNtCs75BZxj724SK_24tensor4all_tensorbackend7storage24contract_diag_dense_impldNCNvB4_16contract_storages2_0E0B6_
FNDA:6,_RNCINvNtCs75BZxj724SK_24tensor4all_tensorbackend7storage24contract_diag_dense_impldNCNvB4_16contract_storages2_0Es0_0B6_
FNDA:0,_RNCINvNtCs75BZxj724SK_24tensor4all_tensorbackend7storage24contract_diag_dense_impldNCNvB4_16contract_storages2_0Es1_0B6_
FNDA:8,_RNCINvNtCs75BZxj724SK_24tensor4all_tensorbackend7storage24contract_diag_dense_impldNCNvB4_16contract_storages2_0Es2_0B6_
FNDA:8,_RNCINvNtCs75BZxj724SK_24tensor4all_tensorbackend7storage24contract_diag_dense_impldNCNvB4_16contract_storages2_0Es3_0B6_
FNDA:10,_RNCINvNtCs75BZxj724SK_24tensor4all_tensorbackend7storage24contract_diag_dense_impldNCNvB4_16contract_storages2_0Es_0B6_
FNDA:0,_RNCINvNtCs75BZxj724SK_24tensor4all_tensorbackend7storage24contract_diag_dense_impldNCNvB4_16contract_storages4_0E0B6_
FNDA:0,_RNCINvNtCs75BZxj724SK_24tensor4all_tensorbackend7storage24contract_diag_dense_impldNCNvB4_16contract_storages4_0Es0_0B6_
FNDA:0,_RNCINvNtCs75BZxj724SK_24tensor4all_tensorbackend7storage24contract_diag_dense_impldNCNvB4_16contract_storages4_0Es1_0B6_
FNDA:0,_RNCINvNtCs75BZxj724SK_24tensor4all_tensorbackend7storage24contract_diag_dense_impldNCNvB4_16contract_storages4_0Es2_0B6_
FNDA:0,_RNCINvNtCs75BZxj724SK_24tensor4all_tensorbackend7storage24contract_diag_dense_impldNCNvB4_16contract_storages4_0Es3_0B6_
FNDA:0,_RNCINvNtCs75BZxj724SK_24tensor4all_tensorbackend7storage24contract_diag_dense_impldNCNvB4_16contract_storages4_0Es_0B6_
FNDA:0,_RNCNvMs4_NtCs75BZxj724SK_24tensor4all_tensorbackend7storageINtB7_12DenseStorageINtCsggbFOsTKhzv_11num_complex7ComplexdEE8contract0B9_
FNDA:0,_RNCNvMs4_NtCs75BZxj724SK_24tensor4all_tensorbackend7storageINtB7_12DenseStorageINtCsggbFOsTKhzv_11num_complex7ComplexdEE8contracts_0B9_
FNDA:42,_RNCNvMs4_NtCs75BZxj724SK_24tensor4all_tensorbackend7storageINtB7_12DenseStoragedE8contract0B9_
FNDA:32,_RNCNvMs4_NtCs75BZxj724SK_24tensor4all_tensorbackend7storageINtB7_12DenseStoragedE8contracts_0B9_
FNDA:0,_RNCNvMsf_NtCs75BZxj724SK_24tensor4all_tensorbackend7storageNtB7_7Storage18combine_to_complex0B9_
FNDA:0,_RNCNvMsf_NtCs75BZxj724SK_24tensor4all_tensorbackend7storageNtB7_7Storage18combine_to_complexs_0B9_
FNDA:0,_RNCNvMsf_NtCs75BZxj724SK_24tensor4all_tensorbackend7storageNtB7_7Storage18to_complex_storage0B9_
FNDA:0,_RNCNvMsf_NtCs75BZxj724SK_24tensor4all_tensorbackend7storageNtB7_7Storage18to_complex_storages_0B9_
FNDA:0,_RNCNvMsf_NtCs75BZxj724SK_24tensor4all_tensorbackend7storageNtB7_7Storage4conj0B9_
FNDA:0,_RNCNvMsf_NtCs75BZxj724SK_24tensor4all_tensorbackend7storageNtB7_7Storage4conjs_0B9_
FNDA:0,_RNCNvMsf_NtCs75BZxj724SK_24tensor4all_tensorbackend7storageNtB7_7Storage5axpby0B9_
FNDA:0,_RNCNvMsf_NtCs75BZxj724SK_24tensor4all_tensorbackend7storageNtB7_7Storage5axpbys0_0B9_
FNDA:0,_RNCNvMsf_NtCs75BZxj724SK_24tensor4all_tensorbackend7storageNtB7_7Storage5axpbys1_0B9_
FNDA:0,_RNCNvMsf_NtCs75BZxj724SK_24tensor4all_tensorbackend7storageNtB7_7Storage5axpbys2_0B9_
FNDA:0,_RNCNvMsf_NtCs75BZxj724SK_24tensor4all_tensorbackend7storageNtB7_7Storage5axpbys3_0B9_
FNDA:0,_RNCNvMsf_NtCs75BZxj724SK_24tensor4all_tensorbackend7storageNtB7_7Storage5axpbys_0B9_
FNDA:0,_RNCNvMsf_NtCs75BZxj724SK_24tensor4all_tensorbackend7storageNtB7_7Storage5scale0B9_
FNDA:0,_RNCNvMsf_NtCs75BZxj724SK_24tensor4all_tensorbackend7storageNtB7_7Storage5scales0_0B9_
FNDA:0,_RNCNvMsf_NtCs75BZxj724SK_24tensor4all_tensorbackend7storageNtB7_7Storage5scales1_0B9_
FNDA:0,_RNCNvMsf_NtCs75BZxj724SK_24tensor4all_tensorbackend7storageNtB7_7Storage5scales2_0B9_
FNDA:0,_RNCNvMsf_NtCs75BZxj724SK_24tensor4all_tensorbackend7storageNtB7_7Storage5scales3_0B9_
FNDA:0,_RNCNvMsf_NtCs75BZxj724SK_24tensor4all_tensorbackend7storageNtB7_7Storage5scales4_0B9_
FNDA:0,_RNCNvMsf_NtCs75BZxj724SK_24tensor4all_tensorbackend7storageNtB7_7Storage5scales5_0B9_
FNDA:0,_RNCNvMsf_NtCs75BZxj724SK_24tensor4all_tensorbackend7storageNtB7_7Storage5scales_0B9_
FNDA:0,_RNCNvMsf_NtCs75BZxj724SK_24tensor4all_tensorbackend7storageNtB7_7Storage7try_add0B9_
FNDA:0,_RNCNvMsf_NtCs75BZxj724SK_24tensor4all_tensorbackend7storageNtB7_7Storage7try_adds0_0B9_
FNDA:0,_RNCNvMsf_NtCs75BZxj724SK_24tensor4all_tensorbackend7storageNtB7_7Storage7try_adds1_0B9_
FNDA:0,_RNCNvMsf_NtCs75BZxj724SK_24tensor4all_tensorbackend7storageNtB7_7Storage7try_adds_0B9_
FNDA:0,_RNCNvMsf_NtCs75BZxj724SK_24tensor4all_tensorbackend7storageNtB7_7Storage7try_sub0B9_
FNDA:0,_RNCNvMsf_NtCs75BZxj724SK_24tensor4all_tensorbackend7storageNtB7_7Storage7try_subs0_0B9_
FNDA:0,_RNCNvMsf_NtCs75BZxj724SK_24tensor4all_tensorbackend7storageNtB7_7Storage7try_subs1_0B9_
FNDA:0,_RNCNvMsf_NtCs75BZxj724SK_24tensor4all_tensorbackend7storageNtB7_7Storage7try_subs_0B9_
FNDA:0,_RNCNvNtCs75BZxj724SK_24tensor4all_tensorbackend7storage16contract_storage0B5_
FNDA:0,_RNCNvNtCs75BZxj724SK_24tensor4all_tensorbackend7storage16contract_storages0_0B5_
FNDA:0,_RNCNvNtCs75BZxj724SK_24tensor4all_tensorbackend7storage16contract_storages1_0B5_
FNDA:4,_RNCNvNtCs75BZxj724SK_24tensor4all_tensorbackend7storage16contract_storages2_0B5_
FNDA:0,_RNCNvNtCs75BZxj724SK_24tensor4all_tensorbackend7storage16contract_storages3_0B5_
FNDA:0,_RNCNvNtCs75BZxj724SK_24tensor4all_tensorbackend7storage16contract_storages4_0B5_
FNDA:0,_RNCNvNtCs75BZxj724SK_24tensor4all_tensorbackend7storage16contract_storages5_0B5_
FNDA:0,_RNCNvNtCs75BZxj724SK_24tensor4all_tensorbackend7storage16contract_storages6_0B5_
FNDA:0,_RNCNvNtCs75BZxj724SK_24tensor4all_tensorbackend7storage16contract_storages7_0B5_
FNDA:0,_RNCNvNtCs75BZxj724SK_24tensor4all_tensorbackend7storage16contract_storages8_0B5_
FNDA:0,_RNCNvNtCs75BZxj724SK_24tensor4all_tensorbackend7storage16contract_storages9_0B5_
FNDA:0,_RNCNvNtCs75BZxj724SK_24tensor4all_tensorbackend7storage16contract_storages_0B5_
FNDA:0,_RNCNvNtCs75BZxj724SK_24tensor4all_tensorbackend7storage16contract_storagesa_0B5_
FNDA:0,_RNCNvNtCs75BZxj724SK_24tensor4all_tensorbackend7storage16contract_storagesb_0B5_
FNDA:0,_RNCNvNtCs75BZxj724SK_24tensor4all_tensorbackend7storage16contract_storagesc_0B5_
FNDA:0,_RNCNvNtCs75BZxj724SK_24tensor4all_tensorbackend7storage16contract_storagesd_0B5_
FNDA:0,_RNCNvNtCs75BZxj724SK_24tensor4all_tensorbackend7storage19promote_diag_to_c640B5_
FNDA:0,_RNCNvNtCs75BZxj724SK_24tensor4all_tensorbackend7storage20promote_dense_to_c640B5_
FNDA:105,_RNCNvNtCs75BZxj724SK_24tensor4all_tensorbackend7storage31compute_contraction_permutation0B5_
FNDA:105,_RNCNvNtCs75BZxj724SK_24tensor4all_tensorbackend7storage31compute_contraction_permutations_0B5_
FNDA:0,_RNCNvXsi_NtCs75BZxj724SK_24tensor4all_tensorbackend7storageRNtB7_7StorageNtNtNtCskzPJi2J8k3N_4core3ops5arith3Add3add0B9_
FNDA:0,_RNCNvXsi_NtCs75BZxj724SK_24tensor4all_tensorbackend7storageRNtB7_7StorageNtNtNtCskzPJi2J8k3N_4core3ops5arith3Add3adds0_0B9_
FNDA:0,_RNCNvXsi_NtCs75BZxj724SK_24tensor4all_tensorbackend7storageRNtB7_7StorageNtNtNtCskzPJi2J8k3N_4core3ops5arith3Add3adds1_0B9_
FNDA:0,_RNCNvXsi_NtCs75BZxj724SK_24tensor4all_tensorbackend7storageRNtB7_7StorageNtNtNtCskzPJi2J8k3N_4core3ops5arith3Add3adds_0B9_
FNDA:0,_RNCNvXsj_NtCs75BZxj724SK_24tensor4all_tensorbackend7storageRNtB7_7StorageINtNtNtCskzPJi2J8k3N_4core3ops5arith3MuldE3mul0B9_
FNDA:0,_RNCNvXsj_NtCs75BZxj724SK_24tensor4all_tensorbackend7storageRNtB7_7StorageINtNtNtCskzPJi2J8k3N_4core3ops5arith3MuldE3muls0_0B9_
FNDA:0,_RNCNvXsj_NtCs75BZxj724SK_24tensor4all_tensorbackend7storageRNtB7_7StorageINtNtNtCskzPJi2J8k3N_4core3ops5arith3MuldE3muls1_0B9_
FNDA:0,_RNCNvXsj_NtCs75BZxj724SK_24tensor4all_tensorbackend7storageRNtB7_7StorageINtNtNtCskzPJi2J8k3N_4core3ops5arith3MuldE3muls_0B9_
FNDA:0,_RNCNvXsk_NtCs75BZxj724SK_24tensor4all_tensorbackend7storageRNtB7_7StorageINtNtNtCskzPJi2J8k3N_4core3ops5arith3MulINtCsggbFOsTKhzv_11num_complex7ComplexdEE3mul0B9_
FNDA:0,_RNCNvXsk_NtCs75BZxj724SK_24tensor4all_tensorbackend7storageRNtB7_7StorageINtNtNtCskzPJi2J8k3N_4core3ops5arith3MulINtCsggbFOsTKhzv_11num_complex7ComplexdEE3muls0_0B9_
FNDA:0,_RNCNvXsk_NtCs75BZxj724SK_24tensor4all_tensorbackend7storageRNtB7_7StorageINtNtNtCskzPJi2J8k3N_4core3ops5arith3MulINtCsggbFOsTKhzv_11num_complex7ComplexdEE3muls1_0B9_
FNDA:0,_RNCNvXsk_NtCs75BZxj724SK_24tensor4all_tensorbackend7storageRNtB7_7StorageINtNtNtCskzPJi2J8k3N_4core3ops5arith3MulINtCsggbFOsTKhzv_11num_complex7ComplexdEE3muls_0B9_
FNDA:0,_RNvMs0_NtCs75BZxj724SK_24tensor4all_tensorbackend7storageINtB5_12DenseStorageINtCsggbFOsTKhzv_11num_complex7ComplexdEE13with_capacityB7_
FNDA:0,_RNvMs0_NtCs75BZxj724SK_24tensor4all_tensorbackend7storageINtB5_12DenseStorageINtCsggbFOsTKhzv_11num_complex7ComplexdEE3lenB7_
FNDA:1,_RNvMs0_NtCs75BZxj724SK_24tensor4all_tensorbackend7storageINtB5_12DenseStorageINtCsggbFOsTKhzv_11num_complex7ComplexdEE8as_sliceB7_
FNDA:1,_RNvMs0_NtCs75BZxj724SK_24tensor4all_tensorbackend7storageINtB5_12DenseStorageINtCsggbFOsTKhzv_11num_complex7ComplexdEE8from_vecB7_
FNDA:0,_RNvMs0_NtCs75BZxj724SK_24tensor4all_tensorbackend7storageINtB5_12DenseStoragedE13with_capacityB7_
FNDA:0,_RNvMs0_NtCs75BZxj724SK_24tensor4all_tensorbackend7storageINtB5_12DenseStoragedE3lenB7_
FNDA:80,_RNvMs0_NtCs75BZxj724SK_24tensor4all_tensorbackend7storageINtB5_12DenseStoragedE8as_sliceB7_
FNDA:147,_RNvMs0_NtCs75BZxj724SK_24tensor4all_tensorbackend7storageINtB5_12DenseStoragedE8from_vecB7_
FNDA:0,_RNvMs4_NtCs75BZxj724SK_24tensor4all_tensorbackend7storageINtB5_12DenseStorageINtCsggbFOsTKhzv_11num_complex7ComplexdEE7permuteB7_
FNDA:0,_RNvMs4_NtCs75BZxj724SK_24tensor4all_tensorbackend7storageINtB5_12DenseStorageINtCsggbFOsTKhzv_11num_complex7ComplexdEE8contractB7_
FNDA:43,_RNvMs4_NtCs75BZxj724SK_24tensor4all_tensorbackend7storageINtB5_12DenseStoragedE7permuteB7_
FNDA:26,_RNvMs4_NtCs75BZxj724SK_24tensor4all_tensorbackend7storageINtB5_12DenseStoragedE8contractB7_
FNDA:0,_RNvMs7_NtCs75BZxj724SK_24tensor4all_tensorbackend7storageINtB5_11DiagStorageINtCsggbFOsTKhzv_11num_complex7ComplexdEE3lenB7_
FNDA:0,_RNvMs7_NtCs75BZxj724SK_24tensor4all_tensorbackend7storageINtB5_11DiagStorageINtCsggbFOsTKhzv_11num_complex7ComplexdEE8as_sliceB7_
FNDA:0,_RNvMs7_NtCs75BZxj724SK_24tensor4all_tensorbackend7storageINtB5_11DiagStorageINtCsggbFOsTKhzv_11num_complex7ComplexdEE8from_vecB7_
FNDA:0,_RNvMs7_NtCs75BZxj724SK_24tensor4all_tensorbackend7storageINtB5_11DiagStoragedE3lenB7_
FNDA:8,_RNvMs7_NtCs75BZxj724SK_24tensor4all_tensorbackend7storageINtB5_11DiagStoragedE8as_sliceB7_
FNDA:4,_RNvMs7_NtCs75BZxj724SK_24tensor4all_tensorbackend7storageINtB5_11DiagStoragedE8from_vecB7_
FNDA:0,_RNvMsa_NtCs75BZxj724SK_24tensor4all_tensorbackend7storageINtB5_11DiagStorageINtCsggbFOsTKhzv_11num_complex7ComplexdEE12to_dense_vecB7_
FNDA:0,_RNvMsa_NtCs75BZxj724SK_24tensor4all_tensorbackend7storageINtB5_11DiagStoragedE12to_dense_vecB7_
FNF:150
FNH:32
DA:42,0
DA:43,0
DA:44,0
DA:46,148
DA:47,148
DA:48,148
DA:50,81
DA:51,81
DA:52,81
DA:54,0
DA:55,0
DA:56,0
DA:58,0
DA:59,0
DA:60,0
DA:62,0
DA:63,0
DA:64,0
DA:66,0
DA:67,0
DA:68,0
DA:70,0
DA:71,0
DA:72,0
DA:74,0
DA:75,0
DA:76,0
DA:78,0
DA:79,0
DA:80,0
DA:84,0
DA:85,0
DA:86,0
DA:88,0
DA:89,0
DA:90,0
DA:94,0
DA:95,0
DA:96,0
DA:100,0
DA:101,0
DA:102,0
DA:107,43
DA:108,43
DA:109,43
DA:110,43
DA:111,0
DA:113,43
DA:114,43
DA:115,43
DA:117,0
DA:118,0
DA:119,0
DA:124,43
DA:125,43
DA:128,43
DA:129,43
DA:132,43
DA:135,43
DA:137,43
DA:138,43
DA:144,26
DA:145,26
DA:146,26
DA:147,26
DA:148,26
DA:149,26
DA:150,26
DA:151,26
DA:152,26
DA:153,26
DA:154,26
DA:156,0
DA:157,0
DA:158,0
DA:161,26
DA:162,26
DA:163,26
DA:165,0
DA:166,0
DA:167,0
DA:174,26
DA:175,26
DA:176,26
DA:177,26
DA:180,42
DA:181,15
DA:183,11
DA:187,32
DA:188,10
DA:190,16
DA:195,26
DA:196,26
DA:197,26
DA:198,26
DA:199,26
DA:200,26
DA:201,26
DA:204,26
DA:205,26
DA:211,0
DA:212,0
DA:213,0
DA:214,0
DA:220,0
DA:221,0
DA:222,0
DA:223,0
DA:224,0
DA:225,0
DA:246,26
DA:247,26
DA:248,26
DA:249,26
DA:250,26
DA:251,26
DA:252,26
DA:253,26
DA:254,26
DA:255,26
DA:262,26
DA:268,26
DA:269,26
DA:271,26
DA:272,26
DA:274,26
DA:275,26
DA:278,26
DA:279,26
DA:280,26
DA:282,0
DA:292,26
DA:293,26
DA:295,26
DA:296,26
DA:297,26
DA:300,26
DA:302,26
DA:303,26
DA:314,52
DA:315,52
DA:316,52
DA:317,52
DA:318,52
DA:319,52
DA:320,52
DA:323,105
DA:325,52
DA:327,26
DA:330,26
DA:334,105
DA:338,52
DA:339,26
DA:341,26
DA:344,52
DA:345,52
DA:352,4
DA:353,4
DA:354,4
DA:356,8
DA:357,8
DA:358,8
DA:360,0
DA:361,0
DA:362,0
DA:364,0
DA:365,0
DA:366,0
DA:368,0
DA:369,0
DA:370,0
DA:372,0
DA:373,0
DA:374,0
DA:378,0
DA:379,0
DA:380,0
DA:384,0
DA:385,0
DA:386,0
DA:392,0
DA:393,0
DA:394,0
DA:395,0
DA:403,0
DA:404,0
DA:405,0
DA:406,0
DA:409,0
DA:410,0
DA:411,0
DA:412,0
DA:415,0
DA:418,0
DA:419,0
DA:420,0
DA:421,0
DA:422,0
DA:425,0
DA:426,0
DA:430,0
DA:431,0
DA:432,0
DA:433,0
DA:434,0
DA:435,0
DA:436,0
DA:437,0
DA:438,0
DA:439,0
DA:440,0
DA:441,0
DA:443,0
DA:445,0
DA:446,0
DA:449,0
DA:450,0
DA:452,0
DA:467,4
DA:468,4
DA:469,4
DA:470,4
DA:471,4
DA:472,4
DA:473,4
DA:474,4
DA:475,4
DA:476,4
DA:477,4
DA:478,4
DA:479,4
DA:480,4
DA:481,4
DA:482,4
DA:483,4
DA:484,4
DA:485,4
DA:487,4
DA:508,4
DA:509,4
DA:510,4
DA:511,4
DA:512,4
DA:513,4
DA:514,4
DA:515,4
DA:516,4
DA:517,4
DA:518,4
DA:519,4
DA:520,4
DA:523,4
DA:524,0
DA:526,4
DA:530,4
DA:531,8
DA:532,4
DA:533,10
DA:534,4
DA:537,4
DA:538,4
DA:541,4
DA:544,4
DA:545,4
DA:546,6
DA:547,4
DA:548,4
DA:549,4
DA:550,0
DA:552,4
DA:556,4
DA:560,4
DA:562,4
DA:565,0
DA:567,0
DA:569,0
DA:572,0
DA:574,0
DA:575,0
DA:576,0
DA:577,0
DA:578,0
DA:579,0
DA:580,0
DA:582,0
DA:586,0
DA:594,4
DA:596,4
DA:598,8
DA:600,8
DA:601,8
DA:604,8
DA:605,8
DA:606,8
DA:610,56
DA:612,56
DA:613,56
DA:614,56
DA:616,96
DA:617,96
DA:618,96
DA:619,96
DA:620,96
DA:621,96
DA:622,96
DA:624,56
DA:628,4
DA:630,4
DA:633,12
DA:634,12
DA:635,0
DA:636,12
DA:637,12
DA:638,14
DA:639,14
DA:640,14
DA:641,12
DA:642,12
DA:650,0
DA:651,0
DA:652,0
DA:653,0
DA:654,0
DA:655,0
DA:656,0
DA:657,0
DA:658,0
DA:659,0
DA:660,0
DA:661,0
DA:662,0
DA:663,0
DA:664,0
DA:667,0
DA:668,0
DA:669,0
DA:670,0
DA:671,0
DA:672,0
DA:673,0
DA:674,0
DA:675,0
DA:676,0
DA:677,0
DA:678,0
DA:679,0
DA:681,0
DA:682,0
DA:683,0
DA:684,0
DA:685,0
DA:686,0
DA:687,0
DA:688,0
DA:689,0
DA:693,0
DA:695,0
DA:696,0
DA:697,0
DA:698,0
DA:699,0
DA:701,0
DA:703,0
DA:724,0
DA:725,0
DA:726,0
DA:730,0
DA:731,0
DA:732,0
DA:743,2
DA:744,2
DA:745,2
DA:746,0
DA:747,0
DA:748,0
DA:750,2
DA:754,0
DA:755,0
DA:756,0
DA:757,0
DA:758,0
DA:759,0
DA:761,0
DA:769,0
DA:770,0
DA:771,0
DA:774,0
DA:775,0
DA:776,0
DA:779,4
DA:780,4
DA:781,4
DA:784,0
DA:785,0
DA:786,0
DA:789,176
DA:790,176
DA:791,176
DA:794,0
DA:795,0
DA:796,0
DA:797,0
DA:798,0
DA:799,0
DA:801,0
DA:804,0
DA:805,0
DA:806,0
DA:809,0
DA:810,0
DA:811,0
DA:814,0
DA:815,0
DA:816,0
DA:822,0
DA:823,0
DA:824,0
DA:825,0
DA:827,0
DA:828,0
DA:830,0
DA:831,0
DA:833,0
DA:834,0
DA:837,0
DA:840,16
DA:841,16
DA:842,16
DA:843,0
DA:845,0
DA:846,0
DA:848,16
DA:852,0
DA:853,0
DA:854,0
DA:855,0
DA:857,0
DA:858,0
DA:860,0
DA:861,0
DA:862,0
DA:864,0
DA:865,0
DA:866,0
DA:869,0
DA:873,0
DA:874,0
DA:877,0
DA:878,0
DA:882,0
DA:883,0
DA:885,0
DA:886,0
DA:887,0
DA:889,0
DA:890,0
DA:891,0
DA:894,0
DA:898,0
DA:899,0
DA:900,0
DA:901,0
DA:902,0
DA:903,0
DA:904,0
DA:905,0
DA:906,0
DA:908,0
DA:909,0
DA:910,0
DA:911,0
DA:912,0
DA:913,0
DA:914,0
DA:916,0
DA:917,0
DA:919,0
DA:920,0
DA:923,0
DA:943,4
DA:944,4
DA:945,4
DA:947,4
DA:949,0
DA:950,0
DA:951,0
DA:953,0
DA:955,0
DA:957,0
DA:958,0
DA:959,0
DA:962,4
DA:967,0
DA:968,0
DA:969,0
DA:970,0
DA:971,0
DA:972,0
DA:973,0
DA:974,0
DA:975,0
DA:976,0
DA:977,0
DA:979,0
DA:980,0
DA:981,0
DA:982,0
DA:983,0
DA:984,0
DA:985,0
DA:986,0
DA:987,0
DA:989,0
DA:991,0
DA:1001,0
DA:1002,0
DA:1003,0
DA:1004,0
DA:1005,0
DA:1006,0
DA:1007,0
DA:1008,0
DA:1009,0
DA:1010,0
DA:1011,0
DA:1012,0
DA:1013,0
DA:1014,0
DA:1015,0
DA:1016,0
DA:1017,0
DA:1019,0
DA:1020,0
DA:1021,0
DA:1022,0
DA:1023,0
DA:1024,0
DA:1025,0
DA:1026,0
DA:1027,0
DA:1028,0
DA:1029,0
DA:1030,0
DA:1031,0
DA:1032,0
DA:1033,0
DA:1035,0
DA:1036,0
DA:1037,0
DA:1038,0
DA:1039,0
DA:1040,0
DA:1041,0
DA:1042,0
DA:1043,0
DA:1044,0
DA:1045,0
DA:1046,0
DA:1047,0
DA:1048,0
DA:1049,0
DA:1051,0
DA:1052,0
DA:1053,0
DA:1054,0
DA:1055,0
DA:1056,0
DA:1057,0
DA:1058,0
DA:1059,0
DA:1060,0
DA:1061,0
DA:1062,0
DA:1063,0
DA:1064,0
DA:1065,0
DA:1067,0
DA:1068,0
DA:1069,0
DA:1070,0
DA:1071,0
DA:1073,0
DA:1078,0
DA:1079,0
DA:1080,0
DA:1081,0
DA:1082,0
DA:1083,0
DA:1084,0
DA:1085,0
DA:1086,0
DA:1087,0
DA:1088,0
DA:1089,0
DA:1090,0
DA:1091,0
DA:1092,0
DA:1093,0
DA:1094,0
DA:1096,0
DA:1097,0
DA:1098,0
DA:1099,0
DA:1100,0
DA:1101,0
DA:1102,0
DA:1103,0
DA:1104,0
DA:1105,0
DA:1106,0
DA:1107,0
DA:1108,0
DA:1109,0
DA:1110,0
DA:1112,0
DA:1113,0
DA:1114,0
DA:1115,0
DA:1116,0
DA:1117,0
DA:1118,0
DA:1119,0
DA:1120,0
DA:1121,0
DA:1122,0
DA:1123,0
DA:1124,0
DA:1125,0
DA:1126,0
DA:1128,0
DA:1129,0
DA:1130,0
DA:1131,0
DA:1132,0
DA:1133,0
DA:1134,0
DA:1135,0
DA:1136,0
DA:1137,0
DA:1138,0
DA:1139,0
DA:1140,0
DA:1141,0
DA:1142,0
DA:1144,0
DA:1145,0
DA:1146,0
DA:1147,0
DA:1148,0
DA:1150,0
DA:1155,0
DA:1157,0
DA:1159,0
DA:1160,0
DA:1161,0
DA:1164,0
DA:1165,0
DA:1166,0
DA:1167,0
DA:1168,0
DA:1169,0
DA:1170,0
DA:1173,0
DA:1174,0
DA:1175,0
DA:1176,0
DA:1177,0
DA:1178,0
DA:1179,0
DA:1182,0
DA:1183,0
DA:1184,0
DA:1187,0
DA:1188,0
DA:1189,0
DA:1191,0
DA:1192,0
DA:1193,0
DA:1194,0
DA:1195,0
DA:1196,0
DA:1197,0
DA:1199,0
DA:1200,0
DA:1201,0
DA:1202,0
DA:1203,0
DA:1204,0
DA:1205,0
DA:1207,0
DA:1208,0
DA:1209,0
DA:1212,0
DA:1218,0
DA:1219,0
DA:1220,0
DA:1221,0
DA:1222,0
DA:1223,0
DA:1227,0
DA:1228,0
DA:1229,0
DA:1230,0
DA:1231,0
DA:1232,0
DA:1233,0
DA:1236,0
DA:1237,0
DA:1238,0
DA:1239,0
DA:1241,0
DA:1243,0
DA:1244,0
DA:1246,0
DA:1247,0
DA:1248,0
DA:1249,0
DA:1250,0
DA:1251,0
DA:1252,0
DA:1253,0
DA:1254,0
DA:1255,0
DA:1256,0
DA:1257,0
DA:1258,0
DA:1259,0
DA:1260,0
DA:1261,0
DA:1262,0
DA:1263,0
DA:1264,0
DA:1265,0
DA:1266,0
DA:1267,0
DA:1268,0
DA:1269,0
DA:1270,0
DA:1272,0
DA:1273,0
DA:1274,0
DA:1275,0
DA:1276,0
DA:1279,0
DA:1282,0
DA:1283,0
DA:1284,0
DA:1286,0
DA:1287,0
DA:1288,0
DA:1291,0
DA:1292,0
DA:1293,0
DA:1294,0
DA:1295,0
DA:1296,0
DA:1297,0
DA:1298,0
DA:1299,0
DA:1301,0
DA:1302,0
DA:1303,0
DA:1304,0
DA:1305,0
DA:1306,0
DA:1307,0
DA:1308,0
DA:1310,0
DA:1311,0
DA:1312,0
DA:1313,0
DA:1314,0
DA:1317,0
DA:1321,0
DA:1322,0
DA:1323,0
DA:1327,0
DA:1328,0
DA:1329,0
DA:1352,30
DA:1353,30
DA:1354,30
DA:1355,30
DA:1356,30
DA:1357,30
DA:1358,30
DA:1359,30
DA:1360,30
DA:1362,30
DA:1363,29
DA:1364,29
DA:1365,0
DA:1366,0
DA:1370,30
DA:1372,26
DA:1373,26
DA:1375,0
DA:1376,0
DA:1379,0
DA:1380,0
DA:1381,0
DA:1382,0
DA:1383,0
DA:1384,0
DA:1385,0
DA:1387,0
DA:1388,0
DA:1389,0
DA:1390,0
DA:1391,0
DA:1392,0
DA:1393,0
DA:1400,0
DA:1401,0
DA:1404,0
DA:1405,0
DA:1406,0
DA:1407,0
DA:1408,0
DA:1409,0
DA:1410,0
DA:1411,0
DA:1415,0
DA:1416,0
DA:1417,0
DA:1418,0
DA:1419,0
DA:1420,0
DA:1421,0
DA:1422,0
DA:1427,0
DA:1428,0
DA:1429,0
DA:1436,0
DA:1437,0
DA:1440,0
DA:1441,0
DA:1442,0
DA:1443,0
DA:1444,0
DA:1445,0
DA:1446,0
DA:1447,0
DA:1451,0
DA:1452,0
DA:1453,0
DA:1454,0
DA:1455,0
DA:1456,0
DA:1457,0
DA:1458,0
DA:1462,0
DA:1463,0
DA:1464,0
DA:1465,0
DA:1469,4
DA:1470,4
DA:1471,4
DA:1472,4
DA:1474,0
DA:1475,0
DA:1476,0
DA:1477,0
DA:1481,0
DA:1482,0
DA:1483,0
DA:1484,0
DA:1485,0
DA:1486,0
DA:1487,0
DA:1488,0
DA:1489,0
DA:1490,0
DA:1492,0
DA:1493,0
DA:1494,0
DA:1495,0
DA:1496,0
DA:1497,0
DA:1498,0
DA:1499,0
DA:1500,0
DA:1501,0
DA:1505,0
DA:1507,0
DA:1508,0
DA:1509,0
DA:1510,0
DA:1511,0
DA:1512,0
DA:1513,0
DA:1514,0
DA:1515,0
DA:1518,0
DA:1520,0
DA:1521,0
DA:1522,0
DA:1523,0
DA:1524,0
DA:1525,0
DA:1526,0
DA:1527,0
DA:1528,0
DA:1529,0
DA:1530,0
DA:1533,0
DA:1535,0
DA:1536,0
DA:1537,0
DA:1538,0
DA:1539,0
DA:1540,0
DA:1541,0
DA:1542,0
DA:1543,0
DA:1546,0
DA:1548,0
DA:1549,0
DA:1550,0
DA:1551,0
DA:1552,0
DA:1553,0
DA:1554,0
DA:1555,0
DA:1556,0
DA:1557,0
DA:1558,0
DA:1562,30
DA:1565,0
DA:1566,0
DA:1567,0
DA:1568,0
DA:1569,0
DA:1570,0
DA:1572,0
DA:1575,0
DA:1576,0
DA:1577,0
DA:1578,0
DA:1579,0
DA:1580,0
DA:1581,0
DA:1583,0
DA:1607,16
DA:1608,16
DA:1609,16
DA:1614,16
DA:1615,16
DA:1616,16
DA:1638,16
DA:1639,16
DA:1640,16
DA:1641,16
DA:1643,16
DA:1646,16
DA:1647,16
DA:1648,0
DA:1649,0
DA:1650,0
DA:1651,0
DA:1652,0
DA:1653,16
DA:1656,16
DA:1657,16
DA:1658,16
DA:1661,16
DA:1662,16
DA:1663,16
DA:1664,0
DA:1666,16
DA:1668,64
DA:1669,64
DA:1670,64
DA:1674,0
DA:1675,0
DA:1676,0
DA:1677,0
DA:1679,0
DA:1681,0
DA:1682,0
DA:1683,0
DA:1700,0
DA:1701,0
DA:1702,0
DA:1703,0
DA:1704,0
DA:1705,0
DA:1706,0
DA:1707,0
DA:1708,0
DA:1709,0
DA:1710,0
DA:1712,0
DA:1713,0
DA:1714,0
DA:1715,0
DA:1716,0
DA:1717,0
DA:1718,0
DA:1719,0
DA:1720,0
DA:1722,0
DA:1723,0
DA:1724,0
DA:1725,0
DA:1726,0
DA:1727,0
DA:1728,0
DA:1729,0
DA:1730,0
DA:1732,0
DA:1733,0
DA:1734,0
DA:1735,0
DA:1736,0
DA:1737,0
DA:1738,0
DA:1739,0
DA:1740,0
DA:1742,0
DA:1744,0
DA:1752,0
DA:1753,0
DA:1754,0
DA:1755,0
DA:1756,0
DA:1758,0
DA:1759,0
DA:1760,0
DA:1761,0
DA:1762,0
DA:1763,0
DA:1764,0
DA:1766,0
DA:1767,0
DA:1768,0
DA:1770,0
DA:1771,0
DA:1772,0
DA:1773,0
DA:1774,0
DA:1775,0
DA:1776,0
DA:1779,0
DA:1786,0
DA:1787,0
DA:1788,0
DA:1790,0
DA:1791,0
DA:1792,0
DA:1793,0
DA:1794,0
DA:1795,0
DA:1797,0
DA:1798,0
DA:1799,0
DA:1801,0
DA:1803,0
DA:1804,0
DA:1805,0
DA:1806,0
DA:1807,0
DA:1808,0
DA:1810,0
DA:1811,0
DA:1812,0
DA:1815,0
DA:1823,0
DA:1824,0
DA:1825,0
DA:1826,0
DA:1828,0
BRF:0
BRH:0
LF:1134
LH:262
end_of_record
SF:/Users/ken/git_for_collab4/tensor4all-rs/crates/tensor4all-tensorci/src/cached_function.rs
FN:63,_RNCNvMNtCs2C1VqCpCGCJ_19tensor4all_tensorci15cached_functionINtB4_10InnerCachepE14flat_index_u640B6_
FN:67,_RNCNvMNtCs2C1VqCpCGCJ_19tensor4all_tensorci15cached_functionINtB4_10InnerCachepE15flat_index_u1280B6_
FN:24,_RNCNvMNtCs2C1VqCpCGCJ_19tensor4all_tensorci15cached_functionINtB4_10InnerCachepE3new0B6_
FN:123,_RNvMNtCs2C1VqCpCGCJ_19tensor4all_tensorci15cached_functionINtB2_10InnerCachepE13key_type_nameB4_
FN:62,_RNvMNtCs2C1VqCpCGCJ_19tensor4all_tensorci15cached_functionINtB2_10InnerCachepE14flat_index_u64B4_
FN:66,_RNvMNtCs2C1VqCpCGCJ_19tensor4all_tensorci15cached_functionINtB2_10InnerCachepE15flat_index_u128B4_
FN:42,_RNvMNtCs2C1VqCpCGCJ_19tensor4all_tensorci15cached_functionINtB2_10InnerCachepE18compute_coeffs_u64B4_
FN:52,_RNvMNtCs2C1VqCpCGCJ_19tensor4all_tensorci15cached_functionINtB2_10InnerCachepE19compute_coeffs_u128B4_
FN:70,_RNvMNtCs2C1VqCpCGCJ_19tensor4all_tensorci15cached_functionINtB2_10InnerCachepE3getB4_
FN:109,_RNvMNtCs2C1VqCpCGCJ_19tensor4all_tensorci15cached_functionINtB2_10InnerCachepE3lenB4_
FN:21,_RNvMNtCs2C1VqCpCGCJ_19tensor4all_tensorci15cached_functionINtB2_10InnerCachepE3newB4_
FN:116,_RNvMNtCs2C1VqCpCGCJ_19tensor4all_tensorci15cached_functionINtB2_10InnerCachepE5clearB4_
FN:83,_RNvMNtCs2C1VqCpCGCJ_19tensor4all_tensorci15cached_functionINtB2_10InnerCachepE6insertB4_
FN:96,_RNvMNtCs2C1VqCpCGCJ_19tensor4all_tensorci15cached_functionINtB2_10InnerCachepE8containsB4_
FN:225,_RNvMs_NtCs2C1VqCpCGCJ_19tensor4all_tensorci15cached_functionINtB4_14CachedFunctionppE10cache_sizeB6_
FN:185,_RNvMs_NtCs2C1VqCpCGCJ_19tensor4all_tensorci15cached_functionINtB4_14CachedFunctionppE10local_dimsB6_
FN:220,_RNvMs_NtCs2C1VqCpCGCJ_19tensor4all_tensorci15cached_functionINtB4_14CachedFunctionppE11clear_cacheB6_
FN:205,_RNvMs_NtCs2C1VqCpCGCJ_19tensor4all_tensorci15cached_functionINtB4_14CachedFunctionppE11total_callsB6_
FN:180,_RNvMs_NtCs2C1VqCpCGCJ_19tensor4all_tensorci15cached_functionINtB4_14CachedFunctionppE13eval_no_cacheB6_
FN:200,_RNvMs_NtCs2C1VqCpCGCJ_19tensor4all_tensorci15cached_functionINtB4_14CachedFunctionppE14num_cache_hitsB6_
FN:210,_RNvMs_NtCs2C1VqCpCGCJ_19tensor4all_tensorci15cached_functionINtB4_14CachedFunctionppE15cache_hit_ratioB6_
FN:156,_RNvMs_NtCs2C1VqCpCGCJ_19tensor4all_tensorci15cached_functionINtB4_14CachedFunctionppE3newB6_
FN:167,_RNvMs_NtCs2C1VqCpCGCJ_19tensor4all_tensorci15cached_functionINtB4_14CachedFunctionppE4evalB6_
FN:235,_RNvMs_NtCs2C1VqCpCGCJ_19tensor4all_tensorci15cached_functionINtB4_14CachedFunctionppE8key_typeB6_
FN:230,_RNvMs_NtCs2C1VqCpCGCJ_19tensor4all_tensorci15cached_functionINtB4_14CachedFunctionppE9is_cachedB6_
FN:195,_RNvMs_NtCs2C1VqCpCGCJ_19tensor4all_tensorci15cached_functionINtB4_14CachedFunctionppE9num_evalsB6_
FN:190,_RNvMs_NtCs2C1VqCpCGCJ_19tensor4all_tensorci15cached_functionINtB4_14CachedFunctionppE9num_sitesB6_
FNDA:0,_RNCNvMNtCs2C1VqCpCGCJ_19tensor4all_tensorci15cached_functionINtB4_10InnerCachepE14flat_index_u640B6_
FNDA:0,_RNCNvMNtCs2C1VqCpCGCJ_19tensor4all_tensorci15cached_functionINtB4_10InnerCachepE15flat_index_u1280B6_
FNDA:0,_RNCNvMNtCs2C1VqCpCGCJ_19tensor4all_tensorci15cached_functionINtB4_10InnerCachepE3new0B6_
FNDA:0,_RNvMNtCs2C1VqCpCGCJ_19tensor4all_tensorci15cached_functionINtB2_10InnerCachepE13key_type_nameB4_
FNDA:0,_RNvMNtCs2C1VqCpCGCJ_19tensor4all_tensorci15cached_functionINtB2_10InnerCachepE14flat_index_u64B4_
FNDA:0,_RNvMNtCs2C1VqCpCGCJ_19tensor4all_tensorci15cached_functionINtB2_10InnerCachepE15flat_index_u128B4_
FNDA:0,_RNvMNtCs2C1VqCpCGCJ_19tensor4all_tensorci15cached_functionINtB2_10InnerCachepE18compute_coeffs_u64B4_
FNDA:0,_RNvMNtCs2C1VqCpCGCJ_19tensor4all_tensorci15cached_functionINtB2_10InnerCachepE19compute_coeffs_u128B4_
FNDA:0,_RNvMNtCs2C1VqCpCGCJ_19tensor4all_tensorci15cached_functionINtB2_10InnerCachepE3getB4_
FNDA:0,_RNvMNtCs2C1VqCpCGCJ_19tensor4all_tensorci15cached_functionINtB2_10InnerCachepE3lenB4_
FNDA:0,_RNvMNtCs2C1VqCpCGCJ_19tensor4all_tensorci15cached_functionINtB2_10InnerCachepE3newB4_
FNDA:0,_RNvMNtCs2C1VqCpCGCJ_19tensor4all_tensorci15cached_functionINtB2_10InnerCachepE5clearB4_
FNDA:0,_RNvMNtCs2C1VqCpCGCJ_19tensor4all_tensorci15cached_functionINtB2_10InnerCachepE6insertB4_
FNDA:0,_RNvMNtCs2C1VqCpCGCJ_19tensor4all_tensorci15cached_functionINtB2_10InnerCachepE8containsB4_
FNDA:0,_RNvMs_NtCs2C1VqCpCGCJ_19tensor4all_tensorci15cached_functionINtB4_14CachedFunctionppE10cache_sizeB6_
FNDA:0,_RNvMs_NtCs2C1VqCpCGCJ_19tensor4all_tensorci15cached_functionINtB4_14CachedFunctionppE10local_dimsB6_
FNDA:0,_RNvMs_NtCs2C1VqCpCGCJ_19tensor4all_tensorci15cached_functionINtB4_14CachedFunctionppE11clear_cacheB6_
FNDA:0,_RNvMs_NtCs2C1VqCpCGCJ_19tensor4all_tensorci15cached_functionINtB4_14CachedFunctionppE11total_callsB6_
FNDA:0,_RNvMs_NtCs2C1VqCpCGCJ_19tensor4all_tensorci15cached_functionINtB4_14CachedFunctionppE13eval_no_cacheB6_
FNDA:0,_RNvMs_NtCs2C1VqCpCGCJ_19tensor4all_tensorci15cached_functionINtB4_14CachedFunctionppE14num_cache_hitsB6_
FNDA:0,_RNvMs_NtCs2C1VqCpCGCJ_19tensor4all_tensorci15cached_functionINtB4_14CachedFunctionppE15cache_hit_ratioB6_
FNDA:0,_RNvMs_NtCs2C1VqCpCGCJ_19tensor4all_tensorci15cached_functionINtB4_14CachedFunctionppE3newB6_
FNDA:0,_RNvMs_NtCs2C1VqCpCGCJ_19tensor4all_tensorci15cached_functionINtB4_14CachedFunctionppE4evalB6_
FNDA:0,_RNvMs_NtCs2C1VqCpCGCJ_19tensor4all_tensorci15cached_functionINtB4_14CachedFunctionppE8key_typeB6_
FNDA:0,_RNvMs_NtCs2C1VqCpCGCJ_19tensor4all_tensorci15cached_functionINtB4_14CachedFunctionppE9is_cachedB6_
FNDA:0,_RNvMs_NtCs2C1VqCpCGCJ_19tensor4all_tensorci15cached_functionINtB4_14CachedFunctionppE9num_evalsB6_
FNDA:0,_RNvMs_NtCs2C1VqCpCGCJ_19tensor4all_tensorci15cached_functionINtB4_14CachedFunctionppE9num_sitesB6_
FNF:27
FNH:0
DA:21,0
DA:22,0
DA:23,0
DA:24,0
DA:25,0
DA:27,0
DA:28,0
DA:29,0
DA:30,0
DA:31,0
DA:32,0
DA:34,0
DA:35,0
DA:36,0
DA:37,0
DA:38,0
DA:40,0
DA:42,0
DA:43,0
DA:44,0
DA:45,0
DA:46,0
DA:47,0
DA:48,0
DA:49,0
DA:50,0
DA:52,0
DA:53,0
DA:54,0
DA:55,0
DA:56,0
DA:57,0
DA:58,0
DA:59,0
DA:60,0
DA:62,0
DA:63,0
DA:64,0
DA:66,0
DA:67,0
DA:68,0
DA:70,0
DA:71,0
DA:72,0
DA:73,0
DA:74,0
DA:76,0
DA:77,0
DA:78,0
DA:81,0
DA:83,0
DA:84,0
DA:85,0
DA:86,0
DA:87,0
DA:88,0
DA:89,0
DA:90,0
DA:91,0
DA:92,0
DA:94,0
DA:96,0
DA:97,0
DA:98,0
DA:99,0
DA:100,0
DA:102,0
DA:103,0
DA:104,0
DA:107,0
DA:109,0
DA:110,0
DA:111,0
DA:112,0
DA:114,0
DA:116,0
DA:117,0
DA:118,0
DA:119,0
DA:121,0
DA:123,0
DA:124,0
DA:125,0
DA:126,0
DA:128,0
DA:156,0
DA:157,0
DA:158,0
DA:159,0
DA:160,0
DA:161,0
DA:162,0
DA:163,0
DA:164,0
DA:167,0
DA:168,0
DA:169,0
DA:170,0
DA:171,0
DA:173,0
DA:174,0
DA:175,0
DA:176,0
DA:177,0
DA:180,0
DA:181,0
DA:182,0
DA:185,0
DA:186,0
DA:187,0
DA:190,0
DA:191,0
DA:192,0
DA:195,0
DA:196,0
DA:197,0
DA:200,0
DA:201,0
DA:202,0
DA:205,0
DA:206,0
DA:207,0
DA:210,0
DA:211,0
DA:212,0
DA:213,0
DA:215,0
DA:217,0
DA:220,0
DA:221,0
DA:222,0
DA:225,0
DA:226,0
DA:227,0
DA:230,0
DA:231,0
DA:232,0
DA:235,0
DA:236,0
DA:237,0
BRF:0
BRH:0
LF:143
LH:0
end_of_record
SF:/Users/ken/git_for_collab4/tensor4all-rs/crates/tensor4all-tensorci/src/indexset.rs
FN:37,_RNCNvMs_NtCs2C1VqCpCGCJ_19tensor4all_tensorci8indexsetINtB6_8IndexSetpE8from_vec0B8_
FN:57,_RNCNvMs_NtCs2C1VqCpCGCJ_19tensor4all_tensorci8indexsetINtB6_8IndexSetpE9positions0B8_
FN:46,_RNvMs_NtCs2C1VqCpCGCJ_19tensor4all_tensorci8indexsetINtB4_8IndexSetpE3getB6_
FN:73,_RNvMs_NtCs2C1VqCpCGCJ_19tensor4all_tensorci8indexsetINtB4_8IndexSetpE3lenB6_
FN:25,_RNvMs_NtCs2C1VqCpCGCJ_19tensor4all_tensorci8indexsetINtB4_8IndexSetpE3newB6_
FN:51,_RNvMs_NtCs2C1VqCpCGCJ_19tensor4all_tensorci8indexsetINtB4_8IndexSetpE3posB6_
FN:83,_RNvMs_NtCs2C1VqCpCGCJ_19tensor4all_tensorci8indexsetINtB4_8IndexSetpE4iterB6_
FN:61,_RNvMs_NtCs2C1VqCpCGCJ_19tensor4all_tensorci8indexsetINtB4_8IndexSetpE4pushB6_
FN:88,_RNvMs_NtCs2C1VqCpCGCJ_19tensor4all_tensorci8indexsetINtB4_8IndexSetpE6valuesB6_
FN:68,_RNvMs_NtCs2C1VqCpCGCJ_19tensor4all_tensorci8indexsetINtB4_8IndexSetpE8containsB6_
FN:33,_RNvMs_NtCs2C1VqCpCGCJ_19tensor4all_tensorci8indexsetINtB4_8IndexSetpE8from_vecB6_
FN:78,_RNvMs_NtCs2C1VqCpCGCJ_19tensor4all_tensorci8indexsetINtB4_8IndexSetpE8is_emptyB6_
FN:56,_RNvMs_NtCs2C1VqCpCGCJ_19tensor4all_tensorci8indexsetINtB4_8IndexSetpE9positionsB6_
FN:18,_RNvXININtCs2C1VqCpCGCJ_19tensor4all_tensorci8indexset0pEINtB5_8IndexSetpENtNtCskzPJi2J8k3N_4core7default7Default7defaultB7_
FN:96,_RNvXININtCs2C1VqCpCGCJ_19tensor4all_tensorci8indexsets0_0pEINtB5_8IndexSetpEINtNtNtCskzPJi2J8k3N_4core3ops5index5IndexjE5indexB7_
FN:105,_RNvXININtCs2C1VqCpCGCJ_19tensor4all_tensorci8indexsets1_0pEINtB5_8IndexSetpENtNtNtNtCskzPJi2J8k3N_4core4iter6traits7collect12IntoIterator9into_iterB7_
FN:114,_RNvXININtCs2C1VqCpCGCJ_19tensor4all_tensorci8indexsets2_0pERINtB5_8IndexSetpENtNtNtNtCskzPJi2J8k3N_4core4iter6traits7collect12IntoIterator9into_iterB7_
FNDA:0,_RNCNvMs_NtCs2C1VqCpCGCJ_19tensor4all_tensorci8indexsetINtB6_8IndexSetpE8from_vec0B8_
FNDA:0,_RNCNvMs_NtCs2C1VqCpCGCJ_19tensor4all_tensorci8indexsetINtB6_8IndexSetpE9positions0B8_
FNDA:0,_RNvMs_NtCs2C1VqCpCGCJ_19tensor4all_tensorci8indexsetINtB4_8IndexSetpE3getB6_
FNDA:0,_RNvMs_NtCs2C1VqCpCGCJ_19tensor4all_tensorci8indexsetINtB4_8IndexSetpE3lenB6_
FNDA:0,_RNvMs_NtCs2C1VqCpCGCJ_19tensor4all_tensorci8indexsetINtB4_8IndexSetpE3newB6_
FNDA:0,_RNvMs_NtCs2C1VqCpCGCJ_19tensor4all_tensorci8indexsetINtB4_8IndexSetpE3posB6_
FNDA:0,_RNvMs_NtCs2C1VqCpCGCJ_19tensor4all_tensorci8indexsetINtB4_8IndexSetpE4iterB6_
FNDA:0,_RNvMs_NtCs2C1VqCpCGCJ_19tensor4all_tensorci8indexsetINtB4_8IndexSetpE4pushB6_
FNDA:0,_RNvMs_NtCs2C1VqCpCGCJ_19tensor4all_tensorci8indexsetINtB4_8IndexSetpE6valuesB6_
FNDA:0,_RNvMs_NtCs2C1VqCpCGCJ_19tensor4all_tensorci8indexsetINtB4_8IndexSetpE8containsB6_
FNDA:0,_RNvMs_NtCs2C1VqCpCGCJ_19tensor4all_tensorci8indexsetINtB4_8IndexSetpE8from_vecB6_
FNDA:0,_RNvMs_NtCs2C1VqCpCGCJ_19tensor4all_tensorci8indexsetINtB4_8IndexSetpE8is_emptyB6_
FNDA:0,_RNvMs_NtCs2C1VqCpCGCJ_19tensor4all_tensorci8indexsetINtB4_8IndexSetpE9positionsB6_
FNDA:0,_RNvXININtCs2C1VqCpCGCJ_19tensor4all_tensorci8indexset0pEINtB5_8IndexSetpENtNtCskzPJi2J8k3N_4core7default7Default7defaultB7_
FNDA:0,_RNvXININtCs2C1VqCpCGCJ_19tensor4all_tensorci8indexsets0_0pEINtB5_8IndexSetpEINtNtNtCskzPJi2J8k3N_4core3ops5index5IndexjE5indexB7_
FNDA:0,_RNvXININtCs2C1VqCpCGCJ_19tensor4all_tensorci8indexsets1_0pEINtB5_8IndexSetpENtNtNtNtCskzPJi2J8k3N_4core4iter6traits7collect12IntoIterator9into_iterB7_
FNDA:0,_RNvXININtCs2C1VqCpCGCJ_19tensor4all_tensorci8indexsets2_0pERINtB5_8IndexSetpENtNtNtNtCskzPJi2J8k3N_4core4iter6traits7collect12IntoIterator9into_iterB7_
FNF:17
FNH:0
DA:18,0
DA:19,0
DA:20,0
DA:25,0
DA:26,0
DA:27,0
DA:28,0
DA:29,0
DA:30,0
DA:33,0
DA:34,0
DA:35,0
DA:36,0
DA:37,0
DA:38,0
DA:39,0
DA:40,0
DA:41,0
DA:42,0
DA:43,0
DA:46,0
DA:47,0
DA:48,0
DA:51,0
DA:52,0
DA:53,0
DA:56,0
DA:57,0
DA:58,0
DA:61,0
DA:62,0
DA:63,0
DA:64,0
DA:65,0
DA:68,0
DA:69,0
DA:70,0
DA:73,0
DA:74,0
DA:75,0
DA:78,0
DA:79,0
DA:80,0
DA:83,0
DA:84,0
DA:85,0
DA:88,0
DA:89,0
DA:90,0
DA:96,0
DA:97,0
DA:98,0
DA:105,0
DA:106,0
DA:107,0
DA:114,0
DA:115,0
DA:116,0
BRF:0
BRH:0
LF:60
LH:0
end_of_record
SF:/Users/ken/git_for_collab4/tensor4all-rs/crates/tensor4all-tensorci/src/tensorci1.rs
FN:539,_RINvMs_NtCs2C1VqCpCGCJ_19tensor4all_tensorci9tensorci1INtB5_9TensorCI1pE13add_pivot_colpEB7_
FN:500,_RINvMs_NtCs2C1VqCpCGCJ_19tensor4all_tensorci9tensorci1INtB5_9TensorCI1pE13add_pivot_rowpEB7_
FN:443,_RINvMs_NtCs2C1VqCpCGCJ_19tensor4all_tensorci9tensorci1INtB5_9TensorCI1pE14update_pi_colspEB7_
FN:383,_RINvMs_NtCs2C1VqCpCGCJ_19tensor4all_tensorci9tensorci1INtB5_9TensorCI1pE14update_pi_rowspEB7_
FN:636,_RINvMs_NtCs2C1VqCpCGCJ_19tensor4all_tensorci9tensorci1INtB5_9TensorCI1pE21initialize_from_pivotpEB7_
FN:362,_RINvMs_NtCs2C1VqCpCGCJ_19tensor4all_tensorci9tensorci1INtB5_9TensorCI1pE6get_pipEB7_
FN:597,_RINvMs_NtCs2C1VqCpCGCJ_19tensor4all_tensorci9tensorci1INtB5_9TensorCI1pE9add_pivotpEB7_
FN:861,_RINvNtCs2C1VqCpCGCJ_19tensor4all_tensorci9tensorci117crossinterpolate1ppEB4_
FN:807,_RINvNtCs2C1VqCpCGCJ_19tensor4all_tensorci9tensorci117matrix_to_tensor3pEB4_
FN:737,_RINvNtCs2C1VqCpCGCJ_19tensor4all_tensorci9tensorci117row_matrix_to_vecpEB4_
FN:742,_RINvNtCs2C1VqCpCGCJ_19tensor4all_tensorci9tensorci117tensor3_to_matrixpEB4_
FN:728,_RINvNtCs2C1VqCpCGCJ_19tensor4all_tensorci9tensorci117vec_to_col_matrixpEB4_
FN:719,_RINvNtCs2C1VqCpCGCJ_19tensor4all_tensorci9tensorci117vec_to_row_matrixpEB4_
FN:761,_RINvNtCs2C1VqCpCGCJ_19tensor4all_tensorci9tensorci122tensor3_to_matrix_colspEB4_
FN:784,_RINvNtCs2C1VqCpCGCJ_19tensor4all_tensorci9tensorci122tensor3_to_matrix_rowspEB4_
FN:455,_RNCINvMs_NtCs2C1VqCpCGCJ_19tensor4all_tensorci9tensorci1INtB7_9TensorCI1pE14update_pi_colspE0B9_
FN:494,_RNCINvMs_NtCs2C1VqCpCGCJ_19tensor4all_tensorci9tensorci1INtB7_9TensorCI1pE14update_pi_colspEs0_0B9_
FN:480,_RNCINvMs_NtCs2C1VqCpCGCJ_19tensor4all_tensorci9tensorci1INtB7_9TensorCI1pE14update_pi_colspEs_0B9_
FN:395,_RNCINvMs_NtCs2C1VqCpCGCJ_19tensor4all_tensorci9tensorci1INtB7_9TensorCI1pE14update_pi_rowspE0B9_
FN:437,_RNCINvMs_NtCs2C1VqCpCGCJ_19tensor4all_tensorci9tensorci1INtB7_9TensorCI1pE14update_pi_rowspEs0_0B9_
FN:420,_RNCINvMs_NtCs2C1VqCpCGCJ_19tensor4all_tensorci9tensorci1INtB7_9TensorCI1pE14update_pi_rowspEs_0B9_
FN:688,_RNCINvMs_NtCs2C1VqCpCGCJ_19tensor4all_tensorci9tensorci1INtB7_9TensorCI1pE21initialize_from_pivotpE0B9_
FN:696,_RNCINvMs_NtCs2C1VqCpCGCJ_19tensor4all_tensorci9tensorci1INtB7_9TensorCI1pE21initialize_from_pivotpEs_0B9_
FN:738,_RNCINvNtCs2C1VqCpCGCJ_19tensor4all_tensorci9tensorci117row_matrix_to_vecpE0B6_
FN:185,_RNCNvMs_NtCs2C1VqCpCGCJ_19tensor4all_tensorci9tensorci1INtB6_9TensorCI1pE12site_tensors0B8_
FN:94,_RNCNvMs_NtCs2C1VqCpCGCJ_19tensor4all_tensorci9tensorci1INtB6_9TensorCI1pE3new0B8_
FN:97,_RNCNvMs_NtCs2C1VqCpCGCJ_19tensor4all_tensorci9tensorci1INtB6_9TensorCI1pE3news0_0B8_
FN:98,_RNCNvMs_NtCs2C1VqCpCGCJ_19tensor4all_tensorci9tensorci1INtB6_9TensorCI1pE3news1_0B8_
FN:99,_RNCNvMs_NtCs2C1VqCpCGCJ_19tensor4all_tensorci9tensorci1INtB6_9TensorCI1pE3news2_0B8_
FN:100,_RNCNvMs_NtCs2C1VqCpCGCJ_19tensor4all_tensorci9tensorci1INtB6_9TensorCI1pE3news3_0B8_
FN:101,_RNCNvMs_NtCs2C1VqCpCGCJ_19tensor4all_tensorci9tensorci1INtB6_9TensorCI1pE3news4_0B8_
FN:102,_RNCNvMs_NtCs2C1VqCpCGCJ_19tensor4all_tensorci9tensorci1INtB6_9TensorCI1pE3news5_0B8_
FN:95,_RNCNvMs_NtCs2C1VqCpCGCJ_19tensor4all_tensorci9tensorci1INtB6_9TensorCI1pE3news_0B8_
FN:135,_RNCNvMs_NtCs2C1VqCpCGCJ_19tensor4all_tensorci9tensorci1INtB6_9TensorCI1pE4rank0B8_
FN:148,_RNCNvMs_NtCs2C1VqCpCGCJ_19tensor4all_tensorci9tensorci1INtB6_9TensorCI1pE9link_dims0B8_
FN:119,_RNvMs_NtCs2C1VqCpCGCJ_19tensor4all_tensorci9tensorci1INtB4_9TensorCI1pE10local_dimsB6_
FN:158,_RNvMs_NtCs2C1VqCpCGCJ_19tensor4all_tensorci9tensorci1INtB4_9TensorCI1pE11site_tensorB6_
FN:334,_RNvMs_NtCs2C1VqCpCGCJ_19tensor4all_tensorci9tensorci1INtB4_9TensorCI1pE12get_pi_i_setB6_
FN:348,_RNvMs_NtCs2C1VqCpCGCJ_19tensor4all_tensorci9tensorci1INtB4_9TensorCI1pE12get_pi_j_setB6_
FN:184,_RNvMs_NtCs2C1VqCpCGCJ_19tensor4all_tensorci9tensorci1INtB4_9TensorCI1pE12site_tensorsB6_
FN:189,_RNvMs_NtCs2C1VqCpCGCJ_19tensor4all_tensorci9tensorci1INtB4_9TensorCI1pE15to_tensor_trainB6_
FN:578,_RNvMs_NtCs2C1VqCpCGCJ_19tensor4all_tensorci9tensorci1INtB4_9TensorCI1pE15update_p_matrixB6_
FN:195,_RNvMs_NtCs2C1VqCpCGCJ_19tensor4all_tensorci9tensorci1INtB4_9TensorCI1pE16max_sample_valueB6_
FN:200,_RNvMs_NtCs2C1VqCpCGCJ_19tensor4all_tensorci9tensorci1INtB4_9TensorCI1pE17update_max_sampleB6_
FN:153,_RNvMs_NtCs2C1VqCpCGCJ_19tensor4all_tensorci9tensorci1INtB4_9TensorCI1pE22last_sweep_pivot_errorB6_
FN:210,_RNvMs_NtCs2C1VqCpCGCJ_19tensor4all_tensorci9tensorci1INtB4_9TensorCI1pE24update_max_sample_matrixB6_
FN:109,_RNvMs_NtCs2C1VqCpCGCJ_19tensor4all_tensorci9tensorci1INtB4_9TensorCI1pE3lenB6_
FN:91,_RNvMs_NtCs2C1VqCpCGCJ_19tensor4all_tensorci9tensorci1INtB4_9TensorCI1pE3newB6_
FN:124,_RNvMs_NtCs2C1VqCpCGCJ_19tensor4all_tensorci9tensorci1INtB4_9TensorCI1pE4rankB6_
FN:323,_RNvMs_NtCs2C1VqCpCGCJ_19tensor4all_tensorci9tensorci1INtB4_9TensorCI1pE5i_setB6_
FN:328,_RNvMs_NtCs2C1VqCpCGCJ_19tensor4all_tensorci9tensorci1INtB4_9TensorCI1pE5j_setB6_
FN:223,_RNvMs_NtCs2C1VqCpCGCJ_19tensor4all_tensorci9tensorci1INtB4_9TensorCI1pE8evaluateB6_
FN:114,_RNvMs_NtCs2C1VqCpCGCJ_19tensor4all_tensorci9tensorci1INtB4_9TensorCI1pE8is_emptyB6_
FN:141,_RNvMs_NtCs2C1VqCpCGCJ_19tensor4all_tensorci9tensorci1INtB4_9TensorCI1pE9link_dimsB6_
FNDA:0,_RINvMs_NtCs2C1VqCpCGCJ_19tensor4all_tensorci9tensorci1INtB5_9TensorCI1pE13add_pivot_colpEB7_
FNDA:0,_RINvMs_NtCs2C1VqCpCGCJ_19tensor4all_tensorci9tensorci1INtB5_9TensorCI1pE13add_pivot_rowpEB7_
FNDA:0,_RINvMs_NtCs2C1VqCpCGCJ_19tensor4all_tensorci9tensorci1INtB5_9TensorCI1pE14update_pi_colspEB7_
FNDA:0,_RINvMs_NtCs2C1VqCpCGCJ_19tensor4all_tensorci9tensorci1INtB5_9TensorCI1pE14update_pi_rowspEB7_
FNDA:0,_RINvMs_NtCs2C1VqCpCGCJ_19tensor4all_tensorci9tensorci1INtB5_9TensorCI1pE21initialize_from_pivotpEB7_
FNDA:0,_RINvMs_NtCs2C1VqCpCGCJ_19tensor4all_tensorci9tensorci1INtB5_9TensorCI1pE6get_pipEB7_
FNDA:0,_RINvMs_NtCs2C1VqCpCGCJ_19tensor4all_tensorci9tensorci1INtB5_9TensorCI1pE9add_pivotpEB7_
FNDA:0,_RINvNtCs2C1VqCpCGCJ_19tensor4all_tensorci9tensorci117crossinterpolate1ppEB4_
FNDA:0,_RINvNtCs2C1VqCpCGCJ_19tensor4all_tensorci9tensorci117matrix_to_tensor3pEB4_
FNDA:0,_RINvNtCs2C1VqCpCGCJ_19tensor4all_tensorci9tensorci117row_matrix_to_vecpEB4_
FNDA:0,_RINvNtCs2C1VqCpCGCJ_19tensor4all_tensorci9tensorci117tensor3_to_matrixpEB4_
FNDA:0,_RINvNtCs2C1VqCpCGCJ_19tensor4all_tensorci9tensorci117vec_to_col_matrixpEB4_
FNDA:0,_RINvNtCs2C1VqCpCGCJ_19tensor4all_tensorci9tensorci117vec_to_row_matrixpEB4_
FNDA:0,_RINvNtCs2C1VqCpCGCJ_19tensor4all_tensorci9tensorci122tensor3_to_matrix_colspEB4_
FNDA:0,_RINvNtCs2C1VqCpCGCJ_19tensor4all_tensorci9tensorci122tensor3_to_matrix_rowspEB4_
FNDA:0,_RNCINvMs_NtCs2C1VqCpCGCJ_19tensor4all_tensorci9tensorci1INtB7_9TensorCI1pE14update_pi_colspE0B9_
FNDA:0,_RNCINvMs_NtCs2C1VqCpCGCJ_19tensor4all_tensorci9tensorci1INtB7_9TensorCI1pE14update_pi_colspEs0_0B9_
FNDA:0,_RNCINvMs_NtCs2C1VqCpCGCJ_19tensor4all_tensorci9tensorci1INtB7_9TensorCI1pE14update_pi_colspEs_0B9_
FNDA:0,_RNCINvMs_NtCs2C1VqCpCGCJ_19tensor4all_tensorci9tensorci1INtB7_9TensorCI1pE14update_pi_rowspE0B9_
FNDA:0,_RNCINvMs_NtCs2C1VqCpCGCJ_19tensor4all_tensorci9tensorci1INtB7_9TensorCI1pE14update_pi_rowspEs0_0B9_
FNDA:0,_RNCINvMs_NtCs2C1VqCpCGCJ_19tensor4all_tensorci9tensorci1INtB7_9TensorCI1pE14update_pi_rowspEs_0B9_
FNDA:0,_RNCINvMs_NtCs2C1VqCpCGCJ_19tensor4all_tensorci9tensorci1INtB7_9TensorCI1pE21initialize_from_pivotpE0B9_
FNDA:0,_RNCINvMs_NtCs2C1VqCpCGCJ_19tensor4all_tensorci9tensorci1INtB7_9TensorCI1pE21initialize_from_pivotpEs_0B9_
FNDA:0,_RNCINvNtCs2C1VqCpCGCJ_19tensor4all_tensorci9tensorci117row_matrix_to_vecpE0B6_
FNDA:0,_RNCNvMs_NtCs2C1VqCpCGCJ_19tensor4all_tensorci9tensorci1INtB6_9TensorCI1pE12site_tensors0B8_
FNDA:0,_RNCNvMs_NtCs2C1VqCpCGCJ_19tensor4all_tensorci9tensorci1INtB6_9TensorCI1pE3new0B8_
FNDA:0,_RNCNvMs_NtCs2C1VqCpCGCJ_19tensor4all_tensorci9tensorci1INtB6_9TensorCI1pE3news0_0B8_
FNDA:0,_RNCNvMs_NtCs2C1VqCpCGCJ_19tensor4all_tensorci9tensorci1INtB6_9TensorCI1pE3news1_0B8_
FNDA:0,_RNCNvMs_NtCs2C1VqCpCGCJ_19tensor4all_tensorci9tensorci1INtB6_9TensorCI1pE3news2_0B8_
FNDA:0,_RNCNvMs_NtCs2C1VqCpCGCJ_19tensor4all_tensorci9tensorci1INtB6_9TensorCI1pE3news3_0B8_
FNDA:0,_RNCNvMs_NtCs2C1VqCpCGCJ_19tensor4all_tensorci9tensorci1INtB6_9TensorCI1pE3news4_0B8_
FNDA:0,_RNCNvMs_NtCs2C1VqCpCGCJ_19tensor4all_tensorci9tensorci1INtB6_9TensorCI1pE3news5_0B8_
FNDA:0,_RNCNvMs_NtCs2C1VqCpCGCJ_19tensor4all_tensorci9tensorci1INtB6_9TensorCI1pE3news_0B8_
FNDA:0,_RNCNvMs_NtCs2C1VqCpCGCJ_19tensor4all_tensorci9tensorci1INtB6_9TensorCI1pE4rank0B8_
FNDA:0,_RNCNvMs_NtCs2C1VqCpCGCJ_19tensor4all_tensorci9tensorci1INtB6_9TensorCI1pE9link_dims0B8_
FNDA:0,_RNvMs_NtCs2C1VqCpCGCJ_19tensor4all_tensorci9tensorci1INtB4_9TensorCI1pE10local_dimsB6_
FNDA:0,_RNvMs_NtCs2C1VqCpCGCJ_19tensor4all_tensorci9tensorci1INtB4_9TensorCI1pE11site_tensorB6_
FNDA:0,_RNvMs_NtCs2C1VqCpCGCJ_19tensor4all_tensorci9tensorci1INtB4_9TensorCI1pE12get_pi_i_setB6_
FNDA:0,_RNvMs_NtCs2C1VqCpCGCJ_19tensor4all_tensorci9tensorci1INtB4_9TensorCI1pE12get_pi_j_setB6_
FNDA:0,_RNvMs_NtCs2C1VqCpCGCJ_19tensor4all_tensorci9tensorci1INtB4_9TensorCI1pE12site_tensorsB6_
FNDA:0,_RNvMs_NtCs2C1VqCpCGCJ_19tensor4all_tensorci9tensorci1INtB4_9TensorCI1pE15to_tensor_trainB6_
FNDA:0,_RNvMs_NtCs2C1VqCpCGCJ_19tensor4all_tensorci9tensorci1INtB4_9TensorCI1pE15update_p_matrixB6_
FNDA:0,_RNvMs_NtCs2C1VqCpCGCJ_19tensor4all_tensorci9tensorci1INtB4_9TensorCI1pE16max_sample_valueB6_
FNDA:0,_RNvMs_NtCs2C1VqCpCGCJ_19tensor4all_tensorci9tensorci1INtB4_9TensorCI1pE17update_max_sampleB6_
FNDA:0,_RNvMs_NtCs2C1VqCpCGCJ_19tensor4all_tensorci9tensorci1INtB4_9TensorCI1pE22last_sweep_pivot_errorB6_
FNDA:0,_RNvMs_NtCs2C1VqCpCGCJ_19tensor4all_tensorci9tensorci1INtB4_9TensorCI1pE24update_max_sample_matrixB6_
FNDA:0,_RNvMs_NtCs2C1VqCpCGCJ_19tensor4all_tensorci9tensorci1INtB4_9TensorCI1pE3lenB6_
FNDA:0,_RNvMs_NtCs2C1VqCpCGCJ_19tensor4all_tensorci9tensorci1INtB4_9TensorCI1pE3newB6_
FNDA:0,_RNvMs_NtCs2C1VqCpCGCJ_19tensor4all_tensorci9tensorci1INtB4_9TensorCI1pE4rankB6_
FNDA:0,_RNvMs_NtCs2C1VqCpCGCJ_19tensor4all_tensorci9tensorci1INtB4_9TensorCI1pE5i_setB6_
FNDA:0,_RNvMs_NtCs2C1VqCpCGCJ_19tensor4all_tensorci9tensorci1INtB4_9TensorCI1pE5j_setB6_
FNDA:0,_RNvMs_NtCs2C1VqCpCGCJ_19tensor4all_tensorci9tensorci1INtB4_9TensorCI1pE8evaluateB6_
FNDA:0,_RNvMs_NtCs2C1VqCpCGCJ_19tensor4all_tensorci9tensorci1INtB4_9TensorCI1pE8is_emptyB6_
FNDA:0,_RNvMs_NtCs2C1VqCpCGCJ_19tensor4all_tensorci9tensorci1INtB4_9TensorCI1pE9link_dimsB6_
FNF:54
FNH:0
DA:91,0
DA:92,0
DA:94,0
DA:95,0
DA:96,0
DA:97,0
DA:98,0
DA:99,0
DA:100,0
DA:101,0
DA:102,0
DA:103,0
DA:106,0
DA:109,0
DA:110,0
DA:111,0
DA:114,0
DA:115,0
DA:116,0
DA:119,0
DA:120,0
DA:121,0
DA:124,0
DA:125,0
DA:126,0
DA:127,0
DA:129,0
DA:131,0
DA:132,0
DA:133,0
DA:134,0
DA:135,0
DA:136,0
DA:137,0
DA:138,0
DA:141,0
DA:142,0
DA:143,0
DA:144,0
DA:145,0
DA:146,0
DA:147,0
DA:148,0
DA:149,0
DA:150,0
DA:153,0
DA:154,0
DA:155,0
DA:158,0
DA:159,0
DA:160,0
DA:161,0
DA:163,0
DA:164,0
DA:167,0
DA:168,0
DA:169,0
DA:172,0
DA:173,0
DA:175,0
DA:176,0
DA:177,0
DA:179,0
DA:180,0
DA:181,0
DA:184,0
DA:185,0
DA:186,0
DA:189,0
DA:190,0
DA:191,0
DA:192,0
DA:195,0
DA:196,0
DA:197,0
DA:200,0
DA:201,0
DA:202,0
DA:203,0
DA:204,0
DA:205,0
DA:207,0
DA:210,0
DA:211,0
DA:212,0
DA:213,0
DA:214,0
DA:215,0
DA:216,0
DA:219,0
DA:223,0
DA:224,0
DA:225,0
DA:226,0
DA:227,0
DA:228,0
DA:229,0
DA:230,0
DA:231,0
DA:232,0
DA:234,0
DA:235,0
DA:236,0
DA:239,0
DA:240,0
DA:241,0
DA:245,0
DA:246,0
DA:247,0
DA:248,0
DA:249,0
DA:250,0
DA:251,0
DA:252,0
DA:253,0
DA:254,0
DA:255,0
DA:256,0
DA:258,0
DA:259,0
DA:260,0
DA:261,0
DA:264,0
DA:265,0
DA:266,0
DA:267,0
DA:268,0
DA:270,0
DA:275,0
DA:276,0
DA:277,0
DA:278,0
DA:279,0
DA:280,0
DA:281,0
DA:282,0
DA:283,0
DA:284,0
DA:285,0
DA:286,0
DA:287,0
DA:289,0
DA:290,0
DA:293,0
DA:294,0
DA:295,0
DA:296,0
DA:297,0
DA:298,0
DA:299,0
DA:303,0
DA:304,0
DA:305,0
DA:306,0
DA:307,0
DA:308,0
DA:309,0
DA:310,0
DA:313,0
DA:314,0
DA:315,0
DA:316,0
DA:317,0
DA:319,0
DA:320,0
DA:323,0
DA:324,0
DA:325,0
DA:328,0
DA:329,0
DA:330,0
DA:334,0
DA:335,0
DA:336,0
DA:337,0
DA:338,0
DA:339,0
DA:340,0
DA:341,0
DA:343,0
DA:344,0
DA:348,0
DA:349,0
DA:350,0
DA:351,0
DA:352,0
DA:353,0
DA:354,0
DA:355,0
DA:357,0
DA:358,0
DA:362,0
DA:363,0
DA:364,0
DA:366,0
DA:367,0
DA:369,0
DA:370,0
DA:371,0
DA:372,0
DA:373,0
DA:374,0
DA:375,0
DA:378,0
DA:379,0
DA:380,0
DA:383,0
DA:384,0
DA:385,0
DA:387,0
DA:389,0
DA:390,0
DA:393,0
DA:394,0
DA:395,0
DA:396,0
DA:397,0
DA:400,0
DA:403,0
DA:404,0
DA:405,0
DA:406,0
DA:407,0
DA:408,0
DA:412,0
DA:413,0
DA:414,0
DA:415,0
DA:416,0
DA:417,0
DA:418,0
DA:420,0
DA:421,0
DA:422,0
DA:425,0
DA:426,0
DA:429,0
DA:430,0
DA:431,0
DA:432,0
DA:433,0
DA:434,0
DA:435,0
DA:436,0
DA:437,0
DA:438,0
DA:439,0
DA:440,0
DA:443,0
DA:444,0
DA:445,0
DA:447,0
DA:449,0
DA:450,0
DA:453,0
DA:454,0
DA:455,0
DA:456,0
DA:457,0
DA:460,0
DA:463,0
DA:464,0
DA:465,0
DA:466,0
DA:467,0
DA:468,0
DA:472,0
DA:473,0
DA:474,0
DA:475,0
DA:476,0
DA:477,0
DA:478,0
DA:480,0
DA:481,0
DA:482,0
DA:485,0
DA:486,0
DA:489,0
DA:490,0
DA:491,0
DA:492,0
DA:493,0
DA:494,0
DA:495,0
DA:496,0
DA:497,0
DA:500,0
DA:501,0
DA:502,0
DA:505,0
DA:508,0
DA:509,0
DA:513,0
DA:514,0
DA:515,0
DA:518,0
DA:519,0
DA:520,0
DA:521,0
DA:522,0
DA:523,0
DA:524,0
DA:527,0
DA:530,0
DA:533,0
DA:534,0
DA:535,0
DA:536,0
DA:539,0
DA:540,0
DA:541,0
DA:544,0
DA:547,0
DA:548,0
DA:552,0
DA:553,0
DA:554,0
DA:557,0
DA:558,0
DA:559,0
DA:560,0
DA:561,0
DA:562,0
DA:563,0
DA:566,0
DA:569,0
DA:572,0
DA:573,0
DA:574,0
DA:575,0
DA:578,0
DA:579,0
DA:580,0
DA:582,0
DA:583,0
DA:584,0
DA:585,0
DA:586,0
DA:587,0
DA:588,0
DA:589,0
DA:590,0
DA:593,0
DA:594,0
DA:597,0
DA:598,0
DA:599,0
DA:601,0
DA:602,0
DA:603,0
DA:606,0
DA:607,0
DA:608,0
DA:609,0
DA:610,0
DA:611,0
DA:614,0
DA:616,0
DA:617,0
DA:618,0
DA:619,0
DA:621,0
DA:622,0
DA:623,0
DA:626,0
DA:627,0
DA:629,0
DA:630,0
DA:631,0
DA:633,0
DA:636,0
DA:637,0
DA:638,0
DA:640,0
DA:641,0
DA:642,0
DA:643,0
DA:644,0
DA:645,0
DA:647,0
DA:648,0
DA:651,0
DA:652,0
DA:653,0
DA:654,0
DA:655,0
DA:656,0
DA:659,0
DA:660,0
DA:661,0
DA:662,0
DA:665,0
DA:666,0
DA:667,0
DA:670,0
DA:672,0
DA:673,0
DA:674,0
DA:675,0
DA:676,0
DA:677,0
DA:678,0
DA:679,0
DA:682,0
DA:685,0
DA:687,0
DA:688,0
DA:689,0
DA:690,0
DA:691,0
DA:692,0
DA:695,0
DA:696,0
DA:697,0
DA:698,0
DA:699,0
DA:702,0
DA:703,0
DA:704,0
DA:708,0
DA:709,0
DA:710,0
DA:712,0
DA:713,0
DA:719,0
DA:720,0
DA:721,0
DA:722,0
DA:723,0
DA:724,0
DA:725,0
DA:728,0
DA:729,0
DA:730,0
DA:731,0
DA:732,0
DA:733,0
DA:734,0
DA:737,0
DA:738,0
DA:739,0
DA:742,0
DA:743,0
DA:744,0
DA:745,0
DA:746,0
DA:747,0
DA:749,0
DA:750,0
DA:751,0
DA:752,0
DA:753,0
DA:754,0
DA:757,0
DA:758,0
DA:761,0
DA:762,0
DA:763,0
DA:764,0
DA:765,0
DA:766,0
DA:767,0
DA:768,0
DA:770,0
DA:771,0
DA:772,0
DA:773,0
DA:774,0
DA:775,0
DA:776,0
DA:780,0
DA:781,0
DA:784,0
DA:785,0
DA:786,0
DA:787,0
DA:788,0
DA:789,0
DA:790,0
DA:791,0
DA:793,0
DA:794,0
DA:795,0
DA:796,0
DA:797,0
DA:798,0
DA:799,0
DA:803,0
DA:804,0
DA:807,0
DA:808,0
DA:809,0
DA:810,0
DA:811,0
DA:812,0
DA:813,0
DA:816,0
DA:818,0
DA:819,0
DA:820,0
DA:821,0
DA:822,0
DA:825,0
DA:827,0
DA:828,0
DA:829,0
DA:830,0
DA:831,0
DA:834,0
DA:836,0
DA:837,0
DA:838,0
DA:839,0
DA:841,0
DA:842,0
DA:843,0
DA:844,0
DA:846,0
DA:847,0
DA:861,0
DA:862,0
DA:863,0
DA:864,0
DA:865,0
DA:866,0
DA:867,0
DA:868,0
DA:869,0
DA:871,0
DA:872,0
DA:873,0
DA:874,0
DA:875,0
DA:876,0
DA:877,0
DA:878,0
DA:879,0
DA:881,0
DA:882,0
DA:884,0
DA:885,0
DA:886,0
DA:889,0
DA:891,0
DA:892,0
DA:893,0
DA:894,0
DA:896,0
DA:897,0
DA:898,0
DA:902,0
DA:903,0
DA:904,0
DA:906,0
DA:909,0
DA:910,0
DA:912,0
DA:913,0
DA:914,0
DA:915,0
DA:916,0
DA:917,0
DA:918,0
DA:919,0
DA:922,0
DA:923,0
DA:924,0
DA:927,0
DA:928,0
BRF:0
BRH:0
LF:590
LH:0
end_of_record
SF:/Users/ken/git_for_collab4/tensor4all-rs/crates/tensor4all-tensorci/src/tensorci2.rs
FN:351,_RINvNtCs2C1VqCpCGCJ_19tensor4all_tensorci9tensorci213update_pivotsdNCNCNvNtCslD6BJj2Z6b5_15tensor4all_capi8tensorci25t4a_crossinterpolate2_f640s0_0FG_RL0_SINtNtCsganj50Cd8Gx_5alloc3vec3VecjEEIB2u_dEEB1b_
FN:254,_RINvNtCs2C1VqCpCGCJ_19tensor4all_tensorci9tensorci217crossinterpolate2dNCNCNvNtCslD6BJj2Z6b5_15tensor4all_capi8tensorci25t4a_crossinterpolate2_f640s0_0FG_RL0_SINtNtCsganj50Cd8Gx_5alloc3vec3VecjEEIB2y_dEEB1f_
FN:438,_RNCINvNtCs2C1VqCpCGCJ_19tensor4all_tensorci9tensorci213update_pivotsdNCNCNvNtCslD6BJj2Z6b5_15tensor4all_capi8tensorci25t4a_crossinterpolate2_f640s0_0FG_RL0_SINtNtCsganj50Cd8Gx_5alloc3vec3VecjEEIB2w_dEE0B1d_
FN:439,_RNCINvNtCs2C1VqCpCGCJ_19tensor4all_tensorci9tensorci213update_pivotsdNCNCNvNtCslD6BJj2Z6b5_15tensor4all_capi8tensorci25t4a_crossinterpolate2_f640s0_0FG_RL0_SINtNtCsganj50Cd8Gx_5alloc3vec3VecjEEIB2w_dEEs_0B1d_
FN:92,_RNCNvMs_NtCs2C1VqCpCGCJ_19tensor4all_tensorci9tensorci2INtB6_9TensorCI2dE3new0CslD6BJj2Z6b5_15tensor4all_capi
FN:95,_RNCNvMs_NtCs2C1VqCpCGCJ_19tensor4all_tensorci9tensorci2INtB6_9TensorCI2dE3news0_0CslD6BJj2Z6b5_15tensor4all_capi
FN:93,_RNCNvMs_NtCs2C1VqCpCGCJ_19tensor4all_tensorci9tensorci2INtB6_9TensorCI2dE3news_0CslD6BJj2Z6b5_15tensor4all_capi
FN:129,_RNCNvMs_NtCs2C1VqCpCGCJ_19tensor4all_tensorci9tensorci2INtB6_9TensorCI2dE4rank0CslD6BJj2Z6b5_15tensor4all_capi
FN:139,_RNCNvMs_NtCs2C1VqCpCGCJ_19tensor4all_tensorci9tensorci2INtB6_9TensorCI2dE9link_dims0CslD6BJj2Z6b5_15tensor4all_capi
FN:216,_RNvMs_NtCs2C1VqCpCGCJ_19tensor4all_tensorci9tensorci2INtB4_9TensorCI2dE11kronecker_iCslD6BJj2Z6b5_15tensor4all_capi
FN:228,_RNvMs_NtCs2C1VqCpCGCJ_19tensor4all_tensorci9tensorci2INtB4_9TensorCI2dE11kronecker_jCslD6BJj2Z6b5_15tensor4all_capi
FN:148,_RNvMs_NtCs2C1VqCpCGCJ_19tensor4all_tensorci9tensorci2INtB4_9TensorCI2dE14max_bond_errorCslD6BJj2Z6b5_15tensor4all_capi
FN:170,_RNvMs_NtCs2C1VqCpCGCJ_19tensor4all_tensorci9tensorci2INtB4_9TensorCI2dE15to_tensor_trainCslD6BJj2Z6b5_15tensor4all_capi
FN:143,_RNvMs_NtCs2C1VqCpCGCJ_19tensor4all_tensorci9tensorci2INtB4_9TensorCI2dE16max_sample_valueCslD6BJj2Z6b5_15tensor4all_capi
FN:176,_RNvMs_NtCs2C1VqCpCGCJ_19tensor4all_tensorci9tensorci2INtB4_9TensorCI2dE17add_global_pivotsCslD6BJj2Z6b5_15tensor4all_capi
FN:209,_RNvMs_NtCs2C1VqCpCGCJ_19tensor4all_tensorci9tensorci2INtB4_9TensorCI2dE23invalidate_site_tensorsCslD6BJj2Z6b5_15tensor4all_capi
FN:103,_RNvMs_NtCs2C1VqCpCGCJ_19tensor4all_tensorci9tensorci2INtB4_9TensorCI2dE3lenCslD6BJj2Z6b5_15tensor4all_capi
FN:83,_RNvMs_NtCs2C1VqCpCGCJ_19tensor4all_tensorci9tensorci2INtB4_9TensorCI2dE3newCslD6BJj2Z6b5_15tensor4all_capi
FN:118,_RNvMs_NtCs2C1VqCpCGCJ_19tensor4all_tensorci9tensorci2INtB4_9TensorCI2dE4rankCslD6BJj2Z6b5_15tensor4all_capi
FN:135,_RNvMs_NtCs2C1VqCpCGCJ_19tensor4all_tensorci9tensorci2INtB4_9TensorCI2dE9link_dimsCslD6BJj2Z6b5_15tensor4all_capi
FN:35,_RNvXNtCs2C1VqCpCGCJ_19tensor4all_tensorci9tensorci2NtB2_11TCI2OptionsNtNtCskzPJi2J8k3N_4core7default7Default7default
FN:351,_RINvNtCs2C1VqCpCGCJ_19tensor4all_tensorci9tensorci213update_pivotspppEB4_
FN:254,_RINvNtCs2C1VqCpCGCJ_19tensor4all_tensorci9tensorci217crossinterpolate2pppEB4_
FN:438,_RNCINvNtCs2C1VqCpCGCJ_19tensor4all_tensorci9tensorci213update_pivotspppE0B6_
FN:439,_RNCINvNtCs2C1VqCpCGCJ_19tensor4all_tensorci9tensorci213update_pivotspppEs_0B6_
FN:161,_RNCNvMs_NtCs2C1VqCpCGCJ_19tensor4all_tensorci9tensorci2INtB6_9TensorCI2pE25is_site_tensors_available0B8_
FN:92,_RNCNvMs_NtCs2C1VqCpCGCJ_19tensor4all_tensorci9tensorci2INtB6_9TensorCI2pE3new0B8_
FN:95,_RNCNvMs_NtCs2C1VqCpCGCJ_19tensor4all_tensorci9tensorci2INtB6_9TensorCI2pE3news0_0B8_
FN:93,_RNCNvMs_NtCs2C1VqCpCGCJ_19tensor4all_tensorci9tensorci2INtB6_9TensorCI2pE3news_0B8_
FN:129,_RNCNvMs_NtCs2C1VqCpCGCJ_19tensor4all_tensorci9tensorci2INtB6_9TensorCI2pE4rank0B8_
FN:139,_RNCNvMs_NtCs2C1VqCpCGCJ_19tensor4all_tensorci9tensorci2INtB6_9TensorCI2pE9link_dims0B8_
FN:113,_RNvMs_NtCs2C1VqCpCGCJ_19tensor4all_tensorci9tensorci2INtB4_9TensorCI2pE10local_dimsB6_
FN:216,_RNvMs_NtCs2C1VqCpCGCJ_19tensor4all_tensorci9tensorci2INtB4_9TensorCI2pE11kronecker_iB6_
FN:228,_RNvMs_NtCs2C1VqCpCGCJ_19tensor4all_tensorci9tensorci2INtB4_9TensorCI2pE11kronecker_jB6_
FN:165,_RNvMs_NtCs2C1VqCpCGCJ_19tensor4all_tensorci9tensorci2INtB4_9TensorCI2pE11site_tensorB6_
FN:153,_RNvMs_NtCs2C1VqCpCGCJ_19tensor4all_tensorci9tensorci2INtB4_9TensorCI2pE12pivot_errorsB6_
FN:148,_RNvMs_NtCs2C1VqCpCGCJ_19tensor4all_tensorci9tensorci2INtB4_9TensorCI2pE14max_bond_errorB6_
FN:170,_RNvMs_NtCs2C1VqCpCGCJ_19tensor4all_tensorci9tensorci2INtB4_9TensorCI2pE15to_tensor_trainB6_
FN:143,_RNvMs_NtCs2C1VqCpCGCJ_19tensor4all_tensorci9tensorci2INtB4_9TensorCI2pE16max_sample_valueB6_
FN:176,_RNvMs_NtCs2C1VqCpCGCJ_19tensor4all_tensorci9tensorci2INtB4_9TensorCI2pE17add_global_pivotsB6_
FN:209,_RNvMs_NtCs2C1VqCpCGCJ_19tensor4all_tensorci9tensorci2INtB4_9TensorCI2pE23invalidate_site_tensorsB6_
FN:158,_RNvMs_NtCs2C1VqCpCGCJ_19tensor4all_tensorci9tensorci2INtB4_9TensorCI2pE25is_site_tensors_availableB6_
FN:103,_RNvMs_NtCs2C1VqCpCGCJ_19tensor4all_tensorci9tensorci2INtB4_9TensorCI2pE3lenB6_
FN:83,_RNvMs_NtCs2C1VqCpCGCJ_19tensor4all_tensorci9tensorci2INtB4_9TensorCI2pE3newB6_
FN:118,_RNvMs_NtCs2C1VqCpCGCJ_19tensor4all_tensorci9tensorci2INtB4_9TensorCI2pE4rankB6_
FN:108,_RNvMs_NtCs2C1VqCpCGCJ_19tensor4all_tensorci9tensorci2INtB4_9TensorCI2pE8is_emptyB6_
FN:135,_RNvMs_NtCs2C1VqCpCGCJ_19tensor4all_tensorci9tensorci2INtB4_9TensorCI2pE9link_dimsB6_
FNDA:1,_RINvNtCs2C1VqCpCGCJ_19tensor4all_tensorci9tensorci213update_pivotsdNCNCNvNtCslD6BJj2Z6b5_15tensor4all_capi8tensorci25t4a_crossinterpolate2_f640s0_0FG_RL0_SINtNtCsganj50Cd8Gx_5alloc3vec3VecjEEIB2u_dEEB1b_
FNDA:1,_RINvNtCs2C1VqCpCGCJ_19tensor4all_tensorci9tensorci217crossinterpolate2dNCNCNvNtCslD6BJj2Z6b5_15tensor4all_capi8tensorci25t4a_crossinterpolate2_f640s0_0FG_RL0_SINtNtCsganj50Cd8Gx_5alloc3vec3VecjEEIB2y_dEEB1f_
FNDA:1,_RNCINvNtCs2C1VqCpCGCJ_19tensor4all_tensorci9tensorci213update_pivotsdNCNCNvNtCslD6BJj2Z6b5_15tensor4all_capi8tensorci25t4a_crossinterpolate2_f640s0_0FG_RL0_SINtNtCsganj50Cd8Gx_5alloc3vec3VecjEEIB2w_dEE0B1d_
FNDA:1,_RNCINvNtCs2C1VqCpCGCJ_19tensor4all_tensorci9tensorci213update_pivotsdNCNCNvNtCslD6BJj2Z6b5_15tensor4all_capi8tensorci25t4a_crossinterpolate2_f640s0_0FG_RL0_SINtNtCsganj50Cd8Gx_5alloc3vec3VecjEEIB2w_dEEs_0B1d_
FNDA:5,_RNCNvMs_NtCs2C1VqCpCGCJ_19tensor4all_tensorci9tensorci2INtB6_9TensorCI2dE3new0CslD6BJj2Z6b5_15tensor4all_capi
FNDA:5,_RNCNvMs_NtCs2C1VqCpCGCJ_19tensor4all_tensorci9tensorci2INtB6_9TensorCI2dE3news0_0CslD6BJj2Z6b5_15tensor4all_capi
FNDA:5,_RNCNvMs_NtCs2C1VqCpCGCJ_19tensor4all_tensorci9tensorci2INtB6_9TensorCI2dE3news_0CslD6BJj2Z6b5_15tensor4all_capi
FNDA:2,_RNCNvMs_NtCs2C1VqCpCGCJ_19tensor4all_tensorci9tensorci2INtB6_9TensorCI2dE4rank0CslD6BJj2Z6b5_15tensor4all_capi
FNDA:0,_RNCNvMs_NtCs2C1VqCpCGCJ_19tensor4all_tensorci9tensorci2INtB6_9TensorCI2dE9link_dims0CslD6BJj2Z6b5_15tensor4all_capi
FNDA:1,_RNvMs_NtCs2C1VqCpCGCJ_19tensor4all_tensorci9tensorci2INtB4_9TensorCI2dE11kronecker_iCslD6BJj2Z6b5_15tensor4all_capi
FNDA:1,_RNvMs_NtCs2C1VqCpCGCJ_19tensor4all_tensorci9tensorci2INtB4_9TensorCI2dE11kronecker_jCslD6BJj2Z6b5_15tensor4all_capi
FNDA:1,_RNvMs_NtCs2C1VqCpCGCJ_19tensor4all_tensorci9tensorci2INtB4_9TensorCI2dE14max_bond_errorCslD6BJj2Z6b5_15tensor4all_capi
FNDA:1,_RNvMs_NtCs2C1VqCpCGCJ_19tensor4all_tensorci9tensorci2INtB4_9TensorCI2dE15to_tensor_trainCslD6BJj2Z6b5_15tensor4all_capi
FNDA:0,_RNvMs_NtCs2C1VqCpCGCJ_19tensor4all_tensorci9tensorci2INtB4_9TensorCI2dE16max_sample_valueCslD6BJj2Z6b5_15tensor4all_capi
FNDA:1,_RNvMs_NtCs2C1VqCpCGCJ_19tensor4all_tensorci9tensorci2INtB4_9TensorCI2dE17add_global_pivotsCslD6BJj2Z6b5_15tensor4all_capi
FNDA:1,_RNvMs_NtCs2C1VqCpCGCJ_19tensor4all_tensorci9tensorci2INtB4_9TensorCI2dE23invalidate_site_tensorsCslD6BJj2Z6b5_15tensor4all_capi
FNDA:8,_RNvMs_NtCs2C1VqCpCGCJ_19tensor4all_tensorci9tensorci2INtB4_9TensorCI2dE3lenCslD6BJj2Z6b5_15tensor4all_capi
FNDA:2,_RNvMs_NtCs2C1VqCpCGCJ_19tensor4all_tensorci9tensorci2INtB4_9TensorCI2dE3newCslD6BJj2Z6b5_15tensor4all_capi
FNDA:2,_RNvMs_NtCs2C1VqCpCGCJ_19tensor4all_tensorci9tensorci2INtB4_9TensorCI2dE4rankCslD6BJj2Z6b5_15tensor4all_capi
FNDA:0,_RNvMs_NtCs2C1VqCpCGCJ_19tensor4all_tensorci9tensorci2INtB4_9TensorCI2dE9link_dimsCslD6BJj2Z6b5_15tensor4all_capi
FNDA:1,_RNvXNtCs2C1VqCpCGCJ_19tensor4all_tensorci9tensorci2NtB2_11TCI2OptionsNtNtCskzPJi2J8k3N_4core7default7Default7default
FNDA:0,_RINvNtCs2C1VqCpCGCJ_19tensor4all_tensorci9tensorci213update_pivotspppEB4_
FNDA:0,_RINvNtCs2C1VqCpCGCJ_19tensor4all_tensorci9tensorci217crossinterpolate2pppEB4_
FNDA:0,_RNCINvNtCs2C1VqCpCGCJ_19tensor4all_tensorci9tensorci213update_pivotspppE0B6_
FNDA:0,_RNCINvNtCs2C1VqCpCGCJ_19tensor4all_tensorci9tensorci213update_pivotspppEs_0B6_
FNDA:0,_RNCNvMs_NtCs2C1VqCpCGCJ_19tensor4all_tensorci9tensorci2INtB6_9TensorCI2pE25is_site_tensors_available0B8_
FNDA:0,_RNCNvMs_NtCs2C1VqCpCGCJ_19tensor4all_tensorci9tensorci2INtB6_9TensorCI2pE3new0B8_
FNDA:0,_RNCNvMs_NtCs2C1VqCpCGCJ_19tensor4all_tensorci9tensorci2INtB6_9TensorCI2pE3news0_0B8_
FNDA:0,_RNCNvMs_NtCs2C1VqCpCGCJ_19tensor4all_tensorci9tensorci2INtB6_9TensorCI2pE3news_0B8_
FNDA:0,_RNCNvMs_NtCs2C1VqCpCGCJ_19tensor4all_tensorci9tensorci2INtB6_9TensorCI2pE4rank0B8_
FNDA:0,_RNCNvMs_NtCs2C1VqCpCGCJ_19tensor4all_tensorci9tensorci2INtB6_9TensorCI2pE9link_dims0B8_
FNDA:0,_RNvMs_NtCs2C1VqCpCGCJ_19tensor4all_tensorci9tensorci2INtB4_9TensorCI2pE10local_dimsB6_
FNDA:0,_RNvMs_NtCs2C1VqCpCGCJ_19tensor4all_tensorci9tensorci2INtB4_9TensorCI2pE11kronecker_iB6_
FNDA:0,_RNvMs_NtCs2C1VqCpCGCJ_19tensor4all_tensorci9tensorci2INtB4_9TensorCI2pE11kronecker_jB6_
FNDA:0,_RNvMs_NtCs2C1VqCpCGCJ_19tensor4all_tensorci9tensorci2INtB4_9TensorCI2pE11site_tensorB6_
FNDA:0,_RNvMs_NtCs2C1VqCpCGCJ_19tensor4all_tensorci9tensorci2INtB4_9TensorCI2pE12pivot_errorsB6_
FNDA:0,_RNvMs_NtCs2C1VqCpCGCJ_19tensor4all_tensorci9tensorci2INtB4_9TensorCI2pE14max_bond_errorB6_
FNDA:0,_RNvMs_NtCs2C1VqCpCGCJ_19tensor4all_tensorci9tensorci2INtB4_9TensorCI2pE15to_tensor_trainB6_
FNDA:0,_RNvMs_NtCs2C1VqCpCGCJ_19tensor4all_tensorci9tensorci2INtB4_9TensorCI2pE16max_sample_valueB6_
FNDA:0,_RNvMs_NtCs2C1VqCpCGCJ_19tensor4all_tensorci9tensorci2INtB4_9TensorCI2pE17add_global_pivotsB6_
FNDA:0,_RNvMs_NtCs2C1VqCpCGCJ_19tensor4all_tensorci9tensorci2INtB4_9TensorCI2pE23invalidate_site_tensorsB6_
FNDA:0,_RNvMs_NtCs2C1VqCpCGCJ_19tensor4all_tensorci9tensorci2INtB4_9TensorCI2pE25is_site_tensors_availableB6_
FNDA:0,_RNvMs_NtCs2C1VqCpCGCJ_19tensor4all_tensorci9tensorci2INtB4_9TensorCI2pE3lenB6_
FNDA:0,_RNvMs_NtCs2C1VqCpCGCJ_19tensor4all_tensorci9tensorci2INtB4_9TensorCI2pE3newB6_
FNDA:0,_RNvMs_NtCs2C1VqCpCGCJ_19tensor4all_tensorci9tensorci2INtB4_9TensorCI2pE4rankB6_
FNDA:0,_RNvMs_NtCs2C1VqCpCGCJ_19tensor4all_tensorci9tensorci2INtB4_9TensorCI2pE8is_emptyB6_
FNDA:0,_RNvMs_NtCs2C1VqCpCGCJ_19tensor4all_tensorci9tensorci2INtB4_9TensorCI2pE9link_dimsB6_
FNF:27
FNH:18
DA:35,1
DA:36,1
DA:37,1
DA:38,1
DA:39,1
DA:40,1
DA:41,1
DA:42,1
DA:43,1
DA:44,1
DA:45,1
DA:46,1
DA:83,2
DA:84,2
DA:85,0
DA:86,0
DA:87,0
DA:88,2
DA:90,2
DA:92,5
DA:93,5
DA:94,2
DA:95,5
DA:96,2
DA:97,2
DA:100,2
DA:103,8
DA:104,8
DA:105,8
DA:108,0
DA:109,0
DA:110,0
DA:113,0
DA:114,0
DA:115,0
DA:118,2
DA:119,2
DA:120,0
DA:121,0
DA:123,0
DA:125,2
DA:126,2
DA:127,2
DA:128,2
DA:129,2
DA:130,2
DA:131,2
DA:132,2
DA:135,0
DA:136,0
DA:137,0
DA:138,0
DA:139,0
DA:140,0
DA:143,0
DA:144,0
DA:145,0
DA:148,1
DA:149,1
DA:150,1
DA:153,0
DA:154,0
DA:155,0
DA:158,0
DA:159,0
DA:160,0
DA:161,0
DA:162,0
DA:165,0
DA:166,0
DA:167,0
DA:170,1
DA:171,1
DA:172,1
DA:173,1
DA:176,1
DA:177,2
DA:178,1
DA:179,0
DA:180,0
DA:181,0
DA:182,0
DA:183,0
DA:184,0
DA:185,0
DA:186,1
DA:189,2
DA:190,2
DA:191,2
DA:193,2
DA:194,2
DA:195,2
DA:196,2
DA:197,2
DA:198,2
DA:203,1
DA:205,1
DA:206,1
DA:209,1
DA:210,2
DA:211,2
DA:212,2
DA:213,1
DA:216,1
DA:217,1
DA:218,1
DA:219,3
DA:220,3
DA:221,3
DA:222,3
DA:223,3
DA:225,1
DA:226,1
DA:228,1
DA:229,1
DA:230,4
DA:231,4
DA:232,4
DA:233,4
DA:234,4
DA:235,4
DA:237,1
DA:238,1
DA:254,1
DA:255,1
DA:256,1
DA:257,1
DA:258,1
DA:259,1
DA:260,1
DA:261,1
DA:262,1
DA:263,1
DA:264,1
DA:266,1
DA:267,0
DA:268,0
DA:269,0
DA:270,1
DA:272,1
DA:273,0
DA:275,1
DA:278,1
DA:279,1
DA:282,2
DA:283,1
DA:284,1
DA:285,1
DA:286,1
DA:287,1
DA:290,1
DA:291,0
DA:292,0
DA:293,0
DA:294,1
DA:296,1
DA:297,1
DA:298,1
DA:301,1
DA:302,1
DA:305,1
DA:306,1
DA:307,1
DA:308,1
DA:309,1
DA:310,0
DA:313,0
DA:314,0
DA:315,0
DA:316,0
DA:317,0
DA:322,1
DA:323,1
DA:324,1
DA:326,0
DA:329,1
DA:330,1
DA:332,1
DA:333,0
DA:334,0
DA:335,0
DA:336,0
DA:337,0
DA:338,0
DA:339,1
DA:342,1
DA:343,1
DA:344,0
DA:347,1
DA:348,1
DA:351,1
DA:352,1
DA:353,1
DA:354,1
DA:355,1
DA:356,1
DA:357,1
DA:358,1
DA:359,1
DA:360,1
DA:361,1
DA:362,1
DA:369,1
DA:370,1
DA:372,1
DA:373,0
DA:374,1
DA:377,1
DA:380,1
DA:382,0
DA:383,0
DA:384,0
DA:385,0
DA:386,0
DA:387,0
DA:388,0
DA:389,0
DA:393,0
DA:396,0
DA:397,0
DA:398,0
DA:399,0
DA:400,0
DA:401,0
DA:402,0
DA:403,0
DA:404,0
DA:409,3
DA:410,12
DA:411,12
DA:412,12
DA:413,12
DA:414,12
DA:416,12
DA:417,12
DA:418,0
DA:419,12
DA:425,1
DA:426,1
DA:427,1
DA:428,1
DA:429,1
DA:430,1
DA:432,1
DA:435,1
DA:436,1
DA:438,1
DA:439,1
DA:442,1
DA:443,1
DA:446,1
DA:447,1
DA:448,1
DA:450,1
DA:451,1
DA:452,3
DA:453,3
DA:454,3
DA:455,3
DA:456,3
DA:457,3
DA:461,1
DA:464,1
DA:465,1
DA:466,1
DA:468,0
DA:471,1
DA:472,1
DA:473,4
DA:474,4
DA:475,4
DA:476,4
DA:477,4
DA:478,4
DA:482,1
DA:485,1
DA:486,1
DA:487,1
DA:488,1
DA:490,1
DA:491,1
BRF:0
BRH:0
LF:289
LH:206
end_of_record
SF:/Users/ken/git_for_collab4/tensor4all-rs/crates/tensor4all-treetn/src/link_index_network.rs
FN:42,_RNvMs_NtCsaogGgQeyHx_17tensor4all_treetn18link_index_networkINtB4_16LinkIndexNetworkINtNtNtCsbrO2ourfQV3_15tensor4all_core8defaults5index5IndexNtB1n_5DynIdEE3newCsaRfSWFUMrL5_22tensor4all_itensorlike
FN:60,_RNvMs_NtCsaogGgQeyHx_17tensor4all_treetn18link_index_networkINtB4_16LinkIndexNetworkINtNtNtCsbrO2ourfQV3_15tensor4all_core8defaults5index5IndexNtB1n_5DynIdEE6insertCsaRfSWFUMrL5_22tensor4all_itensorlike
FN:97,_RNvMs_NtCsaogGgQeyHx_17tensor4all_treetn18link_index_networkINtB4_16LinkIndexNetworkpE11contains_idB6_
FN:110,_RNvMs_NtCsaogGgQeyHx_17tensor4all_treetn18link_index_networkINtB4_16LinkIndexNetworkpE13replace_indexB6_
FN:49,_RNvMs_NtCsaogGgQeyHx_17tensor4all_treetn18link_index_networkINtB4_16LinkIndexNetworkpE13with_capacityB6_
FN:87,_RNvMs_NtCsaogGgQeyHx_17tensor4all_treetn18link_index_networkINtB4_16LinkIndexNetworkpE15find_edge_by_idB6_
FN:137,_RNvMs_NtCsaogGgQeyHx_17tensor4all_treetn18link_index_networkINtB4_16LinkIndexNetworkpE3lenB6_
FN:42,_RNvMs_NtCsaogGgQeyHx_17tensor4all_treetn18link_index_networkINtB4_16LinkIndexNetworkpE3newB6_
FN:152,_RNvMs_NtCsaogGgQeyHx_17tensor4all_treetn18link_index_networkINtB4_16LinkIndexNetworkpE4iterB6_
FN:147,_RNvMs_NtCsaogGgQeyHx_17tensor4all_treetn18link_index_networkINtB4_16LinkIndexNetworkpE5clearB6_
FN:60,_RNvMs_NtCsaogGgQeyHx_17tensor4all_treetn18link_index_networkINtB4_16LinkIndexNetworkpE6insertB6_
FN:71,_RNvMs_NtCsaogGgQeyHx_17tensor4all_treetn18link_index_networkINtB4_16LinkIndexNetworkpE6removeB6_
FN:92,_RNvMs_NtCsaogGgQeyHx_17tensor4all_treetn18link_index_networkINtB4_16LinkIndexNetworkpE8containsB6_
FN:142,_RNvMs_NtCsaogGgQeyHx_17tensor4all_treetn18link_index_networkINtB4_16LinkIndexNetworkpE8is_emptyB6_
FN:82,_RNvMs_NtCsaogGgQeyHx_17tensor4all_treetn18link_index_networkINtB4_16LinkIndexNetworkpE9find_edgeB6_
FN:32,_RNvXININtCsaogGgQeyHx_17tensor4all_treetn18link_index_network0pEINtB5_16LinkIndexNetworkpENtNtCskzPJi2J8k3N_4core7default7Default7defaultB7_
FN:42,_RNvMs_NtCsaogGgQeyHx_17tensor4all_treetn18link_index_networkINtB4_16LinkIndexNetworkINtNtNtCsbrO2ourfQV3_15tensor4all_core8defaults5index5IndexNtB1n_5DynIdEE3newCsk8nCQTNnVi9_22tensor4all_itensorlike
FN:60,_RNvMs_NtCsaogGgQeyHx_17tensor4all_treetn18link_index_networkINtB4_16LinkIndexNetworkINtNtNtCsbrO2ourfQV3_15tensor4all_core8defaults5index5IndexNtB1n_5DynIdEE6insertCsk8nCQTNnVi9_22tensor4all_itensorlike
FNDA:8,_RNvMs_NtCsaogGgQeyHx_17tensor4all_treetn18link_index_networkINtB4_16LinkIndexNetworkINtNtNtCsbrO2ourfQV3_15tensor4all_core8defaults5index5IndexNtB1n_5DynIdEE3newCsaRfSWFUMrL5_22tensor4all_itensorlike
FNDA:2,_RNvMs_NtCsaogGgQeyHx_17tensor4all_treetn18link_index_networkINtB4_16LinkIndexNetworkINtNtNtCsbrO2ourfQV3_15tensor4all_core8defaults5index5IndexNtB1n_5DynIdEE6insertCsaRfSWFUMrL5_22tensor4all_itensorlike
FNDA:0,_RNvMs_NtCsaogGgQeyHx_17tensor4all_treetn18link_index_networkINtB4_16LinkIndexNetworkpE11contains_idB6_
FNDA:0,_RNvMs_NtCsaogGgQeyHx_17tensor4all_treetn18link_index_networkINtB4_16LinkIndexNetworkpE13replace_indexB6_
FNDA:0,_RNvMs_NtCsaogGgQeyHx_17tensor4all_treetn18link_index_networkINtB4_16LinkIndexNetworkpE13with_capacityB6_
FNDA:0,_RNvMs_NtCsaogGgQeyHx_17tensor4all_treetn18link_index_networkINtB4_16LinkIndexNetworkpE15find_edge_by_idB6_
FNDA:0,_RNvMs_NtCsaogGgQeyHx_17tensor4all_treetn18link_index_networkINtB4_16LinkIndexNetworkpE3lenB6_
FNDA:0,_RNvMs_NtCsaogGgQeyHx_17tensor4all_treetn18link_index_networkINtB4_16LinkIndexNetworkpE3newB6_
FNDA:0,_RNvMs_NtCsaogGgQeyHx_17tensor4all_treetn18link_index_networkINtB4_16LinkIndexNetworkpE4iterB6_
FNDA:0,_RNvMs_NtCsaogGgQeyHx_17tensor4all_treetn18link_index_networkINtB4_16LinkIndexNetworkpE5clearB6_
FNDA:0,_RNvMs_NtCsaogGgQeyHx_17tensor4all_treetn18link_index_networkINtB4_16LinkIndexNetworkpE6insertB6_
FNDA:0,_RNvMs_NtCsaogGgQeyHx_17tensor4all_treetn18link_index_networkINtB4_16LinkIndexNetworkpE6removeB6_
FNDA:0,_RNvMs_NtCsaogGgQeyHx_17tensor4all_treetn18link_index_networkINtB4_16LinkIndexNetworkpE8containsB6_
FNDA:0,_RNvMs_NtCsaogGgQeyHx_17tensor4all_treetn18link_index_networkINtB4_16LinkIndexNetworkpE8is_emptyB6_
FNDA:0,_RNvMs_NtCsaogGgQeyHx_17tensor4all_treetn18link_index_networkINtB4_16LinkIndexNetworkpE9find_edgeB6_
FNDA:0,_RNvXININtCsaogGgQeyHx_17tensor4all_treetn18link_index_network0pEINtB5_16LinkIndexNetworkpENtNtCskzPJi2J8k3N_4core7default7Default7defaultB7_
FNDA:57,_RNvMs_NtCsaogGgQeyHx_17tensor4all_treetn18link_index_networkINtB4_16LinkIndexNetworkINtNtNtCsbrO2ourfQV3_15tensor4all_core8defaults5index5IndexNtB1n_5DynIdEE3newCsk8nCQTNnVi9_22tensor4all_itensorlike
FNDA:38,_RNvMs_NtCsaogGgQeyHx_17tensor4all_treetn18link_index_networkINtB4_16LinkIndexNetworkINtNtNtCsbrO2ourfQV3_15tensor4all_core8defaults5index5IndexNtB1n_5DynIdEE6insertCsk8nCQTNnVi9_22tensor4all_itensorlike
FNF:14
FNH:2
DA:32,0
DA:33,0
DA:34,0
DA:42,65
DA:43,65
DA:44,65
DA:45,65
DA:46,65
DA:49,0
DA:50,0
DA:51,0
DA:52,0
DA:53,0
DA:60,40
DA:61,40
DA:62,40
DA:71,0
DA:72,0
DA:73,0
DA:82,0
DA:83,0
DA:84,0
DA:87,0
DA:88,0
DA:89,0
DA:92,0
DA:93,0
DA:94,0
DA:97,0
DA:98,0
DA:99,0
DA:110,0
DA:111,0
DA:112,0
DA:113,0
DA:114,0
DA:115,0
DA:116,0
DA:117,0
DA:118,0
DA:120,0
DA:121,0
DA:122,0
DA:123,0
DA:124,0
DA:125,0
DA:126,0
DA:127,0
DA:129,0
DA:130,0
DA:131,0
DA:132,0
DA:134,0
DA:137,0
DA:138,0
DA:139,0
DA:142,0
DA:143,0
DA:144,0
DA:147,0
DA:148,0
DA:149,0
DA:152,0
DA:153,0
DA:154,0
BRF:0
BRH:0
LF:65
LH:8
end_of_record
SF:/Users/ken/git_for_collab4/tensor4all-rs/crates/tensor4all-treetn/src/named_graph.rs
FN:129,_RNCNvMNtCsaogGgQeyHx_17tensor4all_treetn11named_graphINtB4_10NamedGraphjuuE8add_edge0CsaRfSWFUMrL5_22tensor4all_itensorlike
FN:133,_RNCNvMNtCsaogGgQeyHx_17tensor4all_treetn11named_graphINtB4_10NamedGraphjuuE8add_edges_0CsaRfSWFUMrL5_22tensor4all_itensorlike
FN:81,_RNvMNtCsaogGgQeyHx_17tensor4all_treetn11named_graphINtB2_10NamedGraphjNtNtNtCsbrO2ourfQV3_15tensor4all_core8defaults12tensordynlen12TensorDynLenINtNtB1a_5index5IndexNtB2l_5DynIdEE10node_indexCsaRfSWFUMrL5_22tensor4all_itensorlike
FN:204,_RNvMNtCsaogGgQeyHx_17tensor4all_treetn11named_graphINtB2_10NamedGraphjNtNtNtCsbrO2ourfQV3_15tensor4all_core8defaults12tensordynlen12TensorDynLenINtNtB1a_5index5IndexNtB2l_5DynIdEE13contains_nodeCsaRfSWFUMrL5_22tensor4all_itensorlike
FN:45,_RNvMNtCsaogGgQeyHx_17tensor4all_treetn11named_graphINtB2_10NamedGraphjNtNtNtCsbrO2ourfQV3_15tensor4all_core8defaults12tensordynlen12TensorDynLenINtNtB1a_5index5IndexNtB2l_5DynIdEE3newCsaRfSWFUMrL5_22tensor4all_itensorlike
FN:211,_RNvMNtCsaogGgQeyHx_17tensor4all_treetn11named_graphINtB2_10NamedGraphjNtNtNtCsbrO2ourfQV3_15tensor4all_core8defaults12tensordynlen12TensorDynLenINtNtB1a_5index5IndexNtB2l_5DynIdEE5graphCsaRfSWFUMrL5_22tensor4all_itensorlike
FN:65,_RNvMNtCsaogGgQeyHx_17tensor4all_treetn11named_graphINtB2_10NamedGraphjNtNtNtCsbrO2ourfQV3_15tensor4all_core8defaults12tensordynlen12TensorDynLenINtNtB1a_5index5IndexNtB2l_5DynIdEE8add_nodeCsaRfSWFUMrL5_22tensor4all_itensorlike
FN:76,_RNvMNtCsaogGgQeyHx_17tensor4all_treetn11named_graphINtB2_10NamedGraphjNtNtNtCsbrO2ourfQV3_15tensor4all_core8defaults12tensordynlen12TensorDynLenINtNtB1a_5index5IndexNtB2l_5DynIdEE8has_nodeCsaRfSWFUMrL5_22tensor4all_itensorlike
FN:219,_RNvMNtCsaogGgQeyHx_17tensor4all_treetn11named_graphINtB2_10NamedGraphjNtNtNtCsbrO2ourfQV3_15tensor4all_core8defaults12tensordynlen12TensorDynLenINtNtB1a_5index5IndexNtB2l_5DynIdEE9graph_mutCsaRfSWFUMrL5_22tensor4all_itensorlike
FN:86,_RNvMNtCsaogGgQeyHx_17tensor4all_treetn11named_graphINtB2_10NamedGraphjNtNtNtCsbrO2ourfQV3_15tensor4all_core8defaults12tensordynlen12TensorDynLenINtNtB1a_5index5IndexNtB2l_5DynIdEE9node_nameCsaRfSWFUMrL5_22tensor4all_itensorlike
FN:179,_RNvMNtCsaogGgQeyHx_17tensor4all_treetn11named_graphINtB2_10NamedGraphjuuE10edge_countCsaRfSWFUMrL5_22tensor4all_itensorlike
FN:174,_RNvMNtCsaogGgQeyHx_17tensor4all_treetn11named_graphINtB2_10NamedGraphjuuE10node_countCsaRfSWFUMrL5_22tensor4all_itensorlike
FN:81,_RNvMNtCsaogGgQeyHx_17tensor4all_treetn11named_graphINtB2_10NamedGraphjuuE10node_indexCsaRfSWFUMrL5_22tensor4all_itensorlike
FN:169,_RNvMNtCsaogGgQeyHx_17tensor4all_treetn11named_graphINtB2_10NamedGraphjuuE10node_namesCsaRfSWFUMrL5_22tensor4all_itensorlike
FN:256,_RNvMNtCsaogGgQeyHx_17tensor4all_treetn11named_graphINtB2_10NamedGraphjuuE25euler_tour_edges_by_indexCsaRfSWFUMrL5_22tensor4all_itensorlike
FN:312,_RNvMNtCsaogGgQeyHx_17tensor4all_treetn11named_graphINtB2_10NamedGraphjuuE28euler_tour_vertices_by_indexCsaRfSWFUMrL5_22tensor4all_itensorlike
FN:45,_RNvMNtCsaogGgQeyHx_17tensor4all_treetn11named_graphINtB2_10NamedGraphjuuE3newCsaRfSWFUMrL5_22tensor4all_itensorlike
FN:211,_RNvMNtCsaogGgQeyHx_17tensor4all_treetn11named_graphINtB2_10NamedGraphjuuE5graphCsaRfSWFUMrL5_22tensor4all_itensorlike
FN:117,_RNvMNtCsaogGgQeyHx_17tensor4all_treetn11named_graphINtB2_10NamedGraphjuuE8add_edgeCsaRfSWFUMrL5_22tensor4all_itensorlike
FN:65,_RNvMNtCsaogGgQeyHx_17tensor4all_treetn11named_graphINtB2_10NamedGraphjuuE8add_nodeCsaRfSWFUMrL5_22tensor4all_itensorlike
FN:76,_RNvMNtCsaogGgQeyHx_17tensor4all_treetn11named_graphINtB2_10NamedGraphjuuE8has_nodeCsaRfSWFUMrL5_22tensor4all_itensorlike
FN:86,_RNvMNtCsaogGgQeyHx_17tensor4all_treetn11named_graphINtB2_10NamedGraphjuuE9node_nameCsaRfSWFUMrL5_22tensor4all_itensorlike
FN:344,_RNvXs0_NtCsaogGgQeyHx_17tensor4all_treetn11named_graphINtB5_10NamedGraphjNtNtNtCsbrO2ourfQV3_15tensor4all_core8defaults12tensordynlen12TensorDynLenINtNtB1d_5index5IndexNtB2o_5DynIdEENtNtCskzPJi2J8k3N_4core5clone5Clone5cloneCsaRfSWFUMrL5_22tensor4all_itensorlike
FN:344,_RNvXs0_NtCsaogGgQeyHx_17tensor4all_treetn11named_graphINtB5_10NamedGraphjuuENtNtCskzPJi2J8k3N_4core5clone5Clone5cloneCsaRfSWFUMrL5_22tensor4all_itensorlike
FN:162,_RNCNCNvMNtCsaogGgQeyHx_17tensor4all_treetn11named_graphINtB6_10NamedGraphppppE9neighbors00B8_
FN:143,_RNCNvMNtCsaogGgQeyHx_17tensor4all_treetn11named_graphINtB4_10NamedGraphppppE11edge_weight0B6_
FN:200,_RNCNvMNtCsaogGgQeyHx_17tensor4all_treetn11named_graphINtB4_10NamedGraphppppE11remove_edge0B6_
FN:101,_RNCNvMNtCsaogGgQeyHx_17tensor4all_treetn11named_graphINtB4_10NamedGraphppppE13node_data_mut0B6_
FN:152,_RNCNvMNtCsaogGgQeyHx_17tensor4all_treetn11named_graphINtB4_10NamedGraphppppE15edge_weight_mut0B6_
FN:129,_RNCNvMNtCsaogGgQeyHx_17tensor4all_treetn11named_graphINtB4_10NamedGraphppppE8add_edge0B6_
FN:133,_RNCNvMNtCsaogGgQeyHx_17tensor4all_treetn11named_graphINtB4_10NamedGraphppppE8add_edges_0B6_
FN:159,_RNCNvMNtCsaogGgQeyHx_17tensor4all_treetn11named_graphINtB4_10NamedGraphppppE9neighbors0B6_
FN:94,_RNCNvMNtCsaogGgQeyHx_17tensor4all_treetn11named_graphINtB4_10NamedGraphppppE9node_data0B6_
FN:179,_RNvMNtCsaogGgQeyHx_17tensor4all_treetn11named_graphINtB2_10NamedGraphppppE10edge_countB4_
FN:174,_RNvMNtCsaogGgQeyHx_17tensor4all_treetn11named_graphINtB2_10NamedGraphppppE10node_countB4_
FN:81,_RNvMNtCsaogGgQeyHx_17tensor4all_treetn11named_graphINtB2_10NamedGraphppppE10node_indexB4_
FN:169,_RNvMNtCsaogGgQeyHx_17tensor4all_treetn11named_graphINtB2_10NamedGraphppppE10node_namesB4_
FN:138,_RNvMNtCsaogGgQeyHx_17tensor4all_treetn11named_graphINtB2_10NamedGraphppppE11edge_weightB4_
FN:105,_RNvMNtCsaogGgQeyHx_17tensor4all_treetn11named_graphINtB2_10NamedGraphppppE11node_weightB4_
FN:195,_RNvMNtCsaogGgQeyHx_17tensor4all_treetn11named_graphINtB2_10NamedGraphppppE11remove_edgeB4_
FN:186,_RNvMNtCsaogGgQeyHx_17tensor4all_treetn11named_graphINtB2_10NamedGraphppppE11remove_nodeB4_
FN:204,_RNvMNtCsaogGgQeyHx_17tensor4all_treetn11named_graphINtB2_10NamedGraphppppE13contains_nodeB4_
FN:98,_RNvMNtCsaogGgQeyHx_17tensor4all_treetn11named_graphINtB2_10NamedGraphppppE13node_data_mutB4_
FN:54,_RNvMNtCsaogGgQeyHx_17tensor4all_treetn11named_graphINtB2_10NamedGraphppppE13with_capacityB4_
FN:147,_RNvMNtCsaogGgQeyHx_17tensor4all_treetn11named_graphINtB2_10NamedGraphppppE15edge_weight_mutB4_
FN:110,_RNvMNtCsaogGgQeyHx_17tensor4all_treetn11named_graphINtB2_10NamedGraphppppE15node_weight_mutB4_
FN:248,_RNvMNtCsaogGgQeyHx_17tensor4all_treetn11named_graphINtB2_10NamedGraphppppE16euler_tour_edgesB4_
FN:304,_RNvMNtCsaogGgQeyHx_17tensor4all_treetn11named_graphINtB2_10NamedGraphppppE19euler_tour_verticesB4_
FN:256,_RNvMNtCsaogGgQeyHx_17tensor4all_treetn11named_graphINtB2_10NamedGraphppppE25euler_tour_edges_by_indexB4_
FN:312,_RNvMNtCsaogGgQeyHx_17tensor4all_treetn11named_graphINtB2_10NamedGraphppppE28euler_tour_vertices_by_indexB4_
FN:45,_RNvMNtCsaogGgQeyHx_17tensor4all_treetn11named_graphINtB2_10NamedGraphppppE3newB4_
FN:211,_RNvMNtCsaogGgQeyHx_17tensor4all_treetn11named_graphINtB2_10NamedGraphppppE5graphB4_
FN:117,_RNvMNtCsaogGgQeyHx_17tensor4all_treetn11named_graphINtB2_10NamedGraphppppE8add_edgeB4_
FN:65,_RNvMNtCsaogGgQeyHx_17tensor4all_treetn11named_graphINtB2_10NamedGraphppppE8add_nodeB4_
FN:76,_RNvMNtCsaogGgQeyHx_17tensor4all_treetn11named_graphINtB2_10NamedGraphppppE8has_nodeB4_
FN:219,_RNvMNtCsaogGgQeyHx_17tensor4all_treetn11named_graphINtB2_10NamedGraphppppE9graph_mutB4_
FN:156,_RNvMNtCsaogGgQeyHx_17tensor4all_treetn11named_graphINtB2_10NamedGraphppppE9neighborsB4_
FN:91,_RNvMNtCsaogGgQeyHx_17tensor4all_treetn11named_graphINtB2_10NamedGraphppppE9node_dataB4_
FN:86,_RNvMNtCsaogGgQeyHx_17tensor4all_treetn11named_graphINtB2_10NamedGraphppppE9node_nameB4_
FN:344,_RNvXININtCsaogGgQeyHx_17tensor4all_treetn11named_graphs0_0ppppEINtB5_10NamedGraphppppENtNtCskzPJi2J8k3N_4core5clone5Clone5cloneB7_
FN:360,_RNvXININtCsaogGgQeyHx_17tensor4all_treetn11named_graphs1_0ppppEINtB5_10NamedGraphppppENtNtCskzPJi2J8k3N_4core3fmt5Debug3fmtB7_
FN:332,_RNvXININtCsaogGgQeyHx_17tensor4all_treetn11named_graphs_0ppppEINtB5_10NamedGraphppppENtNtCskzPJi2J8k3N_4core7default7Default7defaultB7_
FN:129,_RNCNvMNtCsaogGgQeyHx_17tensor4all_treetn11named_graphINtB4_10NamedGraphjuuE8add_edge0Csk8nCQTNnVi9_22tensor4all_itensorlike
FN:133,_RNCNvMNtCsaogGgQeyHx_17tensor4all_treetn11named_graphINtB4_10NamedGraphjuuE8add_edges_0Csk8nCQTNnVi9_22tensor4all_itensorlike
FN:81,_RNvMNtCsaogGgQeyHx_17tensor4all_treetn11named_graphINtB2_10NamedGraphjNtNtNtCsbrO2ourfQV3_15tensor4all_core8defaults12tensordynlen12TensorDynLenINtNtB1a_5index5IndexNtB2l_5DynIdEE10node_indexCsk8nCQTNnVi9_22tensor4all_itensorlike
FN:204,_RNvMNtCsaogGgQeyHx_17tensor4all_treetn11named_graphINtB2_10NamedGraphjNtNtNtCsbrO2ourfQV3_15tensor4all_core8defaults12tensordynlen12TensorDynLenINtNtB1a_5index5IndexNtB2l_5DynIdEE13contains_nodeCsk8nCQTNnVi9_22tensor4all_itensorlike
FN:45,_RNvMNtCsaogGgQeyHx_17tensor4all_treetn11named_graphINtB2_10NamedGraphjNtNtNtCsbrO2ourfQV3_15tensor4all_core8defaults12tensordynlen12TensorDynLenINtNtB1a_5index5IndexNtB2l_5DynIdEE3newCsk8nCQTNnVi9_22tensor4all_itensorlike
FN:211,_RNvMNtCsaogGgQeyHx_17tensor4all_treetn11named_graphINtB2_10NamedGraphjNtNtNtCsbrO2ourfQV3_15tensor4all_core8defaults12tensordynlen12TensorDynLenINtNtB1a_5index5IndexNtB2l_5DynIdEE5graphCsk8nCQTNnVi9_22tensor4all_itensorlike
FN:65,_RNvMNtCsaogGgQeyHx_17tensor4all_treetn11named_graphINtB2_10NamedGraphjNtNtNtCsbrO2ourfQV3_15tensor4all_core8defaults12tensordynlen12TensorDynLenINtNtB1a_5index5IndexNtB2l_5DynIdEE8add_nodeCsk8nCQTNnVi9_22tensor4all_itensorlike
FN:76,_RNvMNtCsaogGgQeyHx_17tensor4all_treetn11named_graphINtB2_10NamedGraphjNtNtNtCsbrO2ourfQV3_15tensor4all_core8defaults12tensordynlen12TensorDynLenINtNtB1a_5index5IndexNtB2l_5DynIdEE8has_nodeCsk8nCQTNnVi9_22tensor4all_itensorlike
FN:219,_RNvMNtCsaogGgQeyHx_17tensor4all_treetn11named_graphINtB2_10NamedGraphjNtNtNtCsbrO2ourfQV3_15tensor4all_core8defaults12tensordynlen12TensorDynLenINtNtB1a_5index5IndexNtB2l_5DynIdEE9graph_mutCsk8nCQTNnVi9_22tensor4all_itensorlike
FN:86,_RNvMNtCsaogGgQeyHx_17tensor4all_treetn11named_graphINtB2_10NamedGraphjNtNtNtCsbrO2ourfQV3_15tensor4all_core8defaults12tensordynlen12TensorDynLenINtNtB1a_5index5IndexNtB2l_5DynIdEE9node_nameCsk8nCQTNnVi9_22tensor4all_itensorlike
FN:179,_RNvMNtCsaogGgQeyHx_17tensor4all_treetn11named_graphINtB2_10NamedGraphjuuE10edge_countCsk8nCQTNnVi9_22tensor4all_itensorlike
FN:174,_RNvMNtCsaogGgQeyHx_17tensor4all_treetn11named_graphINtB2_10NamedGraphjuuE10node_countCsk8nCQTNnVi9_22tensor4all_itensorlike
FN:81,_RNvMNtCsaogGgQeyHx_17tensor4all_treetn11named_graphINtB2_10NamedGraphjuuE10node_indexCsk8nCQTNnVi9_22tensor4all_itensorlike
FN:169,_RNvMNtCsaogGgQeyHx_17tensor4all_treetn11named_graphINtB2_10NamedGraphjuuE10node_namesCsk8nCQTNnVi9_22tensor4all_itensorlike
FN:256,_RNvMNtCsaogGgQeyHx_17tensor4all_treetn11named_graphINtB2_10NamedGraphjuuE25euler_tour_edges_by_indexCsk8nCQTNnVi9_22tensor4all_itensorlike
FN:312,_RNvMNtCsaogGgQeyHx_17tensor4all_treetn11named_graphINtB2_10NamedGraphjuuE28euler_tour_vertices_by_indexCsk8nCQTNnVi9_22tensor4all_itensorlike
FN:45,_RNvMNtCsaogGgQeyHx_17tensor4all_treetn11named_graphINtB2_10NamedGraphjuuE3newCsk8nCQTNnVi9_22tensor4all_itensorlike
FN:211,_RNvMNtCsaogGgQeyHx_17tensor4all_treetn11named_graphINtB2_10NamedGraphjuuE5graphCsk8nCQTNnVi9_22tensor4all_itensorlike
FN:117,_RNvMNtCsaogGgQeyHx_17tensor4all_treetn11named_graphINtB2_10NamedGraphjuuE8add_edgeCsk8nCQTNnVi9_22tensor4all_itensorlike
FN:65,_RNvMNtCsaogGgQeyHx_17tensor4all_treetn11named_graphINtB2_10NamedGraphjuuE8add_nodeCsk8nCQTNnVi9_22tensor4all_itensorlike
FN:76,_RNvMNtCsaogGgQeyHx_17tensor4all_treetn11named_graphINtB2_10NamedGraphjuuE8has_nodeCsk8nCQTNnVi9_22tensor4all_itensorlike
FN:86,_RNvMNtCsaogGgQeyHx_17tensor4all_treetn11named_graphINtB2_10NamedGraphjuuE9node_nameCsk8nCQTNnVi9_22tensor4all_itensorlike
FN:344,_RNvXs0_NtCsaogGgQeyHx_17tensor4all_treetn11named_graphINtB5_10NamedGraphjNtNtNtCsbrO2ourfQV3_15tensor4all_core8defaults12tensordynlen12TensorDynLenINtNtB1d_5index5IndexNtB2o_5DynIdEENtNtCskzPJi2J8k3N_4core5clone5Clone5cloneCsk8nCQTNnVi9_22tensor4all_itensorlike
FN:344,_RNvXs0_NtCsaogGgQeyHx_17tensor4all_treetn11named_graphINtB5_10NamedGraphjuuENtNtCskzPJi2J8k3N_4core5clone5Clone5cloneCsk8nCQTNnVi9_22tensor4all_itensorlike
FNDA:0,_RNCNvMNtCsaogGgQeyHx_17tensor4all_treetn11named_graphINtB4_10NamedGraphjuuE8add_edge0CsaRfSWFUMrL5_22tensor4all_itensorlike
FNDA:0,_RNCNvMNtCsaogGgQeyHx_17tensor4all_treetn11named_graphINtB4_10NamedGraphjuuE8add_edges_0CsaRfSWFUMrL5_22tensor4all_itensorlike
FNDA:14,_RNvMNtCsaogGgQeyHx_17tensor4all_treetn11named_graphINtB2_10NamedGraphjNtNtNtCsbrO2ourfQV3_15tensor4all_core8defaults12tensordynlen12TensorDynLenINtNtB1a_5index5IndexNtB2l_5DynIdEE10node_indexCsaRfSWFUMrL5_22tensor4all_itensorlike
FNDA:4,_RNvMNtCsaogGgQeyHx_17tensor4all_treetn11named_graphINtB2_10NamedGraphjNtNtNtCsbrO2ourfQV3_15tensor4all_core8defaults12tensordynlen12TensorDynLenINtNtB1a_5index5IndexNtB2l_5DynIdEE13contains_nodeCsaRfSWFUMrL5_22tensor4all_itensorlike
FNDA:8,_RNvMNtCsaogGgQeyHx_17tensor4all_treetn11named_graphINtB2_10NamedGraphjNtNtNtCsbrO2ourfQV3_15tensor4all_core8defaults12tensordynlen12TensorDynLenINtNtB1a_5index5IndexNtB2l_5DynIdEE3newCsaRfSWFUMrL5_22tensor4all_itensorlike
FNDA:65,_RNvMNtCsaogGgQeyHx_17tensor4all_treetn11named_graphINtB2_10NamedGraphjNtNtNtCsbrO2ourfQV3_15tensor4all_core8defaults12tensordynlen12TensorDynLenINtNtB1a_5index5IndexNtB2l_5DynIdEE5graphCsaRfSWFUMrL5_22tensor4all_itensorlike
FNDA:9,_RNvMNtCsaogGgQeyHx_17tensor4all_treetn11named_graphINtB2_10NamedGraphjNtNtNtCsbrO2ourfQV3_15tensor4all_core8defaults12tensordynlen12TensorDynLenINtNtB1a_5index5IndexNtB2l_5DynIdEE8add_nodeCsaRfSWFUMrL5_22tensor4all_itensorlike
FNDA:1,_RNvMNtCsaogGgQeyHx_17tensor4all_treetn11named_graphINtB2_10NamedGraphjNtNtNtCsbrO2ourfQV3_15tensor4all_core8defaults12tensordynlen12TensorDynLenINtNtB1a_5index5IndexNtB2l_5DynIdEE8has_nodeCsaRfSWFUMrL5_22tensor4all_itensorlike
FNDA:2,_RNvMNtCsaogGgQeyHx_17tensor4all_treetn11named_graphINtB2_10NamedGraphjNtNtNtCsbrO2ourfQV3_15tensor4all_core8defaults12tensordynlen12TensorDynLenINtNtB1a_5index5IndexNtB2l_5DynIdEE9graph_mutCsaRfSWFUMrL5_22tensor4all_itensorlike
FNDA:13,_RNvMNtCsaogGgQeyHx_17tensor4all_treetn11named_graphINtB2_10NamedGraphjNtNtNtCsbrO2ourfQV3_15tensor4all_core8defaults12tensordynlen12TensorDynLenINtNtB1a_5index5IndexNtB2l_5DynIdEE9node_nameCsaRfSWFUMrL5_22tensor4all_itensorlike
FNDA:14,_RNvMNtCsaogGgQeyHx_17tensor4all_treetn11named_graphINtB2_10NamedGraphjuuE10edge_countCsaRfSWFUMrL5_22tensor4all_itensorlike
FNDA:14,_RNvMNtCsaogGgQeyHx_17tensor4all_treetn11named_graphINtB2_10NamedGraphjuuE10node_countCsaRfSWFUMrL5_22tensor4all_itensorlike
FNDA:19,_RNvMNtCsaogGgQeyHx_17tensor4all_treetn11named_graphINtB2_10NamedGraphjuuE10node_indexCsaRfSWFUMrL5_22tensor4all_itensorlike
FNDA:17,_RNvMNtCsaogGgQeyHx_17tensor4all_treetn11named_graphINtB2_10NamedGraphjuuE10node_namesCsaRfSWFUMrL5_22tensor4all_itensorlike
FNDA:0,_RNvMNtCsaogGgQeyHx_17tensor4all_treetn11named_graphINtB2_10NamedGraphjuuE25euler_tour_edges_by_indexCsaRfSWFUMrL5_22tensor4all_itensorlike
FNDA:0,_RNvMNtCsaogGgQeyHx_17tensor4all_treetn11named_graphINtB2_10NamedGraphjuuE28euler_tour_vertices_by_indexCsaRfSWFUMrL5_22tensor4all_itensorlike
FNDA:8,_RNvMNtCsaogGgQeyHx_17tensor4all_treetn11named_graphINtB2_10NamedGraphjuuE3newCsaRfSWFUMrL5_22tensor4all_itensorlike
FNDA:18,_RNvMNtCsaogGgQeyHx_17tensor4all_treetn11named_graphINtB2_10NamedGraphjuuE5graphCsaRfSWFUMrL5_22tensor4all_itensorlike
FNDA:2,_RNvMNtCsaogGgQeyHx_17tensor4all_treetn11named_graphINtB2_10NamedGraphjuuE8add_edgeCsaRfSWFUMrL5_22tensor4all_itensorlike
FNDA:9,_RNvMNtCsaogGgQeyHx_17tensor4all_treetn11named_graphINtB2_10NamedGraphjuuE8add_nodeCsaRfSWFUMrL5_22tensor4all_itensorlike
FNDA:9,_RNvMNtCsaogGgQeyHx_17tensor4all_treetn11named_graphINtB2_10NamedGraphjuuE8has_nodeCsaRfSWFUMrL5_22tensor4all_itensorlike
FNDA:8,_RNvMNtCsaogGgQeyHx_17tensor4all_treetn11named_graphINtB2_10NamedGraphjuuE9node_nameCsaRfSWFUMrL5_22tensor4all_itensorlike
FNDA:3,_RNvXs0_NtCsaogGgQeyHx_17tensor4all_treetn11named_graphINtB5_10NamedGraphjNtNtNtCsbrO2ourfQV3_15tensor4all_core8defaults12tensordynlen12TensorDynLenINtNtB1d_5index5IndexNtB2o_5DynIdEENtNtCskzPJi2J8k3N_4core5clone5Clone5cloneCsaRfSWFUMrL5_22tensor4all_itensorlike
FNDA:3,_RNvXs0_NtCsaogGgQeyHx_17tensor4all_treetn11named_graphINtB5_10NamedGraphjuuENtNtCskzPJi2J8k3N_4core5clone5Clone5cloneCsaRfSWFUMrL5_22tensor4all_itensorlike
FNDA:0,_RNCNCNvMNtCsaogGgQeyHx_17tensor4all_treetn11named_graphINtB6_10NamedGraphppppE9neighbors00B8_
FNDA:0,_RNCNvMNtCsaogGgQeyHx_17tensor4all_treetn11named_graphINtB4_10NamedGraphppppE11edge_weight0B6_
FNDA:0,_RNCNvMNtCsaogGgQeyHx_17tensor4all_treetn11named_graphINtB4_10NamedGraphppppE11remove_edge0B6_
FNDA:0,_RNCNvMNtCsaogGgQeyHx_17tensor4all_treetn11named_graphINtB4_10NamedGraphppppE13node_data_mut0B6_
FNDA:0,_RNCNvMNtCsaogGgQeyHx_17tensor4all_treetn11named_graphINtB4_10NamedGraphppppE15edge_weight_mut0B6_
FNDA:0,_RNCNvMNtCsaogGgQeyHx_17tensor4all_treetn11named_graphINtB4_10NamedGraphppppE8add_edge0B6_
FNDA:0,_RNCNvMNtCsaogGgQeyHx_17tensor4all_treetn11named_graphINtB4_10NamedGraphppppE8add_edges_0B6_
FNDA:0,_RNCNvMNtCsaogGgQeyHx_17tensor4all_treetn11named_graphINtB4_10NamedGraphppppE9neighbors0B6_
FNDA:0,_RNCNvMNtCsaogGgQeyHx_17tensor4all_treetn11named_graphINtB4_10NamedGraphppppE9node_data0B6_
FNDA:0,_RNvMNtCsaogGgQeyHx_17tensor4all_treetn11named_graphINtB2_10NamedGraphppppE10edge_countB4_
FNDA:0,_RNvMNtCsaogGgQeyHx_17tensor4all_treetn11named_graphINtB2_10NamedGraphppppE10node_countB4_
FNDA:0,_RNvMNtCsaogGgQeyHx_17tensor4all_treetn11named_graphINtB2_10NamedGraphppppE10node_indexB4_
FNDA:0,_RNvMNtCsaogGgQeyHx_17tensor4all_treetn11named_graphINtB2_10NamedGraphppppE10node_namesB4_
FNDA:0,_RNvMNtCsaogGgQeyHx_17tensor4all_treetn11named_graphINtB2_10NamedGraphppppE11edge_weightB4_
FNDA:0,_RNvMNtCsaogGgQeyHx_17tensor4all_treetn11named_graphINtB2_10NamedGraphppppE11node_weightB4_
FNDA:0,_RNvMNtCsaogGgQeyHx_17tensor4all_treetn11named_graphINtB2_10NamedGraphppppE11remove_edgeB4_
FNDA:0,_RNvMNtCsaogGgQeyHx_17tensor4all_treetn11named_graphINtB2_10NamedGraphppppE11remove_nodeB4_
FNDA:0,_RNvMNtCsaogGgQeyHx_17tensor4all_treetn11named_graphINtB2_10NamedGraphppppE13contains_nodeB4_
FNDA:0,_RNvMNtCsaogGgQeyHx_17tensor4all_treetn11named_graphINtB2_10NamedGraphppppE13node_data_mutB4_
FNDA:0,_RNvMNtCsaogGgQeyHx_17tensor4all_treetn11named_graphINtB2_10NamedGraphppppE13with_capacityB4_
FNDA:0,_RNvMNtCsaogGgQeyHx_17tensor4all_treetn11named_graphINtB2_10NamedGraphppppE15edge_weight_mutB4_
FNDA:0,_RNvMNtCsaogGgQeyHx_17tensor4all_treetn11named_graphINtB2_10NamedGraphppppE15node_weight_mutB4_
FNDA:0,_RNvMNtCsaogGgQeyHx_17tensor4all_treetn11named_graphINtB2_10NamedGraphppppE16euler_tour_edgesB4_
FNDA:0,_RNvMNtCsaogGgQeyHx_17tensor4all_treetn11named_graphINtB2_10NamedGraphppppE19euler_tour_verticesB4_
FNDA:0,_RNvMNtCsaogGgQeyHx_17tensor4all_treetn11named_graphINtB2_10NamedGraphppppE25euler_tour_edges_by_indexB4_
FNDA:0,_RNvMNtCsaogGgQeyHx_17tensor4all_treetn11named_graphINtB2_10NamedGraphppppE28euler_tour_vertices_by_indexB4_
FNDA:0,_RNvMNtCsaogGgQeyHx_17tensor4all_treetn11named_graphINtB2_10NamedGraphppppE3newB4_
FNDA:0,_RNvMNtCsaogGgQeyHx_17tensor4all_treetn11named_graphINtB2_10NamedGraphppppE5graphB4_
FNDA:0,_RNvMNtCsaogGgQeyHx_17tensor4all_treetn11named_graphINtB2_10NamedGraphppppE8add_edgeB4_
FNDA:0,_RNvMNtCsaogGgQeyHx_17tensor4all_treetn11named_graphINtB2_10NamedGraphppppE8add_nodeB4_
FNDA:0,_RNvMNtCsaogGgQeyHx_17tensor4all_treetn11named_graphINtB2_10NamedGraphppppE8has_nodeB4_
FNDA:0,_RNvMNtCsaogGgQeyHx_17tensor4all_treetn11named_graphINtB2_10NamedGraphppppE9graph_mutB4_
FNDA:0,_RNvMNtCsaogGgQeyHx_17tensor4all_treetn11named_graphINtB2_10NamedGraphppppE9neighborsB4_
FNDA:0,_RNvMNtCsaogGgQeyHx_17tensor4all_treetn11named_graphINtB2_10NamedGraphppppE9node_dataB4_
FNDA:0,_RNvMNtCsaogGgQeyHx_17tensor4all_treetn11named_graphINtB2_10NamedGraphppppE9node_nameB4_
FNDA:0,_RNvXININtCsaogGgQeyHx_17tensor4all_treetn11named_graphs0_0ppppEINtB5_10NamedGraphppppENtNtCskzPJi2J8k3N_4core5clone5Clone5cloneB7_
FNDA:0,_RNvXININtCsaogGgQeyHx_17tensor4all_treetn11named_graphs1_0ppppEINtB5_10NamedGraphppppENtNtCskzPJi2J8k3N_4core3fmt5Debug3fmtB7_
FNDA:0,_RNvXININtCsaogGgQeyHx_17tensor4all_treetn11named_graphs_0ppppEINtB5_10NamedGraphppppENtNtCskzPJi2J8k3N_4core7default7Default7defaultB7_
FNDA:0,_RNCNvMNtCsaogGgQeyHx_17tensor4all_treetn11named_graphINtB4_10NamedGraphjuuE8add_edge0Csk8nCQTNnVi9_22tensor4all_itensorlike
FNDA:0,_RNCNvMNtCsaogGgQeyHx_17tensor4all_treetn11named_graphINtB4_10NamedGraphjuuE8add_edges_0Csk8nCQTNnVi9_22tensor4all_itensorlike
FNDA:283,_RNvMNtCsaogGgQeyHx_17tensor4all_treetn11named_graphINtB2_10NamedGraphjNtNtNtCsbrO2ourfQV3_15tensor4all_core8defaults12tensordynlen12TensorDynLenINtNtB1a_5index5IndexNtB2l_5DynIdEE10node_indexCsk8nCQTNnVi9_22tensor4all_itensorlike
FNDA:116,_RNvMNtCsaogGgQeyHx_17tensor4all_treetn11named_graphINtB2_10NamedGraphjNtNtNtCsbrO2ourfQV3_15tensor4all_core8defaults12tensordynlen12TensorDynLenINtNtB1a_5index5IndexNtB2l_5DynIdEE13contains_nodeCsk8nCQTNnVi9_22tensor4all_itensorlike
FNDA:57,_RNvMNtCsaogGgQeyHx_17tensor4all_treetn11named_graphINtB2_10NamedGraphjNtNtNtCsbrO2ourfQV3_15tensor4all_core8defaults12tensordynlen12TensorDynLenINtNtB1a_5index5IndexNtB2l_5DynIdEE3newCsk8nCQTNnVi9_22tensor4all_itensorlike
FNDA:869,_RNvMNtCsaogGgQeyHx_17tensor4all_treetn11named_graphINtB2_10NamedGraphjNtNtNtCsbrO2ourfQV3_15tensor4all_core8defaults12tensordynlen12TensorDynLenINtNtB1a_5index5IndexNtB2l_5DynIdEE5graphCsk8nCQTNnVi9_22tensor4all_itensorlike
FNDA:87,_RNvMNtCsaogGgQeyHx_17tensor4all_treetn11named_graphINtB2_10NamedGraphjNtNtNtCsbrO2ourfQV3_15tensor4all_core8defaults12tensordynlen12TensorDynLenINtNtB1a_5index5IndexNtB2l_5DynIdEE8add_nodeCsk8nCQTNnVi9_22tensor4all_itensorlike
FNDA:21,_RNvMNtCsaogGgQeyHx_17tensor4all_treetn11named_graphINtB2_10NamedGraphjNtNtNtCsbrO2ourfQV3_15tensor4all_core8defaults12tensordynlen12TensorDynLenINtNtB1a_5index5IndexNtB2l_5DynIdEE8has_nodeCsk8nCQTNnVi9_22tensor4all_itensorlike
FNDA:98,_RNvMNtCsaogGgQeyHx_17tensor4all_treetn11named_graphINtB2_10NamedGraphjNtNtNtCsbrO2ourfQV3_15tensor4all_core8defaults12tensordynlen12TensorDynLenINtNtB1a_5index5IndexNtB2l_5DynIdEE9graph_mutCsk8nCQTNnVi9_22tensor4all_itensorlike
FNDA:263,_RNvMNtCsaogGgQeyHx_17tensor4all_treetn11named_graphINtB2_10NamedGraphjNtNtNtCsbrO2ourfQV3_15tensor4all_core8defaults12tensordynlen12TensorDynLenINtNtB1a_5index5IndexNtB2l_5DynIdEE9node_nameCsk8nCQTNnVi9_22tensor4all_itensorlike
FNDA:94,_RNvMNtCsaogGgQeyHx_17tensor4all_treetn11named_graphINtB2_10NamedGraphjuuE10edge_countCsk8nCQTNnVi9_22tensor4all_itensorlike
FNDA:94,_RNvMNtCsaogGgQeyHx_17tensor4all_treetn11named_graphINtB2_10NamedGraphjuuE10node_countCsk8nCQTNnVi9_22tensor4all_itensorlike
FNDA:191,_RNvMNtCsaogGgQeyHx_17tensor4all_treetn11named_graphINtB2_10NamedGraphjuuE10node_indexCsk8nCQTNnVi9_22tensor4all_itensorlike
FNDA:113,_RNvMNtCsaogGgQeyHx_17tensor4all_treetn11named_graphINtB2_10NamedGraphjuuE10node_namesCsk8nCQTNnVi9_22tensor4all_itensorlike
FNDA:3,_RNvMNtCsaogGgQeyHx_17tensor4all_treetn11named_graphINtB2_10NamedGraphjuuE25euler_tour_edges_by_indexCsk8nCQTNnVi9_22tensor4all_itensorlike
FNDA:0,_RNvMNtCsaogGgQeyHx_17tensor4all_treetn11named_graphINtB2_10NamedGraphjuuE28euler_tour_vertices_by_indexCsk8nCQTNnVi9_22tensor4all_itensorlike
FNDA:57,_RNvMNtCsaogGgQeyHx_17tensor4all_treetn11named_graphINtB2_10NamedGraphjuuE3newCsk8nCQTNnVi9_22tensor4all_itensorlike
FNDA:174,_RNvMNtCsaogGgQeyHx_17tensor4all_treetn11named_graphINtB2_10NamedGraphjuuE5graphCsk8nCQTNnVi9_22tensor4all_itensorlike
FNDA:38,_RNvMNtCsaogGgQeyHx_17tensor4all_treetn11named_graphINtB2_10NamedGraphjuuE8add_edgeCsk8nCQTNnVi9_22tensor4all_itensorlike
FNDA:87,_RNvMNtCsaogGgQeyHx_17tensor4all_treetn11named_graphINtB2_10NamedGraphjuuE8add_nodeCsk8nCQTNnVi9_22tensor4all_itensorlike
FNDA:81,_RNvMNtCsaogGgQeyHx_17tensor4all_treetn11named_graphINtB2_10NamedGraphjuuE8has_nodeCsk8nCQTNnVi9_22tensor4all_itensorlike
FNDA:180,_RNvMNtCsaogGgQeyHx_17tensor4all_treetn11named_graphINtB2_10NamedGraphjuuE9node_nameCsk8nCQTNnVi9_22tensor4all_itensorlike
FNDA:10,_RNvXs0_NtCsaogGgQeyHx_17tensor4all_treetn11named_graphINtB5_10NamedGraphjNtNtNtCsbrO2ourfQV3_15tensor4all_core8defaults12tensordynlen12TensorDynLenINtNtB1d_5index5IndexNtB2o_5DynIdEENtNtCskzPJi2J8k3N_4core5clone5Clone5cloneCsk8nCQTNnVi9_22tensor4all_itensorlike
FNDA:10,_RNvXs0_NtCsaogGgQeyHx_17tensor4all_treetn11named_graphINtB5_10NamedGraphjuuENtNtCskzPJi2J8k3N_4core5clone5Clone5cloneCsk8nCQTNnVi9_22tensor4all_itensorlike
FNF:38
FNH:14
DA:45,130
DA:46,130
DA:47,130
DA:48,130
DA:49,130
DA:50,130
DA:51,130
DA:54,0
DA:55,0
DA:56,0
DA:57,0
DA:58,0
DA:59,0
DA:60,0
DA:65,192
DA:66,192
DA:67,0
DA:68,192
DA:69,192
DA:70,192
DA:71,192
DA:72,192
DA:73,192
DA:76,112
DA:77,112
DA:78,112
DA:81,507
DA:82,507
DA:83,507
DA:86,464
DA:87,464
DA:88,464
DA:91,0
DA:92,0
DA:93,0
DA:94,0
DA:95,0
DA:98,0
DA:99,0
DA:100,0
DA:101,0
DA:102,0
DA:105,0
DA:106,0
DA:107,0
DA:110,0
DA:111,0
DA:112,0
DA:117,40
DA:118,40
DA:119,40
DA:120,40
DA:121,40
DA:122,40
DA:123,40
DA:124,40
DA:126,40
DA:127,40
DA:128,40
DA:129,40
DA:130,40
DA:131,40
DA:132,40
DA:133,40
DA:134,40
DA:135,40
DA:138,0
DA:139,0
DA:140,0
DA:141,0
DA:142,0
DA:143,0
DA:144,0
DA:147,0
DA:148,0
DA:149,0
DA:150,0
DA:151,0
DA:152,0
DA:153,0
DA:156,0
DA:157,0
DA:158,0
DA:159,0
DA:160,0
DA:161,0
DA:162,0
DA:163,0
DA:164,0
DA:165,0
DA:166,0
DA:169,130
DA:170,130
DA:171,130
DA:174,108
DA:175,108
DA:176,108
DA:179,108
DA:180,108
DA:181,108
DA:186,0
DA:187,0
DA:188,0
DA:189,0
DA:190,0
DA:195,0
DA:196,0
DA:197,0
DA:198,0
DA:199,0
DA:200,0
DA:201,0
DA:204,120
DA:205,120
DA:206,120
DA:211,1126
DA:212,1126
DA:213,1126
DA:219,100
DA:220,100
DA:221,100
DA:248,0
DA:249,0
DA:250,0
DA:251,0
DA:256,3
DA:257,3
DA:258,3
DA:259,3
DA:261,10
DA:262,7
DA:265,7
DA:266,7
DA:268,2
DA:269,2
DA:271,2
DA:273,2
DA:274,2
DA:275,2
DA:276,5
DA:279,7
DA:281,5
DA:282,5
DA:283,2
DA:284,2
DA:285,3
DA:286,2
DA:289,3
DA:290,3
DA:304,0
DA:305,0
DA:306,0
DA:307,0
DA:312,0
DA:313,0
DA:314,0
DA:316,0
DA:317,0
DA:319,0
DA:320,0
DA:321,0
DA:322,0
DA:323,0
DA:324,0
DA:332,0
DA:333,0
DA:334,0
DA:344,26
DA:345,26
DA:346,26
DA:347,26
DA:348,26
DA:349,26
DA:350,26
DA:360,0
DA:361,0
DA:362,0
DA:363,0
DA:364,0
DA:365,0
DA:366,0
BRF:0
BRH:0
LF:190
LH:91
end_of_record
SF:/Users/ken/git_for_collab4/tensor4all-rs/crates/tensor4all-treetn/src/node_name_network.rs
FN:298,_RNCNvMs1_NtCsaogGgQeyHx_17tensor4all_treetn17node_name_networkINtB7_15NodeNameNetworkjE12path_between0CsaRfSWFUMrL5_22tensor4all_itensorlike
FN:591,_RNCNvMs1_NtCsaogGgQeyHx_17tensor4all_treetn17node_name_networkINtB7_15NodeNameNetworkjE13same_topology0CsaRfSWFUMrL5_22tensor4all_itensorlike
FN:597,_RNCNvMs1_NtCsaogGgQeyHx_17tensor4all_treetn17node_name_networkINtB7_15NodeNameNetworkjE13same_topologys_0CsaRfSWFUMrL5_22tensor4all_itensorlike
FN:343,_RNCNvMs1_NtCsaogGgQeyHx_17tensor4all_treetn17node_name_networkINtB7_15NodeNameNetworkjE14nodes_to_edges0CsaRfSWFUMrL5_22tensor4all_itensorlike
FN:408,_RNCNvMs1_NtCsaogGgQeyHx_17tensor4all_treetn17node_name_networkINtB7_15NodeNameNetworkjE30edges_to_canonicalize_by_names0CsaRfSWFUMrL5_22tensor4all_itensorlike
FN:498,_RNCNvMs1_NtCsaogGgQeyHx_17tensor4all_treetn17node_name_networkINtB7_15NodeNameNetworkjE31edges_to_canonicalize_to_region0CsaRfSWFUMrL5_22tensor4all_itensorlike
FN:513,_RNCNvMs1_NtCsaogGgQeyHx_17tensor4all_treetn17node_name_networkINtB7_15NodeNameNetworkjE31edges_to_canonicalize_to_regions0_0CsaRfSWFUMrL5_22tensor4all_itensorlike
FN:516,_RNCNvMs1_NtCsaogGgQeyHx_17tensor4all_treetn17node_name_networkINtB7_15NodeNameNetworkjE31edges_to_canonicalize_to_regions1_0CsaRfSWFUMrL5_22tensor4all_itensorlike
FN:520,_RNCNvMs1_NtCsaogGgQeyHx_17tensor4all_treetn17node_name_networkINtB7_15NodeNameNetworkjE31edges_to_canonicalize_to_regions2_0CsaRfSWFUMrL5_22tensor4all_itensorlike
FN:512,_RNCNvMs1_NtCsaogGgQeyHx_17tensor4all_treetn17node_name_networkINtB7_15NodeNameNetworkjE31edges_to_canonicalize_to_regions_0CsaRfSWFUMrL5_22tensor4all_itensorlike
FN:190,_RNvMs1_NtCsaogGgQeyHx_17tensor4all_treetn17node_name_networkINtB5_15NodeNameNetworkjE10edge_countCsaRfSWFUMrL5_22tensor4all_itensorlike
FN:185,_RNvMs1_NtCsaogGgQeyHx_17tensor4all_treetn17node_name_networkINtB5_15NodeNameNetworkjE10node_countCsaRfSWFUMrL5_22tensor4all_itensorlike
FN:170,_RNvMs1_NtCsaogGgQeyHx_17tensor4all_treetn17node_name_networkINtB5_15NodeNameNetworkjE10node_indexCsaRfSWFUMrL5_22tensor4all_itensorlike
FN:180,_RNvMs1_NtCsaogGgQeyHx_17tensor4all_treetn17node_name_networkINtB5_15NodeNameNetworkjE10node_namesCsaRfSWFUMrL5_22tensor4all_itensorlike
FN:281,_RNvMs1_NtCsaogGgQeyHx_17tensor4all_treetn17node_name_networkINtB5_15NodeNameNetworkjE12path_betweenCsaRfSWFUMrL5_22tensor4all_itensorlike
FN:565,_RNvMs1_NtCsaogGgQeyHx_17tensor4all_treetn17node_name_networkINtB5_15NodeNameNetworkjE13same_topologyCsaRfSWFUMrL5_22tensor4all_itensorlike
FN:339,_RNvMs1_NtCsaogGgQeyHx_17tensor4all_treetn17node_name_networkINtB5_15NodeNameNetworkjE14nodes_to_edgesCsaRfSWFUMrL5_22tensor4all_itensorlike
FN:312,_RNvMs1_NtCsaogGgQeyHx_17tensor4all_treetn17node_name_networkINtB5_15NodeNameNetworkjE19is_connected_subsetCsaRfSWFUMrL5_22tensor4all_itensorlike
FN:419,_RNvMs1_NtCsaogGgQeyHx_17tensor4all_treetn17node_name_networkINtB5_15NodeNameNetworkjE20compute_parent_edgesCsaRfSWFUMrL5_22tensor4all_itensorlike
FN:355,_RNvMs1_NtCsaogGgQeyHx_17tensor4all_treetn17node_name_networkINtB5_15NodeNameNetworkjE21edges_to_canonicalizeCsaRfSWFUMrL5_22tensor4all_itensorlike
FN:234,_RNvMs1_NtCsaogGgQeyHx_17tensor4all_treetn17node_name_networkINtB5_15NodeNameNetworkjE23post_order_dfs_by_indexCsaRfSWFUMrL5_22tensor4all_itensorlike
FN:256,_RNvMs1_NtCsaogGgQeyHx_17tensor4all_treetn17node_name_networkINtB5_15NodeNameNetworkjE25euler_tour_edges_by_indexCsaRfSWFUMrL5_22tensor4all_itensorlike
FN:270,_RNvMs1_NtCsaogGgQeyHx_17tensor4all_treetn17node_name_networkINtB5_15NodeNameNetworkjE28euler_tour_vertices_by_indexCsaRfSWFUMrL5_22tensor4all_itensorlike
FN:399,_RNvMs1_NtCsaogGgQeyHx_17tensor4all_treetn17node_name_networkINtB5_15NodeNameNetworkjE30edges_to_canonicalize_by_namesCsaRfSWFUMrL5_22tensor4all_itensorlike
FN:472,_RNvMs1_NtCsaogGgQeyHx_17tensor4all_treetn17node_name_networkINtB5_15NodeNameNetworkjE31edges_to_canonicalize_to_regionCsaRfSWFUMrL5_22tensor4all_itensorlike
FN:137,_RNvMs1_NtCsaogGgQeyHx_17tensor4all_treetn17node_name_networkINtB5_15NodeNameNetworkjE3newCsaRfSWFUMrL5_22tensor4all_itensorlike
FN:195,_RNvMs1_NtCsaogGgQeyHx_17tensor4all_treetn17node_name_networkINtB5_15NodeNameNetworkjE5graphCsaRfSWFUMrL5_22tensor4all_itensorlike
FN:165,_RNvMs1_NtCsaogGgQeyHx_17tensor4all_treetn17node_name_networkINtB5_15NodeNameNetworkjE8add_edgeCsaRfSWFUMrL5_22tensor4all_itensorlike
FN:153,_RNvMs1_NtCsaogGgQeyHx_17tensor4all_treetn17node_name_networkINtB5_15NodeNameNetworkjE8add_nodeCsaRfSWFUMrL5_22tensor4all_itensorlike
FN:158,_RNvMs1_NtCsaogGgQeyHx_17tensor4all_treetn17node_name_networkINtB5_15NodeNameNetworkjE8has_nodeCsaRfSWFUMrL5_22tensor4all_itensorlike
FN:175,_RNvMs1_NtCsaogGgQeyHx_17tensor4all_treetn17node_name_networkINtB5_15NodeNameNetworkjE9node_nameCsaRfSWFUMrL5_22tensor4all_itensorlike
FN:298,_RNCNvMs1_NtCsaogGgQeyHx_17tensor4all_treetn17node_name_networkINtB7_15NodeNameNetworkpE12path_between0B9_
FN:591,_RNCNvMs1_NtCsaogGgQeyHx_17tensor4all_treetn17node_name_networkINtB7_15NodeNameNetworkpE13same_topology0B9_
FN:597,_RNCNvMs1_NtCsaogGgQeyHx_17tensor4all_treetn17node_name_networkINtB7_15NodeNameNetworkpE13same_topologys_0B9_
FN:343,_RNCNvMs1_NtCsaogGgQeyHx_17tensor4all_treetn17node_name_networkINtB7_15NodeNameNetworkpE14nodes_to_edges0B9_
FN:408,_RNCNvMs1_NtCsaogGgQeyHx_17tensor4all_treetn17node_name_networkINtB7_15NodeNameNetworkpE30edges_to_canonicalize_by_names0B9_
FN:498,_RNCNvMs1_NtCsaogGgQeyHx_17tensor4all_treetn17node_name_networkINtB7_15NodeNameNetworkpE31edges_to_canonicalize_to_region0B9_
FN:513,_RNCNvMs1_NtCsaogGgQeyHx_17tensor4all_treetn17node_name_networkINtB7_15NodeNameNetworkpE31edges_to_canonicalize_to_regions0_0B9_
FN:516,_RNCNvMs1_NtCsaogGgQeyHx_17tensor4all_treetn17node_name_networkINtB7_15NodeNameNetworkpE31edges_to_canonicalize_to_regions1_0B9_
FN:520,_RNCNvMs1_NtCsaogGgQeyHx_17tensor4all_treetn17node_name_networkINtB7_15NodeNameNetworkpE31edges_to_canonicalize_to_regions2_0B9_
FN:512,_RNCNvMs1_NtCsaogGgQeyHx_17tensor4all_treetn17node_name_networkINtB7_15NodeNameNetworkpE31edges_to_canonicalize_to_regions_0B9_
FN:547,_RNCNvMs1_NtCsaogGgQeyHx_17tensor4all_treetn17node_name_networkINtB7_15NodeNameNetworkpE40edges_to_canonicalize_to_region_by_names0B9_
FN:554,_RNCNvMs1_NtCsaogGgQeyHx_17tensor4all_treetn17node_name_networkINtB7_15NodeNameNetworkpE40edges_to_canonicalize_to_region_by_namess_0B9_
FN:190,_RNvMs1_NtCsaogGgQeyHx_17tensor4all_treetn17node_name_networkINtB5_15NodeNameNetworkpE10edge_countB7_
FN:185,_RNvMs1_NtCsaogGgQeyHx_17tensor4all_treetn17node_name_networkINtB5_15NodeNameNetworkpE10node_countB7_
FN:170,_RNvMs1_NtCsaogGgQeyHx_17tensor4all_treetn17node_name_networkINtB5_15NodeNameNetworkpE10node_indexB7_
FN:180,_RNvMs1_NtCsaogGgQeyHx_17tensor4all_treetn17node_name_networkINtB5_15NodeNameNetworkpE10node_namesB7_
FN:281,_RNvMs1_NtCsaogGgQeyHx_17tensor4all_treetn17node_name_networkINtB5_15NodeNameNetworkpE12path_betweenB7_
FN:565,_RNvMs1_NtCsaogGgQeyHx_17tensor4all_treetn17node_name_networkINtB5_15NodeNameNetworkpE13same_topologyB7_
FN:144,_RNvMs1_NtCsaogGgQeyHx_17tensor4all_treetn17node_name_networkINtB5_15NodeNameNetworkpE13with_capacityB7_
FN:339,_RNvMs1_NtCsaogGgQeyHx_17tensor4all_treetn17node_name_networkINtB5_15NodeNameNetworkpE14nodes_to_edgesB7_
FN:215,_RNvMs1_NtCsaogGgQeyHx_17tensor4all_treetn17node_name_networkINtB5_15NodeNameNetworkpE14post_order_dfsB7_
FN:249,_RNvMs1_NtCsaogGgQeyHx_17tensor4all_treetn17node_name_networkINtB5_15NodeNameNetworkpE16euler_tour_edgesB7_
FN:263,_RNvMs1_NtCsaogGgQeyHx_17tensor4all_treetn17node_name_networkINtB5_15NodeNameNetworkpE19euler_tour_verticesB7_
FN:312,_RNvMs1_NtCsaogGgQeyHx_17tensor4all_treetn17node_name_networkINtB5_15NodeNameNetworkpE19is_connected_subsetB7_
FN:419,_RNvMs1_NtCsaogGgQeyHx_17tensor4all_treetn17node_name_networkINtB5_15NodeNameNetworkpE20compute_parent_edgesB7_
FN:355,_RNvMs1_NtCsaogGgQeyHx_17tensor4all_treetn17node_name_networkINtB5_15NodeNameNetworkpE21edges_to_canonicalizeB7_
FN:234,_RNvMs1_NtCsaogGgQeyHx_17tensor4all_treetn17node_name_networkINtB5_15NodeNameNetworkpE23post_order_dfs_by_indexB7_
FN:256,_RNvMs1_NtCsaogGgQeyHx_17tensor4all_treetn17node_name_networkINtB5_15NodeNameNetworkpE25euler_tour_edges_by_indexB7_
FN:270,_RNvMs1_NtCsaogGgQeyHx_17tensor4all_treetn17node_name_networkINtB5_15NodeNameNetworkpE28euler_tour_vertices_by_indexB7_
FN:399,_RNvMs1_NtCsaogGgQeyHx_17tensor4all_treetn17node_name_networkINtB5_15NodeNameNetworkpE30edges_to_canonicalize_by_namesB7_
FN:472,_RNvMs1_NtCsaogGgQeyHx_17tensor4all_treetn17node_name_networkINtB5_15NodeNameNetworkpE31edges_to_canonicalize_to_regionB7_
FN:137,_RNvMs1_NtCsaogGgQeyHx_17tensor4all_treetn17node_name_networkINtB5_15NodeNameNetworkpE3newB7_
FN:540,_RNvMs1_NtCsaogGgQeyHx_17tensor4all_treetn17node_name_networkINtB5_15NodeNameNetworkpE40edges_to_canonicalize_to_region_by_namesB7_
FN:195,_RNvMs1_NtCsaogGgQeyHx_17tensor4all_treetn17node_name_networkINtB5_15NodeNameNetworkpE5graphB7_
FN:165,_RNvMs1_NtCsaogGgQeyHx_17tensor4all_treetn17node_name_networkINtB5_15NodeNameNetworkpE8add_edgeB7_
FN:153,_RNvMs1_NtCsaogGgQeyHx_17tensor4all_treetn17node_name_networkINtB5_15NodeNameNetworkpE8add_nodeB7_
FN:158,_RNvMs1_NtCsaogGgQeyHx_17tensor4all_treetn17node_name_networkINtB5_15NodeNameNetworkpE8has_nodeB7_
FN:202,_RNvMs1_NtCsaogGgQeyHx_17tensor4all_treetn17node_name_networkINtB5_15NodeNameNetworkpE9graph_mutB7_
FN:175,_RNvMs1_NtCsaogGgQeyHx_17tensor4all_treetn17node_name_networkINtB5_15NodeNameNetworkpE9node_nameB7_
FN:613,_RNvXININtCsaogGgQeyHx_17tensor4all_treetn17node_name_networks2_0pEINtB5_15NodeNameNetworkpENtNtCskzPJi2J8k3N_4core7default7Default7defaultB7_
FN:64,_RNvMNtCsaogGgQeyHx_17tensor4all_treetn17node_name_networkNtB2_17CanonicalizeEdges10from_edges
FN:74,_RNvMNtCsaogGgQeyHx_17tensor4all_treetn17node_name_networkNtB2_17CanonicalizeEdges3len
FN:79,_RNvMNtCsaogGgQeyHx_17tensor4all_treetn17node_name_networkNtB2_17CanonicalizeEdges4iter
FN:55,_RNvMNtCsaogGgQeyHx_17tensor4all_treetn17node_name_networkNtB2_17CanonicalizeEdges5empty
FN:93,_RNvMNtCsaogGgQeyHx_17tensor4all_treetn17node_name_networkNtB2_17CanonicalizeEdges5start
FN:86,_RNvMNtCsaogGgQeyHx_17tensor4all_treetn17node_name_networkNtB2_17CanonicalizeEdges6target
FN:69,_RNvMNtCsaogGgQeyHx_17tensor4all_treetn17node_name_networkNtB2_17CanonicalizeEdges8is_empty
FN:111,_RNvXs0_NtCsaogGgQeyHx_17tensor4all_treetn17node_name_networkRNtB5_17CanonicalizeEdgesNtNtNtNtCskzPJi2J8k3N_4core4iter6traits7collect12IntoIterator9into_iter
FN:102,_RNvXs_NtCsaogGgQeyHx_17tensor4all_treetn17node_name_networkNtB4_17CanonicalizeEdgesNtNtNtNtCskzPJi2J8k3N_4core4iter6traits7collect12IntoIterator9into_iter
FN:298,_RNCNvMs1_NtCsaogGgQeyHx_17tensor4all_treetn17node_name_networkINtB7_15NodeNameNetworkjE12path_between0Csk8nCQTNnVi9_22tensor4all_itensorlike
FN:591,_RNCNvMs1_NtCsaogGgQeyHx_17tensor4all_treetn17node_name_networkINtB7_15NodeNameNetworkjE13same_topology0Csk8nCQTNnVi9_22tensor4all_itensorlike
FN:597,_RNCNvMs1_NtCsaogGgQeyHx_17tensor4all_treetn17node_name_networkINtB7_15NodeNameNetworkjE13same_topologys_0Csk8nCQTNnVi9_22tensor4all_itensorlike
FN:343,_RNCNvMs1_NtCsaogGgQeyHx_17tensor4all_treetn17node_name_networkINtB7_15NodeNameNetworkjE14nodes_to_edges0Csk8nCQTNnVi9_22tensor4all_itensorlike
FN:408,_RNCNvMs1_NtCsaogGgQeyHx_17tensor4all_treetn17node_name_networkINtB7_15NodeNameNetworkjE30edges_to_canonicalize_by_names0Csk8nCQTNnVi9_22tensor4all_itensorlike
FN:498,_RNCNvMs1_NtCsaogGgQeyHx_17tensor4all_treetn17node_name_networkINtB7_15NodeNameNetworkjE31edges_to_canonicalize_to_region0Csk8nCQTNnVi9_22tensor4all_itensorlike
FN:513,_RNCNvMs1_NtCsaogGgQeyHx_17tensor4all_treetn17node_name_networkINtB7_15NodeNameNetworkjE31edges_to_canonicalize_to_regions0_0Csk8nCQTNnVi9_22tensor4all_itensorlike
FN:516,_RNCNvMs1_NtCsaogGgQeyHx_17tensor4all_treetn17node_name_networkINtB7_15NodeNameNetworkjE31edges_to_canonicalize_to_regions1_0Csk8nCQTNnVi9_22tensor4all_itensorlike
FN:520,_RNCNvMs1_NtCsaogGgQeyHx_17tensor4all_treetn17node_name_networkINtB7_15NodeNameNetworkjE31edges_to_canonicalize_to_regions2_0Csk8nCQTNnVi9_22tensor4all_itensorlike
FN:512,_RNCNvMs1_NtCsaogGgQeyHx_17tensor4all_treetn17node_name_networkINtB7_15NodeNameNetworkjE31edges_to_canonicalize_to_regions_0Csk8nCQTNnVi9_22tensor4all_itensorlike
FN:190,_RNvMs1_NtCsaogGgQeyHx_17tensor4all_treetn17node_name_networkINtB5_15NodeNameNetworkjE10edge_countCsk8nCQTNnVi9_22tensor4all_itensorlike
FN:185,_RNvMs1_NtCsaogGgQeyHx_17tensor4all_treetn17node_name_networkINtB5_15NodeNameNetworkjE10node_countCsk8nCQTNnVi9_22tensor4all_itensorlike
FN:170,_RNvMs1_NtCsaogGgQeyHx_17tensor4all_treetn17node_name_networkINtB5_15NodeNameNetworkjE10node_indexCsk8nCQTNnVi9_22tensor4all_itensorlike
FN:180,_RNvMs1_NtCsaogGgQeyHx_17tensor4all_treetn17node_name_networkINtB5_15NodeNameNetworkjE10node_namesCsk8nCQTNnVi9_22tensor4all_itensorlike
FN:281,_RNvMs1_NtCsaogGgQeyHx_17tensor4all_treetn17node_name_networkINtB5_15NodeNameNetworkjE12path_betweenCsk8nCQTNnVi9_22tensor4all_itensorlike
FN:565,_RNvMs1_NtCsaogGgQeyHx_17tensor4all_treetn17node_name_networkINtB5_15NodeNameNetworkjE13same_topologyCsk8nCQTNnVi9_22tensor4all_itensorlike
FN:339,_RNvMs1_NtCsaogGgQeyHx_17tensor4all_treetn17node_name_networkINtB5_15NodeNameNetworkjE14nodes_to_edgesCsk8nCQTNnVi9_22tensor4all_itensorlike
FN:312,_RNvMs1_NtCsaogGgQeyHx_17tensor4all_treetn17node_name_networkINtB5_15NodeNameNetworkjE19is_connected_subsetCsk8nCQTNnVi9_22tensor4all_itensorlike
FN:419,_RNvMs1_NtCsaogGgQeyHx_17tensor4all_treetn17node_name_networkINtB5_15NodeNameNetworkjE20compute_parent_edgesCsk8nCQTNnVi9_22tensor4all_itensorlike
FN:355,_RNvMs1_NtCsaogGgQeyHx_17tensor4all_treetn17node_name_networkINtB5_15NodeNameNetworkjE21edges_to_canonicalizeCsk8nCQTNnVi9_22tensor4all_itensorlike
FN:234,_RNvMs1_NtCsaogGgQeyHx_17tensor4all_treetn17node_name_networkINtB5_15NodeNameNetworkjE23post_order_dfs_by_indexCsk8nCQTNnVi9_22tensor4all_itensorlike
FN:256,_RNvMs1_NtCsaogGgQeyHx_17tensor4all_treetn17node_name_networkINtB5_15NodeNameNetworkjE25euler_tour_edges_by_indexCsk8nCQTNnVi9_22tensor4all_itensorlike
FN:270,_RNvMs1_NtCsaogGgQeyHx_17tensor4all_treetn17node_name_networkINtB5_15NodeNameNetworkjE28euler_tour_vertices_by_indexCsk8nCQTNnVi9_22tensor4all_itensorlike
FN:399,_RNvMs1_NtCsaogGgQeyHx_17tensor4all_treetn17node_name_networkINtB5_15NodeNameNetworkjE30edges_to_canonicalize_by_namesCsk8nCQTNnVi9_22tensor4all_itensorlike
FN:472,_RNvMs1_NtCsaogGgQeyHx_17tensor4all_treetn17node_name_networkINtB5_15NodeNameNetworkjE31edges_to_canonicalize_to_regionCsk8nCQTNnVi9_22tensor4all_itensorlike
FN:137,_RNvMs1_NtCsaogGgQeyHx_17tensor4all_treetn17node_name_networkINtB5_15NodeNameNetworkjE3newCsk8nCQTNnVi9_22tensor4all_itensorlike
FN:195,_RNvMs1_NtCsaogGgQeyHx_17tensor4all_treetn17node_name_networkINtB5_15NodeNameNetworkjE5graphCsk8nCQTNnVi9_22tensor4all_itensorlike
FN:165,_RNvMs1_NtCsaogGgQeyHx_17tensor4all_treetn17node_name_networkINtB5_15NodeNameNetworkjE8add_edgeCsk8nCQTNnVi9_22tensor4all_itensorlike
FN:153,_RNvMs1_NtCsaogGgQeyHx_17tensor4all_treetn17node_name_networkINtB5_15NodeNameNetworkjE8add_nodeCsk8nCQTNnVi9_22tensor4all_itensorlike
FN:158,_RNvMs1_NtCsaogGgQeyHx_17tensor4all_treetn17node_name_networkINtB5_15NodeNameNetworkjE8has_nodeCsk8nCQTNnVi9_22tensor4all_itensorlike
FN:175,_RNvMs1_NtCsaogGgQeyHx_17tensor4all_treetn17node_name_networkINtB5_15NodeNameNetworkjE9node_nameCsk8nCQTNnVi9_22tensor4all_itensorlike
FNDA:0,_RNCNvMs1_NtCsaogGgQeyHx_17tensor4all_treetn17node_name_networkINtB7_15NodeNameNetworkjE12path_between0CsaRfSWFUMrL5_22tensor4all_itensorlike
FNDA:4,_RNCNvMs1_NtCsaogGgQeyHx_17tensor4all_treetn17node_name_networkINtB7_15NodeNameNetworkjE13same_topology0CsaRfSWFUMrL5_22tensor4all_itensorlike
FNDA:4,_RNCNvMs1_NtCsaogGgQeyHx_17tensor4all_treetn17node_name_networkINtB7_15NodeNameNetworkjE13same_topologys_0CsaRfSWFUMrL5_22tensor4all_itensorlike
FNDA:0,_RNCNvMs1_NtCsaogGgQeyHx_17tensor4all_treetn17node_name_networkINtB7_15NodeNameNetworkjE14nodes_to_edges0CsaRfSWFUMrL5_22tensor4all_itensorlike
FNDA:0,_RNCNvMs1_NtCsaogGgQeyHx_17tensor4all_treetn17node_name_networkINtB7_15NodeNameNetworkjE30edges_to_canonicalize_by_names0CsaRfSWFUMrL5_22tensor4all_itensorlike
FNDA:0,_RNCNvMs1_NtCsaogGgQeyHx_17tensor4all_treetn17node_name_networkINtB7_15NodeNameNetworkjE31edges_to_canonicalize_to_region0CsaRfSWFUMrL5_22tensor4all_itensorlike
FNDA:0,_RNCNvMs1_NtCsaogGgQeyHx_17tensor4all_treetn17node_name_networkINtB7_15NodeNameNetworkjE31edges_to_canonicalize_to_regions0_0CsaRfSWFUMrL5_22tensor4all_itensorlike
FNDA:0,_RNCNvMs1_NtCsaogGgQeyHx_17tensor4all_treetn17node_name_networkINtB7_15NodeNameNetworkjE31edges_to_canonicalize_to_regions1_0CsaRfSWFUMrL5_22tensor4all_itensorlike
FNDA:0,_RNCNvMs1_NtCsaogGgQeyHx_17tensor4all_treetn17node_name_networkINtB7_15NodeNameNetworkjE31edges_to_canonicalize_to_regions2_0CsaRfSWFUMrL5_22tensor4all_itensorlike
FNDA:0,_RNCNvMs1_NtCsaogGgQeyHx_17tensor4all_treetn17node_name_networkINtB7_15NodeNameNetworkjE31edges_to_canonicalize_to_regions_0CsaRfSWFUMrL5_22tensor4all_itensorlike
FNDA:14,_RNvMs1_NtCsaogGgQeyHx_17tensor4all_treetn17node_name_networkINtB5_15NodeNameNetworkjE10edge_countCsaRfSWFUMrL5_22tensor4all_itensorlike
FNDA:14,_RNvMs1_NtCsaogGgQeyHx_17tensor4all_treetn17node_name_networkINtB5_15NodeNameNetworkjE10node_countCsaRfSWFUMrL5_22tensor4all_itensorlike
FNDA:19,_RNvMs1_NtCsaogGgQeyHx_17tensor4all_treetn17node_name_networkINtB5_15NodeNameNetworkjE10node_indexCsaRfSWFUMrL5_22tensor4all_itensorlike
FNDA:17,_RNvMs1_NtCsaogGgQeyHx_17tensor4all_treetn17node_name_networkINtB5_15NodeNameNetworkjE10node_namesCsaRfSWFUMrL5_22tensor4all_itensorlike
FNDA:0,_RNvMs1_NtCsaogGgQeyHx_17tensor4all_treetn17node_name_networkINtB5_15NodeNameNetworkjE12path_betweenCsaRfSWFUMrL5_22tensor4all_itensorlike
FNDA:7,_RNvMs1_NtCsaogGgQeyHx_17tensor4all_treetn17node_name_networkINtB5_15NodeNameNetworkjE13same_topologyCsaRfSWFUMrL5_22tensor4all_itensorlike
FNDA:0,_RNvMs1_NtCsaogGgQeyHx_17tensor4all_treetn17node_name_networkINtB5_15NodeNameNetworkjE14nodes_to_edgesCsaRfSWFUMrL5_22tensor4all_itensorlike
FNDA:0,_RNvMs1_NtCsaogGgQeyHx_17tensor4all_treetn17node_name_networkINtB5_15NodeNameNetworkjE19is_connected_subsetCsaRfSWFUMrL5_22tensor4all_itensorlike
FNDA:1,_RNvMs1_NtCsaogGgQeyHx_17tensor4all_treetn17node_name_networkINtB5_15NodeNameNetworkjE20compute_parent_edgesCsaRfSWFUMrL5_22tensor4all_itensorlike
FNDA:1,_RNvMs1_NtCsaogGgQeyHx_17tensor4all_treetn17node_name_networkINtB5_15NodeNameNetworkjE21edges_to_canonicalizeCsaRfSWFUMrL5_22tensor4all_itensorlike
FNDA:1,_RNvMs1_NtCsaogGgQeyHx_17tensor4all_treetn17node_name_networkINtB5_15NodeNameNetworkjE23post_order_dfs_by_indexCsaRfSWFUMrL5_22tensor4all_itensorlike
FNDA:0,_RNvMs1_NtCsaogGgQeyHx_17tensor4all_treetn17node_name_networkINtB5_15NodeNameNetworkjE25euler_tour_edges_by_indexCsaRfSWFUMrL5_22tensor4all_itensorlike
FNDA:0,_RNvMs1_NtCsaogGgQeyHx_17tensor4all_treetn17node_name_networkINtB5_15NodeNameNetworkjE28euler_tour_vertices_by_indexCsaRfSWFUMrL5_22tensor4all_itensorlike
FNDA:1,_RNvMs1_NtCsaogGgQeyHx_17tensor4all_treetn17node_name_networkINtB5_15NodeNameNetworkjE30edges_to_canonicalize_by_namesCsaRfSWFUMrL5_22tensor4all_itensorlike
FNDA:0,_RNvMs1_NtCsaogGgQeyHx_17tensor4all_treetn17node_name_networkINtB5_15NodeNameNetworkjE31edges_to_canonicalize_to_regionCsaRfSWFUMrL5_22tensor4all_itensorlike
FNDA:8,_RNvMs1_NtCsaogGgQeyHx_17tensor4all_treetn17node_name_networkINtB5_15NodeNameNetworkjE3newCsaRfSWFUMrL5_22tensor4all_itensorlike
FNDA:0,_RNvMs1_NtCsaogGgQeyHx_17tensor4all_treetn17node_name_networkINtB5_15NodeNameNetworkjE5graphCsaRfSWFUMrL5_22tensor4all_itensorlike
FNDA:2,_RNvMs1_NtCsaogGgQeyHx_17tensor4all_treetn17node_name_networkINtB5_15NodeNameNetworkjE8add_edgeCsaRfSWFUMrL5_22tensor4all_itensorlike
FNDA:9,_RNvMs1_NtCsaogGgQeyHx_17tensor4all_treetn17node_name_networkINtB5_15NodeNameNetworkjE8add_nodeCsaRfSWFUMrL5_22tensor4all_itensorlike
FNDA:9,_RNvMs1_NtCsaogGgQeyHx_17tensor4all_treetn17node_name_networkINtB5_15NodeNameNetworkjE8has_nodeCsaRfSWFUMrL5_22tensor4all_itensorlike
FNDA:8,_RNvMs1_NtCsaogGgQeyHx_17tensor4all_treetn17node_name_networkINtB5_15NodeNameNetworkjE9node_nameCsaRfSWFUMrL5_22tensor4all_itensorlike
FNDA:0,_RNCNvMs1_NtCsaogGgQeyHx_17tensor4all_treetn17node_name_networkINtB7_15NodeNameNetworkpE12path_between0B9_
FNDA:0,_RNCNvMs1_NtCsaogGgQeyHx_17tensor4all_treetn17node_name_networkINtB7_15NodeNameNetworkpE13same_topology0B9_
FNDA:0,_RNCNvMs1_NtCsaogGgQeyHx_17tensor4all_treetn17node_name_networkINtB7_15NodeNameNetworkpE13same_topologys_0B9_
FNDA:0,_RNCNvMs1_NtCsaogGgQeyHx_17tensor4all_treetn17node_name_networkINtB7_15NodeNameNetworkpE14nodes_to_edges0B9_
FNDA:0,_RNCNvMs1_NtCsaogGgQeyHx_17tensor4all_treetn17node_name_networkINtB7_15NodeNameNetworkpE30edges_to_canonicalize_by_names0B9_
FNDA:0,_RNCNvMs1_NtCsaogGgQeyHx_17tensor4all_treetn17node_name_networkINtB7_15NodeNameNetworkpE31edges_to_canonicalize_to_region0B9_
FNDA:0,_RNCNvMs1_NtCsaogGgQeyHx_17tensor4all_treetn17node_name_networkINtB7_15NodeNameNetworkpE31edges_to_canonicalize_to_regions0_0B9_
FNDA:0,_RNCNvMs1_NtCsaogGgQeyHx_17tensor4all_treetn17node_name_networkINtB7_15NodeNameNetworkpE31edges_to_canonicalize_to_regions1_0B9_
FNDA:0,_RNCNvMs1_NtCsaogGgQeyHx_17tensor4all_treetn17node_name_networkINtB7_15NodeNameNetworkpE31edges_to_canonicalize_to_regions2_0B9_
FNDA:0,_RNCNvMs1_NtCsaogGgQeyHx_17tensor4all_treetn17node_name_networkINtB7_15NodeNameNetworkpE31edges_to_canonicalize_to_regions_0B9_
FNDA:0,_RNCNvMs1_NtCsaogGgQeyHx_17tensor4all_treetn17node_name_networkINtB7_15NodeNameNetworkpE40edges_to_canonicalize_to_region_by_names0B9_
FNDA:0,_RNCNvMs1_NtCsaogGgQeyHx_17tensor4all_treetn17node_name_networkINtB7_15NodeNameNetworkpE40edges_to_canonicalize_to_region_by_namess_0B9_
FNDA:0,_RNvMs1_NtCsaogGgQeyHx_17tensor4all_treetn17node_name_networkINtB5_15NodeNameNetworkpE10edge_countB7_
FNDA:0,_RNvMs1_NtCsaogGgQeyHx_17tensor4all_treetn17node_name_networkINtB5_15NodeNameNetworkpE10node_countB7_
FNDA:0,_RNvMs1_NtCsaogGgQeyHx_17tensor4all_treetn17node_name_networkINtB5_15NodeNameNetworkpE10node_indexB7_
FNDA:0,_RNvMs1_NtCsaogGgQeyHx_17tensor4all_treetn17node_name_networkINtB5_15NodeNameNetworkpE10node_namesB7_
FNDA:0,_RNvMs1_NtCsaogGgQeyHx_17tensor4all_treetn17node_name_networkINtB5_15NodeNameNetworkpE12path_betweenB7_
FNDA:0,_RNvMs1_NtCsaogGgQeyHx_17tensor4all_treetn17node_name_networkINtB5_15NodeNameNetworkpE13same_topologyB7_
FNDA:0,_RNvMs1_NtCsaogGgQeyHx_17tensor4all_treetn17node_name_networkINtB5_15NodeNameNetworkpE13with_capacityB7_
FNDA:0,_RNvMs1_NtCsaogGgQeyHx_17tensor4all_treetn17node_name_networkINtB5_15NodeNameNetworkpE14nodes_to_edgesB7_
FNDA:0,_RNvMs1_NtCsaogGgQeyHx_17tensor4all_treetn17node_name_networkINtB5_15NodeNameNetworkpE14post_order_dfsB7_
FNDA:0,_RNvMs1_NtCsaogGgQeyHx_17tensor4all_treetn17node_name_networkINtB5_15NodeNameNetworkpE16euler_tour_edgesB7_
FNDA:0,_RNvMs1_NtCsaogGgQeyHx_17tensor4all_treetn17node_name_networkINtB5_15NodeNameNetworkpE19euler_tour_verticesB7_
FNDA:0,_RNvMs1_NtCsaogGgQeyHx_17tensor4all_treetn17node_name_networkINtB5_15NodeNameNetworkpE19is_connected_subsetB7_
FNDA:0,_RNvMs1_NtCsaogGgQeyHx_17tensor4all_treetn17node_name_networkINtB5_15NodeNameNetworkpE20compute_parent_edgesB7_
FNDA:0,_RNvMs1_NtCsaogGgQeyHx_17tensor4all_treetn17node_name_networkINtB5_15NodeNameNetworkpE21edges_to_canonicalizeB7_
FNDA:0,_RNvMs1_NtCsaogGgQeyHx_17tensor4all_treetn17node_name_networkINtB5_15NodeNameNetworkpE23post_order_dfs_by_indexB7_
FNDA:0,_RNvMs1_NtCsaogGgQeyHx_17tensor4all_treetn17node_name_networkINtB5_15NodeNameNetworkpE25euler_tour_edges_by_indexB7_
FNDA:0,_RNvMs1_NtCsaogGgQeyHx_17tensor4all_treetn17node_name_networkINtB5_15NodeNameNetworkpE28euler_tour_vertices_by_indexB7_
FNDA:0,_RNvMs1_NtCsaogGgQeyHx_17tensor4all_treetn17node_name_networkINtB5_15NodeNameNetworkpE30edges_to_canonicalize_by_namesB7_
FNDA:0,_RNvMs1_NtCsaogGgQeyHx_17tensor4all_treetn17node_name_networkINtB5_15NodeNameNetworkpE31edges_to_canonicalize_to_regionB7_
FNDA:0,_RNvMs1_NtCsaogGgQeyHx_17tensor4all_treetn17node_name_networkINtB5_15NodeNameNetworkpE3newB7_
FNDA:0,_RNvMs1_NtCsaogGgQeyHx_17tensor4all_treetn17node_name_networkINtB5_15NodeNameNetworkpE40edges_to_canonicalize_to_region_by_namesB7_
FNDA:0,_RNvMs1_NtCsaogGgQeyHx_17tensor4all_treetn17node_name_networkINtB5_15NodeNameNetworkpE5graphB7_
FNDA:0,_RNvMs1_NtCsaogGgQeyHx_17tensor4all_treetn17node_name_networkINtB5_15NodeNameNetworkpE8add_edgeB7_
FNDA:0,_RNvMs1_NtCsaogGgQeyHx_17tensor4all_treetn17node_name_networkINtB5_15NodeNameNetworkpE8add_nodeB7_
FNDA:0,_RNvMs1_NtCsaogGgQeyHx_17tensor4all_treetn17node_name_networkINtB5_15NodeNameNetworkpE8has_nodeB7_
FNDA:0,_RNvMs1_NtCsaogGgQeyHx_17tensor4all_treetn17node_name_networkINtB5_15NodeNameNetworkpE9graph_mutB7_
FNDA:0,_RNvMs1_NtCsaogGgQeyHx_17tensor4all_treetn17node_name_networkINtB5_15NodeNameNetworkpE9node_nameB7_
FNDA:0,_RNvXININtCsaogGgQeyHx_17tensor4all_treetn17node_name_networks2_0pEINtB5_15NodeNameNetworkpENtNtCskzPJi2J8k3N_4core7default7Default7defaultB7_
FNDA:13,_RNvMNtCsaogGgQeyHx_17tensor4all_treetn17node_name_networkNtB2_17CanonicalizeEdges10from_edges
FNDA:0,_RNvMNtCsaogGgQeyHx_17tensor4all_treetn17node_name_networkNtB2_17CanonicalizeEdges3len
FNDA:0,_RNvMNtCsaogGgQeyHx_17tensor4all_treetn17node_name_networkNtB2_17CanonicalizeEdges4iter
FNDA:0,_RNvMNtCsaogGgQeyHx_17tensor4all_treetn17node_name_networkNtB2_17CanonicalizeEdges5empty
FNDA:0,_RNvMNtCsaogGgQeyHx_17tensor4all_treetn17node_name_networkNtB2_17CanonicalizeEdges5start
FNDA:0,_RNvMNtCsaogGgQeyHx_17tensor4all_treetn17node_name_networkNtB2_17CanonicalizeEdges6target
FNDA:0,_RNvMNtCsaogGgQeyHx_17tensor4all_treetn17node_name_networkNtB2_17CanonicalizeEdges8is_empty
FNDA:0,_RNvXs0_NtCsaogGgQeyHx_17tensor4all_treetn17node_name_networkRNtB5_17CanonicalizeEdgesNtNtNtNtCskzPJi2J8k3N_4core4iter6traits7collect12IntoIterator9into_iter
FNDA:13,_RNvXs_NtCsaogGgQeyHx_17tensor4all_treetn17node_name_networkNtB4_17CanonicalizeEdgesNtNtNtNtCskzPJi2J8k3N_4core4iter6traits7collect12IntoIterator9into_iter
FNDA:0,_RNCNvMs1_NtCsaogGgQeyHx_17tensor4all_treetn17node_name_networkINtB7_15NodeNameNetworkjE12path_between0Csk8nCQTNnVi9_22tensor4all_itensorlike
FNDA:68,_RNCNvMs1_NtCsaogGgQeyHx_17tensor4all_treetn17node_name_networkINtB7_15NodeNameNetworkjE13same_topology0Csk8nCQTNnVi9_22tensor4all_itensorlike
FNDA:68,_RNCNvMs1_NtCsaogGgQeyHx_17tensor4all_treetn17node_name_networkINtB7_15NodeNameNetworkjE13same_topologys_0Csk8nCQTNnVi9_22tensor4all_itensorlike
FNDA:0,_RNCNvMs1_NtCsaogGgQeyHx_17tensor4all_treetn17node_name_networkINtB7_15NodeNameNetworkjE14nodes_to_edges0Csk8nCQTNnVi9_22tensor4all_itensorlike
FNDA:0,_RNCNvMs1_NtCsaogGgQeyHx_17tensor4all_treetn17node_name_networkINtB7_15NodeNameNetworkjE30edges_to_canonicalize_by_names0Csk8nCQTNnVi9_22tensor4all_itensorlike
FNDA:12,_RNCNvMs1_NtCsaogGgQeyHx_17tensor4all_treetn17node_name_networkINtB7_15NodeNameNetworkjE31edges_to_canonicalize_to_region0Csk8nCQTNnVi9_22tensor4all_itensorlike
FNDA:12,_RNCNvMs1_NtCsaogGgQeyHx_17tensor4all_treetn17node_name_networkINtB7_15NodeNameNetworkjE31edges_to_canonicalize_to_regions0_0Csk8nCQTNnVi9_22tensor4all_itensorlike
FNDA:4,_RNCNvMs1_NtCsaogGgQeyHx_17tensor4all_treetn17node_name_networkINtB7_15NodeNameNetworkjE31edges_to_canonicalize_to_regions1_0Csk8nCQTNnVi9_22tensor4all_itensorlike
FNDA:12,_RNCNvMs1_NtCsaogGgQeyHx_17tensor4all_treetn17node_name_networkINtB7_15NodeNameNetworkjE31edges_to_canonicalize_to_regions2_0Csk8nCQTNnVi9_22tensor4all_itensorlike
FNDA:22,_RNCNvMs1_NtCsaogGgQeyHx_17tensor4all_treetn17node_name_networkINtB7_15NodeNameNetworkjE31edges_to_canonicalize_to_regions_0Csk8nCQTNnVi9_22tensor4all_itensorlike
FNDA:94,_RNvMs1_NtCsaogGgQeyHx_17tensor4all_treetn17node_name_networkINtB5_15NodeNameNetworkjE10edge_countCsk8nCQTNnVi9_22tensor4all_itensorlike
FNDA:94,_RNvMs1_NtCsaogGgQeyHx_17tensor4all_treetn17node_name_networkINtB5_15NodeNameNetworkjE10node_countCsk8nCQTNnVi9_22tensor4all_itensorlike
FNDA:191,_RNvMs1_NtCsaogGgQeyHx_17tensor4all_treetn17node_name_networkINtB5_15NodeNameNetworkjE10node_indexCsk8nCQTNnVi9_22tensor4all_itensorlike
FNDA:113,_RNvMs1_NtCsaogGgQeyHx_17tensor4all_treetn17node_name_networkINtB5_15NodeNameNetworkjE10node_namesCsk8nCQTNnVi9_22tensor4all_itensorlike
FNDA:0,_RNvMs1_NtCsaogGgQeyHx_17tensor4all_treetn17node_name_networkINtB5_15NodeNameNetworkjE12path_betweenCsk8nCQTNnVi9_22tensor4all_itensorlike
FNDA:47,_RNvMs1_NtCsaogGgQeyHx_17tensor4all_treetn17node_name_networkINtB5_15NodeNameNetworkjE13same_topologyCsk8nCQTNnVi9_22tensor4all_itensorlike
FNDA:0,_RNvMs1_NtCsaogGgQeyHx_17tensor4all_treetn17node_name_networkINtB5_15NodeNameNetworkjE14nodes_to_edgesCsk8nCQTNnVi9_22tensor4all_itensorlike
FNDA:18,_RNvMs1_NtCsaogGgQeyHx_17tensor4all_treetn17node_name_networkINtB5_15NodeNameNetworkjE19is_connected_subsetCsk8nCQTNnVi9_22tensor4all_itensorlike
FNDA:2,_RNvMs1_NtCsaogGgQeyHx_17tensor4all_treetn17node_name_networkINtB5_15NodeNameNetworkjE20compute_parent_edgesCsk8nCQTNnVi9_22tensor4all_itensorlike
FNDA:2,_RNvMs1_NtCsaogGgQeyHx_17tensor4all_treetn17node_name_networkINtB5_15NodeNameNetworkjE21edges_to_canonicalizeCsk8nCQTNnVi9_22tensor4all_itensorlike
FNDA:2,_RNvMs1_NtCsaogGgQeyHx_17tensor4all_treetn17node_name_networkINtB5_15NodeNameNetworkjE23post_order_dfs_by_indexCsk8nCQTNnVi9_22tensor4all_itensorlike
FNDA:3,_RNvMs1_NtCsaogGgQeyHx_17tensor4all_treetn17node_name_networkINtB5_15NodeNameNetworkjE25euler_tour_edges_by_indexCsk8nCQTNnVi9_22tensor4all_itensorlike
FNDA:0,_RNvMs1_NtCsaogGgQeyHx_17tensor4all_treetn17node_name_networkINtB5_15NodeNameNetworkjE28euler_tour_vertices_by_indexCsk8nCQTNnVi9_22tensor4all_itensorlike
FNDA:2,_RNvMs1_NtCsaogGgQeyHx_17tensor4all_treetn17node_name_networkINtB5_15NodeNameNetworkjE30edges_to_canonicalize_by_namesCsk8nCQTNnVi9_22tensor4all_itensorlike
FNDA:10,_RNvMs1_NtCsaogGgQeyHx_17tensor4all_treetn17node_name_networkINtB5_15NodeNameNetworkjE31edges_to_canonicalize_to_regionCsk8nCQTNnVi9_22tensor4all_itensorlike
FNDA:57,_RNvMs1_NtCsaogGgQeyHx_17tensor4all_treetn17node_name_networkINtB5_15NodeNameNetworkjE3newCsk8nCQTNnVi9_22tensor4all_itensorlike
FNDA:24,_RNvMs1_NtCsaogGgQeyHx_17tensor4all_treetn17node_name_networkINtB5_15NodeNameNetworkjE5graphCsk8nCQTNnVi9_22tensor4all_itensorlike
FNDA:38,_RNvMs1_NtCsaogGgQeyHx_17tensor4all_treetn17node_name_networkINtB5_15NodeNameNetworkjE8add_edgeCsk8nCQTNnVi9_22tensor4all_itensorlike
FNDA:87,_RNvMs1_NtCsaogGgQeyHx_17tensor4all_treetn17node_name_networkINtB5_15NodeNameNetworkjE8add_nodeCsk8nCQTNnVi9_22tensor4all_itensorlike
FNDA:81,_RNvMs1_NtCsaogGgQeyHx_17tensor4all_treetn17node_name_networkINtB5_15NodeNameNetworkjE8has_nodeCsk8nCQTNnVi9_22tensor4all_itensorlike
FNDA:180,_RNvMs1_NtCsaogGgQeyHx_17tensor4all_treetn17node_name_networkINtB5_15NodeNameNetworkjE9node_nameCsk8nCQTNnVi9_22tensor4all_itensorlike
FNF:49
FNH:27
DA:55,0
DA:56,0
DA:57,0
DA:64,13
DA:65,13
DA:66,13
DA:69,0
DA:70,0
DA:71,0
DA:74,0
DA:75,0
DA:76,0
DA:79,0
DA:80,0
DA:81,0
DA:86,0
DA:87,0
DA:88,0
DA:93,0
DA:94,0
DA:95,0
DA:102,13
DA:103,13
DA:104,13
DA:111,0
DA:112,0
DA:113,0
DA:137,65
DA:138,65
DA:139,65
DA:140,65
DA:141,65
DA:144,0
DA:145,0
DA:146,0
DA:147,0
DA:148,0
DA:153,96
DA:154,96
DA:155,96
DA:158,90
DA:159,90
DA:160,90
DA:165,40
DA:166,40
DA:167,40
DA:170,210
DA:171,210
DA:172,210
DA:175,188
DA:176,188
DA:177,188
DA:180,130
DA:181,130
DA:182,130
DA:185,108
DA:186,108
DA:187,108
DA:190,108
DA:191,108
DA:192,108
DA:195,24
DA:196,24
DA:197,24
DA:202,0
DA:203,0
DA:204,0
DA:215,0
DA:216,0
DA:217,0
DA:219,0
DA:220,0
DA:222,0
DA:223,0
DA:224,0
DA:225,0
DA:228,0
DA:229,0
DA:234,3
DA:235,3
DA:236,3
DA:237,3
DA:239,6
DA:240,3
DA:241,3
DA:243,3
DA:244,3
DA:249,0
DA:250,0
DA:251,0
DA:256,3
DA:257,3
DA:258,3
DA:263,0
DA:264,0
DA:265,0
DA:270,0
DA:271,0
DA:272,0
DA:281,0
DA:282,0
DA:285,0
DA:286,0
DA:287,0
DA:290,0
DA:291,0
DA:292,0
DA:295,0
DA:296,0
DA:297,0
DA:298,0
DA:302,0
DA:303,0
DA:312,18
DA:313,18
DA:314,10
DA:315,8
DA:317,8
DA:320,8
DA:321,8
DA:322,8
DA:323,8
DA:325,24
DA:326,24
DA:328,24
DA:329,8
DA:330,16
DA:335,8
DA:336,18
DA:339,0
DA:340,0
DA:341,0
DA:342,0
DA:343,0
DA:344,0
DA:345,0
DA:355,3
DA:356,3
DA:357,3
DA:358,3
DA:359,3
DA:360,0
DA:363,3
DA:364,3
DA:366,0
DA:368,0
DA:370,0
DA:372,0
DA:373,0
DA:374,0
DA:376,0
DA:379,0
DA:383,3
DA:399,3
DA:400,3
DA:401,3
DA:402,3
DA:403,3
DA:404,3
DA:406,3
DA:407,3
DA:408,3
DA:409,0
DA:410,0
DA:411,0
DA:412,0
DA:413,3
DA:415,3
DA:416,3
DA:419,3
DA:420,3
DA:421,3
DA:424,3
DA:425,3
DA:426,3
DA:427,3
DA:428,3
DA:430,6
DA:431,3
DA:432,0
DA:433,0
DA:434,0
DA:435,0
DA:440,6
DA:441,3
DA:442,0
DA:443,0
DA:444,0
DA:445,3
DA:448,3
DA:449,3
DA:472,10
DA:473,10
DA:474,10
DA:475,10
DA:476,10
DA:477,0
DA:478,10
DA:480,10
DA:483,10
DA:484,10
DA:485,10
DA:488,20
DA:489,10
DA:490,10
DA:491,10
DA:494,32
DA:495,22
DA:496,24
DA:497,24
DA:498,24
DA:499,12
DA:500,12
DA:501,12
DA:502,24
DA:503,12
DA:504,12
DA:510,10
DA:511,10
DA:512,22
DA:513,12
DA:514,10
DA:516,10
DA:518,10
DA:519,10
DA:520,12
DA:521,12
DA:522,12
DA:523,12
DA:524,10
DA:526,10
DA:527,10
DA:540,0
DA:541,0
DA:542,0
DA:543,0
DA:545,0
DA:546,0
DA:547,0
DA:548,0
DA:550,0
DA:552,0
DA:553,0
DA:554,0
DA:555,0
DA:556,0
DA:557,0
DA:558,0
DA:559,0
DA:561,0
DA:562,0
DA:565,54
DA:566,54
DA:567,0
DA:568,54
DA:569,54
DA:570,0
DA:571,54
DA:574,90
DA:575,90
DA:576,0
DA:577,90
DA:581,54
DA:582,90
DA:583,90
DA:584,90
DA:585,90
DA:586,0
DA:589,90
DA:590,90
DA:591,90
DA:592,90
DA:594,90
DA:595,90
DA:596,90
DA:597,90
DA:598,90
DA:600,90
DA:601,0
DA:602,90
DA:605,54
DA:606,54
DA:613,0
DA:614,0
DA:615,0
BRF:0
BRH:0
LF:296
LH:174
end_of_record
SF:/Users/ken/git_for_collab4/tensor4all-rs/crates/tensor4all-treetn/src/operator/compose.rs
FN:91,_RINvNtNtCsaogGgQeyHx_17tensor4all_treetn8operator7compose20check_path_exclusiveppEB6_
FN:35,_RINvNtNtCsaogGgQeyHx_17tensor4all_treetn8operator7compose23are_exclusive_operatorspppEB6_
FN:349,_RINvNtNtCsaogGgQeyHx_17tensor4all_treetn8operator7compose27compose_exclusive_operatorspppEB6_
FN:167,_RINvNtNtCsaogGgQeyHx_17tensor4all_treetn8operator7compose34compose_exclusive_linear_operatorsppEB6_
FN:129,_RNCINvNtNtCsaogGgQeyHx_17tensor4all_treetn8operator7compose20check_path_exclusiveppE0B8_
FN:130,_RNCINvNtNtCsaogGgQeyHx_17tensor4all_treetn8operator7compose20check_path_exclusiveppEs_0B8_
FN:45,_RNCINvNtNtCsaogGgQeyHx_17tensor4all_treetn8operator7compose23are_exclusive_operatorspppE0B8_
FN:65,_RNCINvNtNtCsaogGgQeyHx_17tensor4all_treetn8operator7compose23are_exclusive_operatorspppEs_0B8_
FN:187,_RNCINvNtNtCsaogGgQeyHx_17tensor4all_treetn8operator7compose34compose_exclusive_linear_operatorsppE0B8_
FN:245,_RNCINvNtNtCsaogGgQeyHx_17tensor4all_treetn8operator7compose34compose_exclusive_linear_operatorsppEs0_0B8_
FN:251,_RNCINvNtNtCsaogGgQeyHx_17tensor4all_treetn8operator7compose34compose_exclusive_linear_operatorsppEs1_0B8_
FN:254,_RNCINvNtNtCsaogGgQeyHx_17tensor4all_treetn8operator7compose34compose_exclusive_linear_operatorsppEs2_0B8_
FN:275,_RNCINvNtNtCsaogGgQeyHx_17tensor4all_treetn8operator7compose34compose_exclusive_linear_operatorsppEs3_0B8_
FN:280,_RNCINvNtNtCsaogGgQeyHx_17tensor4all_treetn8operator7compose34compose_exclusive_linear_operatorsppEs4_0B8_
FN:281,_RNCINvNtNtCsaogGgQeyHx_17tensor4all_treetn8operator7compose34compose_exclusive_linear_operatorsppEs5_0B8_
FN:309,_RNCINvNtNtCsaogGgQeyHx_17tensor4all_treetn8operator7compose34compose_exclusive_linear_operatorsppEs6_0B8_
FN:317,_RNCINvNtNtCsaogGgQeyHx_17tensor4all_treetn8operator7compose34compose_exclusive_linear_operatorsppEs7_0B8_
FN:323,_RNCINvNtNtCsaogGgQeyHx_17tensor4all_treetn8operator7compose34compose_exclusive_linear_operatorsppEs8_0B8_
FN:241,_RNCINvNtNtCsaogGgQeyHx_17tensor4all_treetn8operator7compose34compose_exclusive_linear_operatorsppEs_0B8_
FNDA:0,_RINvNtNtCsaogGgQeyHx_17tensor4all_treetn8operator7compose20check_path_exclusiveppEB6_
FNDA:0,_RINvNtNtCsaogGgQeyHx_17tensor4all_treetn8operator7compose23are_exclusive_operatorspppEB6_
FNDA:0,_RINvNtNtCsaogGgQeyHx_17tensor4all_treetn8operator7compose27compose_exclusive_operatorspppEB6_
FNDA:0,_RINvNtNtCsaogGgQeyHx_17tensor4all_treetn8operator7compose34compose_exclusive_linear_operatorsppEB6_
FNDA:0,_RNCINvNtNtCsaogGgQeyHx_17tensor4all_treetn8operator7compose20check_path_exclusiveppE0B8_
FNDA:0,_RNCINvNtNtCsaogGgQeyHx_17tensor4all_treetn8operator7compose20check_path_exclusiveppEs_0B8_
FNDA:0,_RNCINvNtNtCsaogGgQeyHx_17tensor4all_treetn8operator7compose23are_exclusive_operatorspppE0B8_
FNDA:0,_RNCINvNtNtCsaogGgQeyHx_17tensor4all_treetn8operator7compose23are_exclusive_operatorspppEs_0B8_
FNDA:0,_RNCINvNtNtCsaogGgQeyHx_17tensor4all_treetn8operator7compose34compose_exclusive_linear_operatorsppE0B8_
FNDA:0,_RNCINvNtNtCsaogGgQeyHx_17tensor4all_treetn8operator7compose34compose_exclusive_linear_operatorsppEs0_0B8_
FNDA:0,_RNCINvNtNtCsaogGgQeyHx_17tensor4all_treetn8operator7compose34compose_exclusive_linear_operatorsppEs1_0B8_
FNDA:0,_RNCINvNtNtCsaogGgQeyHx_17tensor4all_treetn8operator7compose34compose_exclusive_linear_operatorsppEs2_0B8_
FNDA:0,_RNCINvNtNtCsaogGgQeyHx_17tensor4all_treetn8operator7compose34compose_exclusive_linear_operatorsppEs3_0B8_
FNDA:0,_RNCINvNtNtCsaogGgQeyHx_17tensor4all_treetn8operator7compose34compose_exclusive_linear_operatorsppEs4_0B8_
FNDA:0,_RNCINvNtNtCsaogGgQeyHx_17tensor4all_treetn8operator7compose34compose_exclusive_linear_operatorsppEs5_0B8_
FNDA:0,_RNCINvNtNtCsaogGgQeyHx_17tensor4all_treetn8operator7compose34compose_exclusive_linear_operatorsppEs6_0B8_
FNDA:0,_RNCINvNtNtCsaogGgQeyHx_17tensor4all_treetn8operator7compose34compose_exclusive_linear_operatorsppEs7_0B8_
FNDA:0,_RNCINvNtNtCsaogGgQeyHx_17tensor4all_treetn8operator7compose34compose_exclusive_linear_operatorsppEs8_0B8_
FNDA:0,_RNCINvNtNtCsaogGgQeyHx_17tensor4all_treetn8operator7compose34compose_exclusive_linear_operatorsppEs_0B8_
FNF:19
FNH:0
DA:35,0
DA:36,0
DA:37,0
DA:38,0
DA:39,0
DA:40,0
DA:41,0
DA:42,0
DA:45,0
DA:48,0
DA:49,0
DA:50,0
DA:51,0
DA:52,0
DA:57,0
DA:58,0
DA:59,0
DA:60,0
DA:63,0
DA:64,0
DA:65,0
DA:66,0
DA:68,0
DA:70,0
DA:71,0
DA:73,0
DA:74,0
DA:75,0
DA:79,0
DA:80,0
DA:81,0
DA:82,0
DA:83,0
DA:87,0
DA:88,0
DA:91,0
DA:92,0
DA:93,0
DA:94,0
DA:95,0
DA:96,0
DA:97,0
DA:98,0
DA:99,0
DA:102,0
DA:103,0
DA:104,0
DA:106,0
DA:107,0
DA:108,0
DA:112,0
DA:113,0
DA:114,0
DA:116,0
DA:117,0
DA:118,0
DA:121,0
DA:122,0
DA:123,0
DA:127,0
DA:128,0
DA:129,0
DA:130,0
DA:131,0
DA:133,0
DA:134,0
DA:135,0
DA:136,0
DA:137,0
DA:138,0
DA:141,0
DA:142,0
DA:167,0
DA:168,0
DA:169,0
DA:170,0
DA:171,0
DA:172,0
DA:173,0
DA:174,0
DA:175,0
DA:176,0
DA:179,0
DA:180,0
DA:181,0
DA:182,0
DA:183,0
DA:184,0
DA:187,0
DA:189,0
DA:190,0
DA:191,0
DA:192,0
DA:193,0
DA:197,0
DA:198,0
DA:199,0
DA:203,0
DA:205,0
DA:206,0
DA:207,0
DA:208,0
DA:209,0
DA:211,0
DA:212,0
DA:213,0
DA:216,0
DA:217,0
DA:218,0
DA:219,0
DA:220,0
DA:221,0
DA:222,0
DA:223,0
DA:224,0
DA:225,0
DA:226,0
DA:230,0
DA:231,0
DA:232,0
DA:233,0
DA:236,0
DA:237,0
DA:238,0
DA:239,0
DA:240,0
DA:241,0
DA:242,0
DA:243,0
DA:244,0
DA:245,0
DA:246,0
DA:249,0
DA:250,0
DA:251,0
DA:252,0
DA:253,0
DA:254,0
DA:255,0
DA:256,0
DA:258,0
DA:260,0
DA:261,0
DA:264,0
DA:265,0
DA:266,0
DA:267,0
DA:268,0
DA:269,0
DA:274,0
DA:275,0
DA:276,0
DA:277,0
DA:280,0
DA:281,0
DA:284,0
DA:285,0
DA:286,0
DA:287,0
DA:288,0
DA:289,0
DA:290,0
DA:291,0
DA:292,0
DA:293,0
DA:294,0
DA:295,0
DA:296,0
DA:297,0
DA:298,0
DA:299,0
DA:300,0
DA:301,0
DA:302,0
DA:303,0
DA:306,0
DA:307,0
DA:309,0
DA:310,0
DA:311,0
DA:315,0
DA:316,0
DA:317,0
DA:318,0
DA:319,0
DA:322,0
DA:323,0
DA:324,0
DA:325,0
DA:327,0
DA:329,0
DA:330,0
DA:334,0
DA:335,0
DA:337,0
DA:338,0
DA:339,0
DA:340,0
DA:341,0
DA:342,0
DA:349,0
DA:350,0
DA:351,0
DA:352,0
DA:353,0
DA:354,0
DA:355,0
DA:356,0
DA:357,0
DA:358,0
DA:362,0
DA:363,0
DA:364,0
DA:365,0
DA:366,0
BRF:0
BRH:0
LF:236
LH:0
end_of_record
SF:/Users/ken/git_for_collab4/tensor4all-rs/crates/tensor4all-treetn/src/operator/identity.rs
FN:105,_RNCNvNtNtCsaogGgQeyHx_17tensor4all_treetn8operator8identity34build_identity_operator_tensor_c640B7_
FN:124,_RNCNvNtNtCsaogGgQeyHx_17tensor4all_treetn8operator8identity34build_identity_operator_tensor_c64s_0B7_
FNDA:0,_RNCNvNtNtCsaogGgQeyHx_17tensor4all_treetn8operator8identity34build_identity_operator_tensor_c640B7_
FNDA:0,_RNCNvNtNtCsaogGgQeyHx_17tensor4all_treetn8operator8identity34build_identity_operator_tensor_c64s_0B7_
FNF:2
FNH:0
DA:105,0
DA:124,0
BRF:0
BRH:0
LF:2
LH:0
end_of_record
SF:/Users/ken/git_for_collab4/tensor4all-rs/crates/tensor4all-treetn/src/operator/mod.rs
FN:77,_RNvYpINtNtCsaogGgQeyHx_17tensor4all_treetn8operator8OperatorppE10node_namesB8_
FNDA:0,_RNvYpINtNtCsaogGgQeyHx_17tensor4all_treetn8operator8OperatorppE10node_namesB8_
FNF:1
FNH:0
DA:77,0
DA:78,0
DA:79,0
DA:80,0
DA:81,0
DA:82,0
DA:83,0
BRF:0
BRH:0
LF:7
LH:0
end_of_record
SF:/Users/ken/git_for_collab4/tensor4all-rs/crates/tensor4all-treetn/src/options.rs
FN:114,_RNvMs2_NtCsaogGgQeyHx_17tensor4all_treetn7optionsNtB5_17TruncationOptions13with_max_rank
FN:109,_RNvMs2_NtCsaogGgQeyHx_17tensor4all_treetn7optionsNtB5_17TruncationOptions3new
FN:132,_RNvMs2_NtCsaogGgQeyHx_17tensor4all_treetn7optionsNtB5_17TruncationOptions4rtol
FN:137,_RNvMs2_NtCsaogGgQeyHx_17tensor4all_treetn7optionsNtB5_17TruncationOptions8max_rank
FN:126,_RNvMs2_NtCsaogGgQeyHx_17tensor4all_treetn7optionsNtB5_17TruncationOptions9with_form
FN:120,_RNvMs2_NtCsaogGgQeyHx_17tensor4all_treetn7optionsNtB5_17TruncationOptions9with_rtol
FN:189,_RNvMs5_NtCsaogGgQeyHx_17tensor4all_treetn7optionsNtB5_12SplitOptions13with_max_rank
FN:207,_RNvMs5_NtCsaogGgQeyHx_17tensor4all_treetn7optionsNtB5_12SplitOptions16with_final_sweep
FN:184,_RNvMs5_NtCsaogGgQeyHx_17tensor4all_treetn7optionsNtB5_12SplitOptions3new
FN:213,_RNvMs5_NtCsaogGgQeyHx_17tensor4all_treetn7optionsNtB5_12SplitOptions4rtol
FN:218,_RNvMs5_NtCsaogGgQeyHx_17tensor4all_treetn7optionsNtB5_12SplitOptions8max_rank
FN:201,_RNvMs5_NtCsaogGgQeyHx_17tensor4all_treetn7optionsNtB5_12SplitOptions9with_form
FN:195,_RNvMs5_NtCsaogGgQeyHx_17tensor4all_treetn7optionsNtB5_12SplitOptions9with_rtol
FN:40,_RNvMs_NtCsaogGgQeyHx_17tensor4all_treetn7optionsNtB4_23CanonicalizationOptions3new
FN:59,_RNvMs_NtCsaogGgQeyHx_17tensor4all_treetn7optionsNtB4_23CanonicalizationOptions5force
FN:65,_RNvMs_NtCsaogGgQeyHx_17tensor4all_treetn7optionsNtB4_23CanonicalizationOptions5smart
FN:45,_RNvMs_NtCsaogGgQeyHx_17tensor4all_treetn7optionsNtB4_23CanonicalizationOptions6forced
FN:53,_RNvMs_NtCsaogGgQeyHx_17tensor4all_treetn7optionsNtB4_23CanonicalizationOptions9with_form
FN:30,_RNvXNtCsaogGgQeyHx_17tensor4all_treetn7optionsNtB2_23CanonicalizationOptionsNtNtCskzPJi2J8k3N_4core7default7Default7default
FN:89,_RNvXs0_NtCsaogGgQeyHx_17tensor4all_treetn7optionsNtB5_17TruncationOptionsNtNtCskzPJi2J8k3N_4core7default7Default7default
FN:98,_RNvXs1_NtCsaogGgQeyHx_17tensor4all_treetn7optionsNtB5_17TruncationOptionsNtNtCsbrO2ourfQV3_15tensor4all_core10truncation19HasTruncationParams17truncation_params
FN:102,_RNvXs1_NtCsaogGgQeyHx_17tensor4all_treetn7optionsNtB5_17TruncationOptionsNtNtCsbrO2ourfQV3_15tensor4all_core10truncation19HasTruncationParams21truncation_params_mut
FN:163,_RNvXs3_NtCsaogGgQeyHx_17tensor4all_treetn7optionsNtB5_12SplitOptionsNtNtCskzPJi2J8k3N_4core7default7Default7default
FN:173,_RNvXs4_NtCsaogGgQeyHx_17tensor4all_treetn7optionsNtB5_12SplitOptionsNtNtCsbrO2ourfQV3_15tensor4all_core10truncation19HasTruncationParams17truncation_params
FN:177,_RNvXs4_NtCsaogGgQeyHx_17tensor4all_treetn7optionsNtB5_12SplitOptionsNtNtCsbrO2ourfQV3_15tensor4all_core10truncation19HasTruncationParams21truncation_params_mut
FNDA:0,_RNvMs2_NtCsaogGgQeyHx_17tensor4all_treetn7optionsNtB5_17TruncationOptions13with_max_rank
FNDA:0,_RNvMs2_NtCsaogGgQeyHx_17tensor4all_treetn7optionsNtB5_17TruncationOptions3new
FNDA:0,_RNvMs2_NtCsaogGgQeyHx_17tensor4all_treetn7optionsNtB5_17TruncationOptions4rtol
FNDA:0,_RNvMs2_NtCsaogGgQeyHx_17tensor4all_treetn7optionsNtB5_17TruncationOptions8max_rank
FNDA:0,_RNvMs2_NtCsaogGgQeyHx_17tensor4all_treetn7optionsNtB5_17TruncationOptions9with_form
FNDA:0,_RNvMs2_NtCsaogGgQeyHx_17tensor4all_treetn7optionsNtB5_17TruncationOptions9with_rtol
FNDA:0,_RNvMs5_NtCsaogGgQeyHx_17tensor4all_treetn7optionsNtB5_12SplitOptions13with_max_rank
FNDA:0,_RNvMs5_NtCsaogGgQeyHx_17tensor4all_treetn7optionsNtB5_12SplitOptions16with_final_sweep
FNDA:0,_RNvMs5_NtCsaogGgQeyHx_17tensor4all_treetn7optionsNtB5_12SplitOptions3new
FNDA:0,_RNvMs5_NtCsaogGgQeyHx_17tensor4all_treetn7optionsNtB5_12SplitOptions4rtol
FNDA:0,_RNvMs5_NtCsaogGgQeyHx_17tensor4all_treetn7optionsNtB5_12SplitOptions8max_rank
FNDA:0,_RNvMs5_NtCsaogGgQeyHx_17tensor4all_treetn7optionsNtB5_12SplitOptions9with_form
FNDA:0,_RNvMs5_NtCsaogGgQeyHx_17tensor4all_treetn7optionsNtB5_12SplitOptions9with_rtol
FNDA:0,_RNvMs_NtCsaogGgQeyHx_17tensor4all_treetn7optionsNtB4_23CanonicalizationOptions3new
FNDA:0,_RNvMs_NtCsaogGgQeyHx_17tensor4all_treetn7optionsNtB4_23CanonicalizationOptions5force
FNDA:0,_RNvMs_NtCsaogGgQeyHx_17tensor4all_treetn7optionsNtB4_23CanonicalizationOptions5smart
FNDA:7,_RNvMs_NtCsaogGgQeyHx_17tensor4all_treetn7optionsNtB4_23CanonicalizationOptions6forced
FNDA:8,_RNvMs_NtCsaogGgQeyHx_17tensor4all_treetn7optionsNtB4_23CanonicalizationOptions9with_form
FNDA:3,_RNvXNtCsaogGgQeyHx_17tensor4all_treetn7optionsNtB2_23CanonicalizationOptionsNtNtCskzPJi2J8k3N_4core7default7Default7default
FNDA:0,_RNvXs0_NtCsaogGgQeyHx_17tensor4all_treetn7optionsNtB5_17TruncationOptionsNtNtCskzPJi2J8k3N_4core7default7Default7default
FNDA:0,_RNvXs1_NtCsaogGgQeyHx_17tensor4all_treetn7optionsNtB5_17TruncationOptionsNtNtCsbrO2ourfQV3_15tensor4all_core10truncation19HasTruncationParams17truncation_params
FNDA:0,_RNvXs1_NtCsaogGgQeyHx_17tensor4all_treetn7optionsNtB5_17TruncationOptionsNtNtCsbrO2ourfQV3_15tensor4all_core10truncation19HasTruncationParams21truncation_params_mut
FNDA:0,_RNvXs3_NtCsaogGgQeyHx_17tensor4all_treetn7optionsNtB5_12SplitOptionsNtNtCskzPJi2J8k3N_4core7default7Default7default
FNDA:0,_RNvXs4_NtCsaogGgQeyHx_17tensor4all_treetn7optionsNtB5_12SplitOptionsNtNtCsbrO2ourfQV3_15tensor4all_core10truncation19HasTruncationParams17truncation_params
FNDA:0,_RNvXs4_NtCsaogGgQeyHx_17tensor4all_treetn7optionsNtB5_12SplitOptionsNtNtCsbrO2ourfQV3_15tensor4all_core10truncation19HasTruncationParams21truncation_params_mut
FNF:25
FNH:3
DA:30,3
DA:31,3
DA:32,3
DA:33,3
DA:34,3
DA:35,3
DA:40,0
DA:41,0
DA:42,0
DA:45,7
DA:46,7
DA:47,7
DA:48,7
DA:49,7
DA:50,7
DA:53,8
DA:54,8
DA:55,8
DA:56,8
DA:59,0
DA:60,0
DA:61,0
DA:62,0
DA:65,0
DA:66,0
DA:67,0
DA:68,0
DA:89,0
DA:90,0
DA:91,0
DA:92,0
DA:93,0
DA:94,0
DA:98,0
DA:99,0
DA:100,0
DA:102,0
DA:103,0
DA:104,0
DA:109,0
DA:110,0
DA:111,0
DA:114,0
DA:115,0
DA:116,0
DA:117,0
DA:120,0
DA:121,0
DA:122,0
DA:123,0
DA:126,0
DA:127,0
DA:128,0
DA:129,0
DA:132,0
DA:133,0
DA:134,0
DA:137,0
DA:138,0
DA:139,0
DA:163,0
DA:164,0
DA:165,0
DA:166,0
DA:167,0
DA:168,0
DA:169,0
DA:173,0
DA:174,0
DA:175,0
DA:177,0
DA:178,0
DA:179,0
DA:184,0
DA:185,0
DA:186,0
DA:189,0
DA:190,0
DA:191,0
DA:192,0
DA:195,0
DA:196,0
DA:197,0
DA:198,0
DA:201,0
DA:202,0
DA:203,0
DA:204,0
DA:207,0
DA:208,0
DA:209,0
DA:210,0
DA:213,0
DA:214,0
DA:215,0
DA:218,0
DA:219,0
DA:220,0
BRF:0
BRH:0
LF:98
LH:16
end_of_record
SF:/Users/ken/git_for_collab4/tensor4all-rs/crates/tensor4all-treetn/src/random.rs
FN:119,_RINvNtCsaogGgQeyHx_17tensor4all_treetn6random17random_treetn_c64ppEB4_
FN:98,_RINvNtCsaogGgQeyHx_17tensor4all_treetn6random17random_treetn_f64ppEB4_
FN:132,_RINvNtCsaogGgQeyHx_17tensor4all_treetn6random18random_treetn_implppEB4_
FN:155,_RNCINvNtCsaogGgQeyHx_17tensor4all_treetn6random18random_treetn_implppE0B6_
FN:30,_RNvMNtCsaogGgQeyHx_17tensor4all_treetn6randomINtB2_9LinkSpacepE7uniformB4_
FN:35,_RNvMNtCsaogGgQeyHx_17tensor4all_treetn6randomINtB2_9LinkSpacepE8per_edgeB4_
FN:44,_RNvMs_NtCsaogGgQeyHx_17tensor4all_treetn6randomINtB4_9LinkSpacepE3getB6_
FNDA:0,_RINvNtCsaogGgQeyHx_17tensor4all_treetn6random17random_treetn_c64ppEB4_
FNDA:0,_RINvNtCsaogGgQeyHx_17tensor4all_treetn6random17random_treetn_f64ppEB4_
FNDA:0,_RINvNtCsaogGgQeyHx_17tensor4all_treetn6random18random_treetn_implppEB4_
FNDA:0,_RNCINvNtCsaogGgQeyHx_17tensor4all_treetn6random18random_treetn_implppE0B6_
FNDA:0,_RNvMNtCsaogGgQeyHx_17tensor4all_treetn6randomINtB2_9LinkSpacepE7uniformB4_
FNDA:0,_RNvMNtCsaogGgQeyHx_17tensor4all_treetn6randomINtB2_9LinkSpacepE8per_edgeB4_
FNDA:0,_RNvMs_NtCsaogGgQeyHx_17tensor4all_treetn6randomINtB4_9LinkSpacepE3getB6_
FNF:7
FNH:0
DA:30,0
DA:31,0
DA:32,0
DA:35,0
DA:36,0
DA:37,0
DA:44,0
DA:45,0
DA:46,0
DA:47,0
DA:48,0
DA:49,0
DA:51,0
DA:53,0
DA:56,0
DA:98,0
DA:99,0
DA:100,0
DA:101,0
DA:102,0
DA:103,0
DA:104,0
DA:105,0
DA:107,0
DA:108,0
DA:119,0
DA:120,0
DA:121,0
DA:122,0
DA:123,0
DA:124,0
DA:125,0
DA:126,0
DA:128,0
DA:129,0
DA:132,0
DA:133,0
DA:134,0
DA:135,0
DA:136,0
DA:137,0
DA:138,0
DA:139,0
DA:140,0
DA:144,0
DA:147,0
DA:148,0
DA:149,0
DA:151,0
DA:153,0
DA:155,0
DA:156,0
DA:157,0
DA:158,0
DA:159,0
DA:160,0
DA:164,0
DA:165,0
DA:167,0
DA:168,0
DA:171,0
DA:172,0
DA:173,0
DA:174,0
DA:177,0
DA:179,0
DA:180,0
DA:181,0
DA:183,0
DA:186,0
DA:187,0
DA:188,0
DA:192,0
DA:193,0
DA:195,0
DA:198,0
DA:199,0
DA:203,0
DA:204,0
BRF:0
BRH:0
LF:80
LH:0
end_of_record
SF:/Users/ken/git_for_collab4/tensor4all-rs/crates/tensor4all-treetn/src/site_index_network.rs
FN:79,_RINvMNtCsaogGgQeyHx_17tensor4all_treetn18site_index_networkINtB3_16SiteIndexNetworkjINtNtNtCsbrO2ourfQV3_15tensor4all_core8defaults5index5IndexNtB1n_5DynIdEE8add_nodeINtNtNtNtCsiThrkg7suPy_3std11collections4hash3set7HashSetB1k_EECsaRfSWFUMrL5_22tensor4all_itensorlike
FN:204,_RNCNvMNtCsaogGgQeyHx_17tensor4all_treetn18site_index_networkINtB4_16SiteIndexNetworkjINtNtNtCsbrO2ourfQV3_15tensor4all_core8defaults5index5IndexNtB1o_5DynIdEE14set_site_space0CsaRfSWFUMrL5_22tensor4all_itensorlike
FN:271,_RNCNvMNtCsaogGgQeyHx_17tensor4all_treetn18site_index_networkINtB4_16SiteIndexNetworkjINtNtNtCsbrO2ourfQV3_15tensor4all_core8defaults5index5IndexNtB1o_5DynIdEE5edges0CsaRfSWFUMrL5_22tensor4all_itensorlike
FN:289,_RNCNvMNtCsaogGgQeyHx_17tensor4all_treetn18site_index_networkINtB4_16SiteIndexNetworkjINtNtNtCsbrO2ourfQV3_15tensor4all_core8defaults5index5IndexNtB1o_5DynIdEE9neighbors0CsaRfSWFUMrL5_22tensor4all_itensorlike
FN:290,_RNCNvMNtCsaogGgQeyHx_17tensor4all_treetn18site_index_networkINtB4_16SiteIndexNetworkjINtNtNtCsbrO2ourfQV3_15tensor4all_core8defaults5index5IndexNtB1o_5DynIdEE9neighborss_0CsaRfSWFUMrL5_22tensor4all_itensorlike
FN:247,_RNvMNtCsaogGgQeyHx_17tensor4all_treetn18site_index_networkINtB2_16SiteIndexNetworkjINtNtNtCsbrO2ourfQV3_15tensor4all_core8defaults5index5IndexNtB1m_5DynIdEE10node_namesCsaRfSWFUMrL5_22tensor4all_itensorlike
FN:101,_RNvMNtCsaogGgQeyHx_17tensor4all_treetn18site_index_networkINtB2_16SiteIndexNetworkjINtNtNtCsbrO2ourfQV3_15tensor4all_core8defaults5index5IndexNtB1m_5DynIdEE10site_spaceCsaRfSWFUMrL5_22tensor4all_itensorlike
FN:196,_RNvMNtCsaogGgQeyHx_17tensor4all_treetn18site_index_networkINtB2_16SiteIndexNetworkjINtNtNtCsbrO2ourfQV3_15tensor4all_core8defaults5index5IndexNtB1m_5DynIdEE14set_site_spaceCsaRfSWFUMrL5_22tensor4all_itensorlike
FN:111,_RNvMNtCsaogGgQeyHx_17tensor4all_treetn18site_index_networkINtB2_16SiteIndexNetworkjINtNtNtCsbrO2ourfQV3_15tensor4all_core8defaults5index5IndexNtB1m_5DynIdEE14site_space_mutCsaRfSWFUMrL5_22tensor4all_itensorlike
FN:354,_RNvMNtCsaogGgQeyHx_17tensor4all_treetn18site_index_networkINtB2_16SiteIndexNetworkjINtNtNtCsbrO2ourfQV3_15tensor4all_core8defaults5index5IndexNtB1m_5DynIdEE19is_connected_subsetCsaRfSWFUMrL5_22tensor4all_itensorlike
FN:359,_RNvMNtCsaogGgQeyHx_17tensor4all_treetn18site_index_networkINtB2_16SiteIndexNetworkjINtNtNtCsbrO2ourfQV3_15tensor4all_core8defaults5index5IndexNtB1m_5DynIdEE21edges_to_canonicalizeCsaRfSWFUMrL5_22tensor4all_itensorlike
FN:373,_RNvMNtCsaogGgQeyHx_17tensor4all_treetn18site_index_networkINtB2_16SiteIndexNetworkjINtNtNtCsbrO2ourfQV3_15tensor4all_core8defaults5index5IndexNtB1m_5DynIdEE30edges_to_canonicalize_by_namesCsaRfSWFUMrL5_22tensor4all_itensorlike
FN:383,_RNvMNtCsaogGgQeyHx_17tensor4all_treetn18site_index_networkINtB2_16SiteIndexNetworkjINtNtNtCsbrO2ourfQV3_15tensor4all_core8defaults5index5IndexNtB1m_5DynIdEE31edges_to_canonicalize_to_regionCsaRfSWFUMrL5_22tensor4all_itensorlike
FN:312,_RNvMNtCsaogGgQeyHx_17tensor4all_treetn18site_index_networkINtB2_16SiteIndexNetworkjINtNtNtCsbrO2ourfQV3_15tensor4all_core8defaults5index5IndexNtB1m_5DynIdEE35share_equivalent_site_index_networkCsaRfSWFUMrL5_22tensor4all_itensorlike
FN:55,_RNvMNtCsaogGgQeyHx_17tensor4all_treetn18site_index_networkINtB2_16SiteIndexNetworkjINtNtNtCsbrO2ourfQV3_15tensor4all_core8defaults5index5IndexNtB1m_5DynIdEE3newCsaRfSWFUMrL5_22tensor4all_itensorlike
FN:269,_RNvMNtCsaogGgQeyHx_17tensor4all_treetn18site_index_networkINtB2_16SiteIndexNetworkjINtNtNtCsbrO2ourfQV3_15tensor4all_core8defaults5index5IndexNtB1m_5DynIdEE5edgesCsaRfSWFUMrL5_22tensor4all_itensorlike
FN:232,_RNvMNtCsaogGgQeyHx_17tensor4all_treetn18site_index_networkINtB2_16SiteIndexNetworkjINtNtNtCsbrO2ourfQV3_15tensor4all_core8defaults5index5IndexNtB1m_5DynIdEE8add_edgeCsaRfSWFUMrL5_22tensor4all_itensorlike
FN:262,_RNvMNtCsaogGgQeyHx_17tensor4all_treetn18site_index_networkINtB2_16SiteIndexNetworkjINtNtNtCsbrO2ourfQV3_15tensor4all_core8defaults5index5IndexNtB1m_5DynIdEE8topologyCsaRfSWFUMrL5_22tensor4all_itensorlike
FN:282,_RNvMNtCsaogGgQeyHx_17tensor4all_treetn18site_index_networkINtB2_16SiteIndexNetworkjINtNtNtCsbrO2ourfQV3_15tensor4all_core8defaults5index5IndexNtB1m_5DynIdEE9neighborsCsaRfSWFUMrL5_22tensor4all_itensorlike
FN:79,_RINvMNtCsaogGgQeyHx_17tensor4all_treetn18site_index_networkINtB3_16SiteIndexNetworkppE8add_nodepEB5_
FN:143,_RNCNvMNtCsaogGgQeyHx_17tensor4all_treetn18site_index_networkINtB4_16SiteIndexNetworkppE14add_site_index0B6_
FN:204,_RNCNvMNtCsaogGgQeyHx_17tensor4all_treetn18site_index_networkINtB4_16SiteIndexNetworkppE14set_site_space0B6_
FN:157,_RNCNvMNtCsaogGgQeyHx_17tensor4all_treetn18site_index_networkINtB4_16SiteIndexNetworkppE17remove_site_index0B6_
FN:177,_RNCNvMNtCsaogGgQeyHx_17tensor4all_treetn18site_index_networkINtB4_16SiteIndexNetworkppE18replace_site_index0B6_
FN:474,_RNCNvMNtCsaogGgQeyHx_17tensor4all_treetn18site_index_networkINtB4_16SiteIndexNetworkppE26compatible_site_dimensions0B6_
FN:476,_RNCNvMNtCsaogGgQeyHx_17tensor4all_treetn18site_index_networkINtB4_16SiteIndexNetworkppE26compatible_site_dimensionss_0B6_
FN:271,_RNCNvMNtCsaogGgQeyHx_17tensor4all_treetn18site_index_networkINtB4_16SiteIndexNetworkppE5edges0B6_
FN:289,_RNCNvMNtCsaogGgQeyHx_17tensor4all_treetn18site_index_networkINtB4_16SiteIndexNetworkppE9neighbors0B6_
FN:290,_RNCNvMNtCsaogGgQeyHx_17tensor4all_treetn18site_index_networkINtB4_16SiteIndexNetworkppE9neighborss_0B6_
FN:257,_RNvMNtCsaogGgQeyHx_17tensor4all_treetn18site_index_networkINtB2_16SiteIndexNetworkppE10edge_countB4_
FN:252,_RNvMNtCsaogGgQeyHx_17tensor4all_treetn18site_index_networkINtB2_16SiteIndexNetworkppE10node_countB4_
FN:237,_RNvMNtCsaogGgQeyHx_17tensor4all_treetn18site_index_networkINtB2_16SiteIndexNetworkppE10node_indexB4_
FN:247,_RNvMNtCsaogGgQeyHx_17tensor4all_treetn18site_index_networkINtB2_16SiteIndexNetworkppE10node_namesB4_
FN:101,_RNvMNtCsaogGgQeyHx_17tensor4all_treetn18site_index_networkINtB2_16SiteIndexNetworkppE10site_spaceB4_
FN:349,_RNvMNtCsaogGgQeyHx_17tensor4all_treetn18site_index_networkINtB2_16SiteIndexNetworkppE12path_betweenB4_
FN:64,_RNvMNtCsaogGgQeyHx_17tensor4all_treetn18site_index_networkINtB2_16SiteIndexNetworkppE13with_capacityB4_
FN:139,_RNvMNtCsaogGgQeyHx_17tensor4all_treetn18site_index_networkINtB2_16SiteIndexNetworkppE14add_site_indexB4_
FN:132,_RNvMNtCsaogGgQeyHx_17tensor4all_treetn18site_index_networkINtB2_16SiteIndexNetworkppE14contains_indexB4_
FN:339,_RNvMNtCsaogGgQeyHx_17tensor4all_treetn18site_index_networkINtB2_16SiteIndexNetworkppE14post_order_dfsB4_
FN:196,_RNvMNtCsaogGgQeyHx_17tensor4all_treetn18site_index_networkINtB2_16SiteIndexNetworkppE14set_site_spaceB4_
FN:111,_RNvMNtCsaogGgQeyHx_17tensor4all_treetn18site_index_networkINtB2_16SiteIndexNetworkppE14site_space_mutB4_
FN:153,_RNvMNtCsaogGgQeyHx_17tensor4all_treetn18site_index_networkINtB2_16SiteIndexNetworkppE17remove_site_indexB4_
FN:122,_RNvMNtCsaogGgQeyHx_17tensor4all_treetn18site_index_networkINtB2_16SiteIndexNetworkppE18find_node_by_indexB4_
FN:168,_RNvMNtCsaogGgQeyHx_17tensor4all_treetn18site_index_networkINtB2_16SiteIndexNetworkppE18replace_site_indexB4_
FN:354,_RNvMNtCsaogGgQeyHx_17tensor4all_treetn18site_index_networkINtB2_16SiteIndexNetworkppE19is_connected_subsetB4_
FN:224,_RNvMNtCsaogGgQeyHx_17tensor4all_treetn18site_index_networkINtB2_16SiteIndexNetworkppE19site_space_by_indexB4_
FN:359,_RNvMNtCsaogGgQeyHx_17tensor4all_treetn18site_index_networkINtB2_16SiteIndexNetworkppE21edges_to_canonicalizeB4_
FN:127,_RNvMNtCsaogGgQeyHx_17tensor4all_treetn18site_index_networkINtB2_16SiteIndexNetworkppE21find_node_by_index_idB4_
FN:427,_RNvMNtCsaogGgQeyHx_17tensor4all_treetn18site_index_networkINtB2_16SiteIndexNetworkppE23apply_operator_topologyB4_
FN:344,_RNvMNtCsaogGgQeyHx_17tensor4all_treetn18site_index_networkINtB2_16SiteIndexNetworkppE23post_order_dfs_by_indexB4_
FN:457,_RNvMNtCsaogGgQeyHx_17tensor4all_treetn18site_index_networkINtB2_16SiteIndexNetworkppE26compatible_site_dimensionsB4_
FN:373,_RNvMNtCsaogGgQeyHx_17tensor4all_treetn18site_index_networkINtB2_16SiteIndexNetworkppE30edges_to_canonicalize_by_namesB4_
FN:383,_RNvMNtCsaogGgQeyHx_17tensor4all_treetn18site_index_networkINtB2_16SiteIndexNetworkppE31edges_to_canonicalize_to_regionB4_
FN:312,_RNvMNtCsaogGgQeyHx_17tensor4all_treetn18site_index_networkINtB2_16SiteIndexNetworkppE35share_equivalent_site_index_networkB4_
FN:55,_RNvMNtCsaogGgQeyHx_17tensor4all_treetn18site_index_networkINtB2_16SiteIndexNetworkppE3newB4_
FN:393,_RNvMNtCsaogGgQeyHx_17tensor4all_treetn18site_index_networkINtB2_16SiteIndexNetworkppE40edges_to_canonicalize_to_region_by_namesB4_
FN:269,_RNvMNtCsaogGgQeyHx_17tensor4all_treetn18site_index_networkINtB2_16SiteIndexNetworkppE5edgesB4_
FN:294,_RNvMNtCsaogGgQeyHx_17tensor4all_treetn18site_index_networkINtB2_16SiteIndexNetworkppE5graphB4_
FN:232,_RNvMNtCsaogGgQeyHx_17tensor4all_treetn18site_index_networkINtB2_16SiteIndexNetworkppE8add_edgeB4_
FN:96,_RNvMNtCsaogGgQeyHx_17tensor4all_treetn18site_index_networkINtB2_16SiteIndexNetworkppE8has_nodeB4_
FN:262,_RNvMNtCsaogGgQeyHx_17tensor4all_treetn18site_index_networkINtB2_16SiteIndexNetworkppE8topologyB4_
FN:301,_RNvMNtCsaogGgQeyHx_17tensor4all_treetn18site_index_networkINtB2_16SiteIndexNetworkppE9graph_mutB4_
FN:282,_RNvMNtCsaogGgQeyHx_17tensor4all_treetn18site_index_networkINtB2_16SiteIndexNetworkppE9neighborsB4_
FN:242,_RNvMNtCsaogGgQeyHx_17tensor4all_treetn18site_index_networkINtB2_16SiteIndexNetworkppE9node_nameB4_
FN:498,_RNvXININtCsaogGgQeyHx_17tensor4all_treetn18site_index_networks_0ppEINtB5_16SiteIndexNetworkppENtNtCskzPJi2J8k3N_4core7default7Default7defaultB7_
FN:79,_RINvMNtCsaogGgQeyHx_17tensor4all_treetn18site_index_networkINtB3_16SiteIndexNetworkjINtNtNtCsbrO2ourfQV3_15tensor4all_core8defaults5index5IndexNtB1n_5DynIdEE8add_nodeINtNtNtNtCsiThrkg7suPy_3std11collections4hash3set7HashSetB1k_EECsk8nCQTNnVi9_22tensor4all_itensorlike
FN:204,_RNCNvMNtCsaogGgQeyHx_17tensor4all_treetn18site_index_networkINtB4_16SiteIndexNetworkjINtNtNtCsbrO2ourfQV3_15tensor4all_core8defaults5index5IndexNtB1o_5DynIdEE14set_site_space0Csk8nCQTNnVi9_22tensor4all_itensorlike
FN:271,_RNCNvMNtCsaogGgQeyHx_17tensor4all_treetn18site_index_networkINtB4_16SiteIndexNetworkjINtNtNtCsbrO2ourfQV3_15tensor4all_core8defaults5index5IndexNtB1o_5DynIdEE5edges0Csk8nCQTNnVi9_22tensor4all_itensorlike
FN:289,_RNCNvMNtCsaogGgQeyHx_17tensor4all_treetn18site_index_networkINtB4_16SiteIndexNetworkjINtNtNtCsbrO2ourfQV3_15tensor4all_core8defaults5index5IndexNtB1o_5DynIdEE9neighbors0Csk8nCQTNnVi9_22tensor4all_itensorlike
FN:290,_RNCNvMNtCsaogGgQeyHx_17tensor4all_treetn18site_index_networkINtB4_16SiteIndexNetworkjINtNtNtCsbrO2ourfQV3_15tensor4all_core8defaults5index5IndexNtB1o_5DynIdEE9neighborss_0Csk8nCQTNnVi9_22tensor4all_itensorlike
FN:247,_RNvMNtCsaogGgQeyHx_17tensor4all_treetn18site_index_networkINtB2_16SiteIndexNetworkjINtNtNtCsbrO2ourfQV3_15tensor4all_core8defaults5index5IndexNtB1m_5DynIdEE10node_namesCsk8nCQTNnVi9_22tensor4all_itensorlike
FN:101,_RNvMNtCsaogGgQeyHx_17tensor4all_treetn18site_index_networkINtB2_16SiteIndexNetworkjINtNtNtCsbrO2ourfQV3_15tensor4all_core8defaults5index5IndexNtB1m_5DynIdEE10site_spaceCsk8nCQTNnVi9_22tensor4all_itensorlike
FN:196,_RNvMNtCsaogGgQeyHx_17tensor4all_treetn18site_index_networkINtB2_16SiteIndexNetworkjINtNtNtCsbrO2ourfQV3_15tensor4all_core8defaults5index5IndexNtB1m_5DynIdEE14set_site_spaceCsk8nCQTNnVi9_22tensor4all_itensorlike
FN:111,_RNvMNtCsaogGgQeyHx_17tensor4all_treetn18site_index_networkINtB2_16SiteIndexNetworkjINtNtNtCsbrO2ourfQV3_15tensor4all_core8defaults5index5IndexNtB1m_5DynIdEE14site_space_mutCsk8nCQTNnVi9_22tensor4all_itensorlike
FN:354,_RNvMNtCsaogGgQeyHx_17tensor4all_treetn18site_index_networkINtB2_16SiteIndexNetworkjINtNtNtCsbrO2ourfQV3_15tensor4all_core8defaults5index5IndexNtB1m_5DynIdEE19is_connected_subsetCsk8nCQTNnVi9_22tensor4all_itensorlike
FN:359,_RNvMNtCsaogGgQeyHx_17tensor4all_treetn18site_index_networkINtB2_16SiteIndexNetworkjINtNtNtCsbrO2ourfQV3_15tensor4all_core8defaults5index5IndexNtB1m_5DynIdEE21edges_to_canonicalizeCsk8nCQTNnVi9_22tensor4all_itensorlike
FN:373,_RNvMNtCsaogGgQeyHx_17tensor4all_treetn18site_index_networkINtB2_16SiteIndexNetworkjINtNtNtCsbrO2ourfQV3_15tensor4all_core8defaults5index5IndexNtB1m_5DynIdEE30edges_to_canonicalize_by_namesCsk8nCQTNnVi9_22tensor4all_itensorlike
FN:383,_RNvMNtCsaogGgQeyHx_17tensor4all_treetn18site_index_networkINtB2_16SiteIndexNetworkjINtNtNtCsbrO2ourfQV3_15tensor4all_core8defaults5index5IndexNtB1m_5DynIdEE31edges_to_canonicalize_to_regionCsk8nCQTNnVi9_22tensor4all_itensorlike
FN:312,_RNvMNtCsaogGgQeyHx_17tensor4all_treetn18site_index_networkINtB2_16SiteIndexNetworkjINtNtNtCsbrO2ourfQV3_15tensor4all_core8defaults5index5IndexNtB1m_5DynIdEE35share_equivalent_site_index_networkCsk8nCQTNnVi9_22tensor4all_itensorlike
FN:55,_RNvMNtCsaogGgQeyHx_17tensor4all_treetn18site_index_networkINtB2_16SiteIndexNetworkjINtNtNtCsbrO2ourfQV3_15tensor4all_core8defaults5index5IndexNtB1m_5DynIdEE3newCsk8nCQTNnVi9_22tensor4all_itensorlike
FN:269,_RNvMNtCsaogGgQeyHx_17tensor4all_treetn18site_index_networkINtB2_16SiteIndexNetworkjINtNtNtCsbrO2ourfQV3_15tensor4all_core8defaults5index5IndexNtB1m_5DynIdEE5edgesCsk8nCQTNnVi9_22tensor4all_itensorlike
FN:232,_RNvMNtCsaogGgQeyHx_17tensor4all_treetn18site_index_networkINtB2_16SiteIndexNetworkjINtNtNtCsbrO2ourfQV3_15tensor4all_core8defaults5index5IndexNtB1m_5DynIdEE8add_edgeCsk8nCQTNnVi9_22tensor4all_itensorlike
FN:262,_RNvMNtCsaogGgQeyHx_17tensor4all_treetn18site_index_networkINtB2_16SiteIndexNetworkjINtNtNtCsbrO2ourfQV3_15tensor4all_core8defaults5index5IndexNtB1m_5DynIdEE8topologyCsk8nCQTNnVi9_22tensor4all_itensorlike
FN:282,_RNvMNtCsaogGgQeyHx_17tensor4all_treetn18site_index_networkINtB2_16SiteIndexNetworkjINtNtNtCsbrO2ourfQV3_15tensor4all_core8defaults5index5IndexNtB1m_5DynIdEE9neighborsCsk8nCQTNnVi9_22tensor4all_itensorlike
FNDA:9,_RINvMNtCsaogGgQeyHx_17tensor4all_treetn18site_index_networkINtB3_16SiteIndexNetworkjINtNtNtCsbrO2ourfQV3_15tensor4all_core8defaults5index5IndexNtB1n_5DynIdEE8add_nodeINtNtNtNtCsiThrkg7suPy_3std11collections4hash3set7HashSetB1k_EECsaRfSWFUMrL5_22tensor4all_itensorlike
FNDA:0,_RNCNvMNtCsaogGgQeyHx_17tensor4all_treetn18site_index_networkINtB4_16SiteIndexNetworkjINtNtNtCsbrO2ourfQV3_15tensor4all_core8defaults5index5IndexNtB1o_5DynIdEE14set_site_space0CsaRfSWFUMrL5_22tensor4all_itensorlike
FNDA:0,_RNCNvMNtCsaogGgQeyHx_17tensor4all_treetn18site_index_networkINtB4_16SiteIndexNetworkjINtNtNtCsbrO2ourfQV3_15tensor4all_core8defaults5index5IndexNtB1o_5DynIdEE5edges0CsaRfSWFUMrL5_22tensor4all_itensorlike
FNDA:0,_RNCNvMNtCsaogGgQeyHx_17tensor4all_treetn18site_index_networkINtB4_16SiteIndexNetworkjINtNtNtCsbrO2ourfQV3_15tensor4all_core8defaults5index5IndexNtB1o_5DynIdEE9neighbors0CsaRfSWFUMrL5_22tensor4all_itensorlike
FNDA:0,_RNCNvMNtCsaogGgQeyHx_17tensor4all_treetn18site_index_networkINtB4_16SiteIndexNetworkjINtNtNtCsbrO2ourfQV3_15tensor4all_core8defaults5index5IndexNtB1o_5DynIdEE9neighborss_0CsaRfSWFUMrL5_22tensor4all_itensorlike
FNDA:3,_RNvMNtCsaogGgQeyHx_17tensor4all_treetn18site_index_networkINtB2_16SiteIndexNetworkjINtNtNtCsbrO2ourfQV3_15tensor4all_core8defaults5index5IndexNtB1m_5DynIdEE10node_namesCsaRfSWFUMrL5_22tensor4all_itensorlike
FNDA:8,_RNvMNtCsaogGgQeyHx_17tensor4all_treetn18site_index_networkINtB2_16SiteIndexNetworkjINtNtNtCsbrO2ourfQV3_15tensor4all_core8defaults5index5IndexNtB1m_5DynIdEE10site_spaceCsaRfSWFUMrL5_22tensor4all_itensorlike
FNDA:0,_RNvMNtCsaogGgQeyHx_17tensor4all_treetn18site_index_networkINtB2_16SiteIndexNetworkjINtNtNtCsbrO2ourfQV3_15tensor4all_core8defaults5index5IndexNtB1m_5DynIdEE14set_site_spaceCsaRfSWFUMrL5_22tensor4all_itensorlike
FNDA:4,_RNvMNtCsaogGgQeyHx_17tensor4all_treetn18site_index_networkINtB2_16SiteIndexNetworkjINtNtNtCsbrO2ourfQV3_15tensor4all_core8defaults5index5IndexNtB1m_5DynIdEE14site_space_mutCsaRfSWFUMrL5_22tensor4all_itensorlike
FNDA:0,_RNvMNtCsaogGgQeyHx_17tensor4all_treetn18site_index_networkINtB2_16SiteIndexNetworkjINtNtNtCsbrO2ourfQV3_15tensor4all_core8defaults5index5IndexNtB1m_5DynIdEE19is_connected_subsetCsaRfSWFUMrL5_22tensor4all_itensorlike
FNDA:0,_RNvMNtCsaogGgQeyHx_17tensor4all_treetn18site_index_networkINtB2_16SiteIndexNetworkjINtNtNtCsbrO2ourfQV3_15tensor4all_core8defaults5index5IndexNtB1m_5DynIdEE21edges_to_canonicalizeCsaRfSWFUMrL5_22tensor4all_itensorlike
FNDA:1,_RNvMNtCsaogGgQeyHx_17tensor4all_treetn18site_index_networkINtB2_16SiteIndexNetworkjINtNtNtCsbrO2ourfQV3_15tensor4all_core8defaults5index5IndexNtB1m_5DynIdEE30edges_to_canonicalize_by_namesCsaRfSWFUMrL5_22tensor4all_itensorlike
FNDA:0,_RNvMNtCsaogGgQeyHx_17tensor4all_treetn18site_index_networkINtB2_16SiteIndexNetworkjINtNtNtCsbrO2ourfQV3_15tensor4all_core8defaults5index5IndexNtB1m_5DynIdEE31edges_to_canonicalize_to_regionCsaRfSWFUMrL5_22tensor4all_itensorlike
FNDA:3,_RNvMNtCsaogGgQeyHx_17tensor4all_treetn18site_index_networkINtB2_16SiteIndexNetworkjINtNtNtCsbrO2ourfQV3_15tensor4all_core8defaults5index5IndexNtB1m_5DynIdEE35share_equivalent_site_index_networkCsaRfSWFUMrL5_22tensor4all_itensorlike
FNDA:8,_RNvMNtCsaogGgQeyHx_17tensor4all_treetn18site_index_networkINtB2_16SiteIndexNetworkjINtNtNtCsbrO2ourfQV3_15tensor4all_core8defaults5index5IndexNtB1m_5DynIdEE3newCsaRfSWFUMrL5_22tensor4all_itensorlike
FNDA:0,_RNvMNtCsaogGgQeyHx_17tensor4all_treetn18site_index_networkINtB2_16SiteIndexNetworkjINtNtNtCsbrO2ourfQV3_15tensor4all_core8defaults5index5IndexNtB1m_5DynIdEE5edgesCsaRfSWFUMrL5_22tensor4all_itensorlike
FNDA:2,_RNvMNtCsaogGgQeyHx_17tensor4all_treetn18site_index_networkINtB2_16SiteIndexNetworkjINtNtNtCsbrO2ourfQV3_15tensor4all_core8defaults5index5IndexNtB1m_5DynIdEE8add_edgeCsaRfSWFUMrL5_22tensor4all_itensorlike
FNDA:8,_RNvMNtCsaogGgQeyHx_17tensor4all_treetn18site_index_networkINtB2_16SiteIndexNetworkjINtNtNtCsbrO2ourfQV3_15tensor4all_core8defaults5index5IndexNtB1m_5DynIdEE8topologyCsaRfSWFUMrL5_22tensor4all_itensorlike
FNDA:0,_RNvMNtCsaogGgQeyHx_17tensor4all_treetn18site_index_networkINtB2_16SiteIndexNetworkjINtNtNtCsbrO2ourfQV3_15tensor4all_core8defaults5index5IndexNtB1m_5DynIdEE9neighborsCsaRfSWFUMrL5_22tensor4all_itensorlike
FNDA:0,_RINvMNtCsaogGgQeyHx_17tensor4all_treetn18site_index_networkINtB3_16SiteIndexNetworkppE8add_nodepEB5_
FNDA:0,_RNCNvMNtCsaogGgQeyHx_17tensor4all_treetn18site_index_networkINtB4_16SiteIndexNetworkppE14add_site_index0B6_
FNDA:0,_RNCNvMNtCsaogGgQeyHx_17tensor4all_treetn18site_index_networkINtB4_16SiteIndexNetworkppE14set_site_space0B6_
FNDA:0,_RNCNvMNtCsaogGgQeyHx_17tensor4all_treetn18site_index_networkINtB4_16SiteIndexNetworkppE17remove_site_index0B6_
FNDA:0,_RNCNvMNtCsaogGgQeyHx_17tensor4all_treetn18site_index_networkINtB4_16SiteIndexNetworkppE18replace_site_index0B6_
FNDA:0,_RNCNvMNtCsaogGgQeyHx_17tensor4all_treetn18site_index_networkINtB4_16SiteIndexNetworkppE26compatible_site_dimensions0B6_
FNDA:0,_RNCNvMNtCsaogGgQeyHx_17tensor4all_treetn18site_index_networkINtB4_16SiteIndexNetworkppE26compatible_site_dimensionss_0B6_
FNDA:0,_RNCNvMNtCsaogGgQeyHx_17tensor4all_treetn18site_index_networkINtB4_16SiteIndexNetworkppE5edges0B6_
FNDA:0,_RNCNvMNtCsaogGgQeyHx_17tensor4all_treetn18site_index_networkINtB4_16SiteIndexNetworkppE9neighbors0B6_
FNDA:0,_RNCNvMNtCsaogGgQeyHx_17tensor4all_treetn18site_index_networkINtB4_16SiteIndexNetworkppE9neighborss_0B6_
FNDA:0,_RNvMNtCsaogGgQeyHx_17tensor4all_treetn18site_index_networkINtB2_16SiteIndexNetworkppE10edge_countB4_
FNDA:0,_RNvMNtCsaogGgQeyHx_17tensor4all_treetn18site_index_networkINtB2_16SiteIndexNetworkppE10node_countB4_
FNDA:0,_RNvMNtCsaogGgQeyHx_17tensor4all_treetn18site_index_networkINtB2_16SiteIndexNetworkppE10node_indexB4_
FNDA:0,_RNvMNtCsaogGgQeyHx_17tensor4all_treetn18site_index_networkINtB2_16SiteIndexNetworkppE10node_namesB4_
FNDA:0,_RNvMNtCsaogGgQeyHx_17tensor4all_treetn18site_index_networkINtB2_16SiteIndexNetworkppE10site_spaceB4_
FNDA:0,_RNvMNtCsaogGgQeyHx_17tensor4all_treetn18site_index_networkINtB2_16SiteIndexNetworkppE12path_betweenB4_
FNDA:0,_RNvMNtCsaogGgQeyHx_17tensor4all_treetn18site_index_networkINtB2_16SiteIndexNetworkppE13with_capacityB4_
FNDA:0,_RNvMNtCsaogGgQeyHx_17tensor4all_treetn18site_index_networkINtB2_16SiteIndexNetworkppE14add_site_indexB4_
FNDA:0,_RNvMNtCsaogGgQeyHx_17tensor4all_treetn18site_index_networkINtB2_16SiteIndexNetworkppE14contains_indexB4_
FNDA:0,_RNvMNtCsaogGgQeyHx_17tensor4all_treetn18site_index_networkINtB2_16SiteIndexNetworkppE14post_order_dfsB4_
FNDA:0,_RNvMNtCsaogGgQeyHx_17tensor4all_treetn18site_index_networkINtB2_16SiteIndexNetworkppE14set_site_spaceB4_
FNDA:0,_RNvMNtCsaogGgQeyHx_17tensor4all_treetn18site_index_networkINtB2_16SiteIndexNetworkppE14site_space_mutB4_
FNDA:0,_RNvMNtCsaogGgQeyHx_17tensor4all_treetn18site_index_networkINtB2_16SiteIndexNetworkppE17remove_site_indexB4_
FNDA:0,_RNvMNtCsaogGgQeyHx_17tensor4all_treetn18site_index_networkINtB2_16SiteIndexNetworkppE18find_node_by_indexB4_
FNDA:0,_RNvMNtCsaogGgQeyHx_17tensor4all_treetn18site_index_networkINtB2_16SiteIndexNetworkppE18replace_site_indexB4_
FNDA:0,_RNvMNtCsaogGgQeyHx_17tensor4all_treetn18site_index_networkINtB2_16SiteIndexNetworkppE19is_connected_subsetB4_
FNDA:0,_RNvMNtCsaogGgQeyHx_17tensor4all_treetn18site_index_networkINtB2_16SiteIndexNetworkppE19site_space_by_indexB4_
FNDA:0,_RNvMNtCsaogGgQeyHx_17tensor4all_treetn18site_index_networkINtB2_16SiteIndexNetworkppE21edges_to_canonicalizeB4_
FNDA:0,_RNvMNtCsaogGgQeyHx_17tensor4all_treetn18site_index_networkINtB2_16SiteIndexNetworkppE21find_node_by_index_idB4_
FNDA:0,_RNvMNtCsaogGgQeyHx_17tensor4all_treetn18site_index_networkINtB2_16SiteIndexNetworkppE23apply_operator_topologyB4_
FNDA:0,_RNvMNtCsaogGgQeyHx_17tensor4all_treetn18site_index_networkINtB2_16SiteIndexNetworkppE23post_order_dfs_by_indexB4_
FNDA:0,_RNvMNtCsaogGgQeyHx_17tensor4all_treetn18site_index_networkINtB2_16SiteIndexNetworkppE26compatible_site_dimensionsB4_
FNDA:0,_RNvMNtCsaogGgQeyHx_17tensor4all_treetn18site_index_networkINtB2_16SiteIndexNetworkppE30edges_to_canonicalize_by_namesB4_
FNDA:0,_RNvMNtCsaogGgQeyHx_17tensor4all_treetn18site_index_networkINtB2_16SiteIndexNetworkppE31edges_to_canonicalize_to_regionB4_
FNDA:0,_RNvMNtCsaogGgQeyHx_17tensor4all_treetn18site_index_networkINtB2_16SiteIndexNetworkppE35share_equivalent_site_index_networkB4_
FNDA:0,_RNvMNtCsaogGgQeyHx_17tensor4all_treetn18site_index_networkINtB2_16SiteIndexNetworkppE3newB4_
FNDA:0,_RNvMNtCsaogGgQeyHx_17tensor4all_treetn18site_index_networkINtB2_16SiteIndexNetworkppE40edges_to_canonicalize_to_region_by_namesB4_
FNDA:0,_RNvMNtCsaogGgQeyHx_17tensor4all_treetn18site_index_networkINtB2_16SiteIndexNetworkppE5edgesB4_
FNDA:0,_RNvMNtCsaogGgQeyHx_17tensor4all_treetn18site_index_networkINtB2_16SiteIndexNetworkppE5graphB4_
FNDA:0,_RNvMNtCsaogGgQeyHx_17tensor4all_treetn18site_index_networkINtB2_16SiteIndexNetworkppE8add_edgeB4_
FNDA:0,_RNvMNtCsaogGgQeyHx_17tensor4all_treetn18site_index_networkINtB2_16SiteIndexNetworkppE8has_nodeB4_
FNDA:0,_RNvMNtCsaogGgQeyHx_17tensor4all_treetn18site_index_networkINtB2_16SiteIndexNetworkppE8topologyB4_
FNDA:0,_RNvMNtCsaogGgQeyHx_17tensor4all_treetn18site_index_networkINtB2_16SiteIndexNetworkppE9graph_mutB4_
FNDA:0,_RNvMNtCsaogGgQeyHx_17tensor4all_treetn18site_index_networkINtB2_16SiteIndexNetworkppE9neighborsB4_
FNDA:0,_RNvMNtCsaogGgQeyHx_17tensor4all_treetn18site_index_networkINtB2_16SiteIndexNetworkppE9node_nameB4_
FNDA:0,_RNvXININtCsaogGgQeyHx_17tensor4all_treetn18site_index_networks_0ppEINtB5_16SiteIndexNetworkppENtNtCskzPJi2J8k3N_4core7default7Default7defaultB7_
FNDA:87,_RINvMNtCsaogGgQeyHx_17tensor4all_treetn18site_index_networkINtB3_16SiteIndexNetworkjINtNtNtCsbrO2ourfQV3_15tensor4all_core8defaults5index5IndexNtB1n_5DynIdEE8add_nodeINtNtNtNtCsiThrkg7suPy_3std11collections4hash3set7HashSetB1k_EECsk8nCQTNnVi9_22tensor4all_itensorlike
FNDA:0,_RNCNvMNtCsaogGgQeyHx_17tensor4all_treetn18site_index_networkINtB4_16SiteIndexNetworkjINtNtNtCsbrO2ourfQV3_15tensor4all_core8defaults5index5IndexNtB1o_5DynIdEE14set_site_space0Csk8nCQTNnVi9_22tensor4all_itensorlike
FNDA:0,_RNCNvMNtCsaogGgQeyHx_17tensor4all_treetn18site_index_networkINtB4_16SiteIndexNetworkjINtNtNtCsbrO2ourfQV3_15tensor4all_core8defaults5index5IndexNtB1o_5DynIdEE5edges0Csk8nCQTNnVi9_22tensor4all_itensorlike
FNDA:24,_RNCNvMNtCsaogGgQeyHx_17tensor4all_treetn18site_index_networkINtB4_16SiteIndexNetworkjINtNtNtCsbrO2ourfQV3_15tensor4all_core8defaults5index5IndexNtB1o_5DynIdEE9neighbors0Csk8nCQTNnVi9_22tensor4all_itensorlike
FNDA:36,_RNCNvMNtCsaogGgQeyHx_17tensor4all_treetn18site_index_networkINtB4_16SiteIndexNetworkjINtNtNtCsbrO2ourfQV3_15tensor4all_core8defaults5index5IndexNtB1o_5DynIdEE9neighborss_0Csk8nCQTNnVi9_22tensor4all_itensorlike
FNDA:19,_RNvMNtCsaogGgQeyHx_17tensor4all_treetn18site_index_networkINtB2_16SiteIndexNetworkjINtNtNtCsbrO2ourfQV3_15tensor4all_core8defaults5index5IndexNtB1m_5DynIdEE10node_namesCsk8nCQTNnVi9_22tensor4all_itensorlike
FNDA:69,_RNvMNtCsaogGgQeyHx_17tensor4all_treetn18site_index_networkINtB2_16SiteIndexNetworkjINtNtNtCsbrO2ourfQV3_15tensor4all_core8defaults5index5IndexNtB1m_5DynIdEE10site_spaceCsk8nCQTNnVi9_22tensor4all_itensorlike
FNDA:40,_RNvMNtCsaogGgQeyHx_17tensor4all_treetn18site_index_networkINtB2_16SiteIndexNetworkjINtNtNtCsbrO2ourfQV3_15tensor4all_core8defaults5index5IndexNtB1m_5DynIdEE14set_site_spaceCsk8nCQTNnVi9_22tensor4all_itensorlike
FNDA:116,_RNvMNtCsaogGgQeyHx_17tensor4all_treetn18site_index_networkINtB2_16SiteIndexNetworkjINtNtNtCsbrO2ourfQV3_15tensor4all_core8defaults5index5IndexNtB1m_5DynIdEE14site_space_mutCsk8nCQTNnVi9_22tensor4all_itensorlike
FNDA:18,_RNvMNtCsaogGgQeyHx_17tensor4all_treetn18site_index_networkINtB2_16SiteIndexNetworkjINtNtNtCsbrO2ourfQV3_15tensor4all_core8defaults5index5IndexNtB1m_5DynIdEE19is_connected_subsetCsk8nCQTNnVi9_22tensor4all_itensorlike
FNDA:0,_RNvMNtCsaogGgQeyHx_17tensor4all_treetn18site_index_networkINtB2_16SiteIndexNetworkjINtNtNtCsbrO2ourfQV3_15tensor4all_core8defaults5index5IndexNtB1m_5DynIdEE21edges_to_canonicalizeCsk8nCQTNnVi9_22tensor4all_itensorlike
FNDA:2,_RNvMNtCsaogGgQeyHx_17tensor4all_treetn18site_index_networkINtB2_16SiteIndexNetworkjINtNtNtCsbrO2ourfQV3_15tensor4all_core8defaults5index5IndexNtB1m_5DynIdEE30edges_to_canonicalize_by_namesCsk8nCQTNnVi9_22tensor4all_itensorlike
FNDA:10,_RNvMNtCsaogGgQeyHx_17tensor4all_treetn18site_index_networkINtB2_16SiteIndexNetworkjINtNtNtCsbrO2ourfQV3_15tensor4all_core8defaults5index5IndexNtB1m_5DynIdEE31edges_to_canonicalize_to_regionCsk8nCQTNnVi9_22tensor4all_itensorlike
FNDA:19,_RNvMNtCsaogGgQeyHx_17tensor4all_treetn18site_index_networkINtB2_16SiteIndexNetworkjINtNtNtCsbrO2ourfQV3_15tensor4all_core8defaults5index5IndexNtB1m_5DynIdEE35share_equivalent_site_index_networkCsk8nCQTNnVi9_22tensor4all_itensorlike
FNDA:57,_RNvMNtCsaogGgQeyHx_17tensor4all_treetn18site_index_networkINtB2_16SiteIndexNetworkjINtNtNtCsbrO2ourfQV3_15tensor4all_core8defaults5index5IndexNtB1m_5DynIdEE3newCsk8nCQTNnVi9_22tensor4all_itensorlike
FNDA:0,_RNvMNtCsaogGgQeyHx_17tensor4all_treetn18site_index_networkINtB2_16SiteIndexNetworkjINtNtNtCsbrO2ourfQV3_15tensor4all_core8defaults5index5IndexNtB1m_5DynIdEE5edgesCsk8nCQTNnVi9_22tensor4all_itensorlike
FNDA:38,_RNvMNtCsaogGgQeyHx_17tensor4all_treetn18site_index_networkINtB2_16SiteIndexNetworkjINtNtNtCsbrO2ourfQV3_15tensor4all_core8defaults5index5IndexNtB1m_5DynIdEE8add_edgeCsk8nCQTNnVi9_22tensor4all_itensorlike
FNDA:59,_RNvMNtCsaogGgQeyHx_17tensor4all_treetn18site_index_networkINtB2_16SiteIndexNetworkjINtNtNtCsbrO2ourfQV3_15tensor4all_core8defaults5index5IndexNtB1m_5DynIdEE8topologyCsk8nCQTNnVi9_22tensor4all_itensorlike
FNDA:24,_RNvMNtCsaogGgQeyHx_17tensor4all_treetn18site_index_networkINtB2_16SiteIndexNetworkjINtNtNtCsbrO2ourfQV3_15tensor4all_core8defaults5index5IndexNtB1m_5DynIdEE9neighborsCsk8nCQTNnVi9_22tensor4all_itensorlike
FNF:46
FNH:15
DA:55,65
DA:56,65
DA:57,65
DA:58,65
DA:59,65
DA:60,65
DA:61,65
DA:64,0
DA:65,0
DA:66,0
DA:67,0
DA:68,0
DA:69,0
DA:70,0
DA:79,96
DA:80,96
DA:81,96
DA:82,96
DA:83,96
DA:84,96
DA:85,96
DA:87,284
DA:88,188
DA:89,188
DA:90,188
DA:91,96
DA:92,96
DA:93,96
DA:96,0
DA:97,0
DA:98,0
DA:101,77
DA:102,77
DA:103,77
DA:111,120
DA:112,120
DA:113,120
DA:122,0
DA:123,0
DA:124,0
DA:127,0
DA:128,0
DA:129,0
DA:132,0
DA:133,0
DA:134,0
DA:139,0
DA:140,0
DA:141,0
DA:142,0
DA:143,0
DA:144,0
DA:145,0
DA:146,0
DA:147,0
DA:148,0
DA:153,0
DA:154,0
DA:155,0
DA:156,0
DA:157,0
DA:158,0
DA:159,0
DA:160,0
DA:161,0
DA:162,0
DA:163,0
DA:168,0
DA:169,0
DA:170,0
DA:171,0
DA:172,0
DA:173,0
DA:174,0
DA:175,0
DA:176,0
DA:177,0
DA:178,0
DA:179,0
DA:180,0
DA:181,0
DA:182,0
DA:183,0
DA:184,0
DA:185,0
DA:186,0
DA:187,0
DA:188,0
DA:189,0
DA:190,0
DA:196,40
DA:197,40
DA:198,40
DA:199,40
DA:200,40
DA:201,40
DA:202,40
DA:203,40
DA:204,40
DA:207,84
DA:208,84
DA:209,84
DA:212,84
DA:213,44
DA:214,44
DA:215,44
DA:218,40
DA:220,40
DA:221,40
DA:224,0
DA:225,0
DA:226,0
DA:227,0
DA:232,40
DA:233,40
DA:234,40
DA:237,0
DA:238,0
DA:239,0
DA:242,0
DA:243,0
DA:244,0
DA:247,22
DA:248,22
DA:249,22
DA:252,0
DA:253,0
DA:254,0
DA:257,0
DA:258,0
DA:259,0
DA:262,67
DA:263,67
DA:264,67
DA:269,0
DA:270,0
DA:271,0
DA:272,0
DA:273,0
DA:274,0
DA:275,0
DA:276,0
DA:277,0
DA:282,24
DA:283,24
DA:284,24
DA:285,24
DA:287,24
DA:288,24
DA:289,24
DA:290,36
DA:291,24
DA:294,0
DA:295,0
DA:296,0
DA:301,0
DA:302,0
DA:303,0
DA:312,22
DA:314,22
DA:315,0
DA:316,22
DA:319,38
DA:320,38
DA:321,38
DA:322,38
DA:323,0
DA:324,38
DA:326,0
DA:327,0
DA:331,22
DA:332,22
DA:339,0
DA:340,0
DA:341,0
DA:344,0
DA:345,0
DA:346,0
DA:349,0
DA:350,0
DA:351,0
DA:354,18
DA:355,18
DA:356,18
DA:359,0
DA:360,0
DA:361,0
DA:362,0
DA:363,0
DA:364,0
DA:365,0
DA:373,3
DA:374,3
DA:375,3
DA:376,3
DA:377,3
DA:378,3
DA:383,10
DA:384,10
DA:385,10
DA:386,10
DA:387,10
DA:388,10
DA:393,0
DA:394,0
DA:395,0
DA:396,0
DA:397,0
DA:398,0
DA:399,0
DA:427,0
DA:429,0
DA:430,0
DA:431,0
DA:432,0
DA:433,0
DA:434,0
DA:435,0
DA:445,0
DA:446,0
DA:457,0
DA:459,0
DA:460,0
DA:461,0
DA:464,0
DA:465,0
DA:466,0
DA:468,0
DA:469,0
DA:470,0
DA:474,0
DA:475,0
DA:476,0
DA:477,0
DA:478,0
DA:480,0
DA:481,0
DA:482,0
DA:484,0
DA:485,0
DA:489,0
DA:490,0
DA:498,0
DA:499,0
DA:500,0
BRF:0
BRH:0
LF:254
LH:91
end_of_record
SF:/Users/ken/git_for_collab4/tensor4all-rs/crates/tensor4all-treetn/src/treetn/addition.rs
FN:69,_RNCNvMNtNtCsaogGgQeyHx_17tensor4all_treetn6treetn8additionINtB6_6TreeTNppE27compute_merged_bond_indices0B8_
FN:79,_RNCNvMNtNtCsaogGgQeyHx_17tensor4all_treetn6treetn8additionINtB6_6TreeTNppE27compute_merged_bond_indicess0_0B8_
FN:84,_RNCNvMNtNtCsaogGgQeyHx_17tensor4all_treetn6treetn8additionINtB6_6TreeTNppE27compute_merged_bond_indicess1_0B8_
FN:91,_RNCNvMNtNtCsaogGgQeyHx_17tensor4all_treetn6treetn8additionINtB6_6TreeTNppE27compute_merged_bond_indicess2_0B8_
FN:95,_RNCNvMNtNtCsaogGgQeyHx_17tensor4all_treetn6treetn8additionINtB6_6TreeTNppE27compute_merged_bond_indicess3_0B8_
FN:103,_RNCNvMNtNtCsaogGgQeyHx_17tensor4all_treetn6treetn8additionINtB6_6TreeTNppE27compute_merged_bond_indicess4_0B8_
FN:110,_RNCNvMNtNtCsaogGgQeyHx_17tensor4all_treetn6treetn8additionINtB6_6TreeTNppE27compute_merged_bond_indicess5_0B8_
FN:114,_RNCNvMNtNtCsaogGgQeyHx_17tensor4all_treetn6treetn8additionINtB6_6TreeTNppE27compute_merged_bond_indicess6_0B8_
FN:73,_RNCNvMNtNtCsaogGgQeyHx_17tensor4all_treetn6treetn8additionINtB6_6TreeTNppE27compute_merged_bond_indicess_0B8_
FN:55,_RNvMNtNtCsaogGgQeyHx_17tensor4all_treetn6treetn8additionINtB4_6TreeTNppE27compute_merged_bond_indicesB6_
FN:160,_RNvMNtNtCsaogGgQeyHx_17tensor4all_treetn6treetn8additionINtB4_6TreeTNppE3addB6_
FNDA:0,_RNCNvMNtNtCsaogGgQeyHx_17tensor4all_treetn6treetn8additionINtB6_6TreeTNppE27compute_merged_bond_indices0B8_
FNDA:0,_RNCNvMNtNtCsaogGgQeyHx_17tensor4all_treetn6treetn8additionINtB6_6TreeTNppE27compute_merged_bond_indicess0_0B8_
FNDA:0,_RNCNvMNtNtCsaogGgQeyHx_17tensor4all_treetn6treetn8additionINtB6_6TreeTNppE27compute_merged_bond_indicess1_0B8_
FNDA:0,_RNCNvMNtNtCsaogGgQeyHx_17tensor4all_treetn6treetn8additionINtB6_6TreeTNppE27compute_merged_bond_indicess2_0B8_
FNDA:0,_RNCNvMNtNtCsaogGgQeyHx_17tensor4all_treetn6treetn8additionINtB6_6TreeTNppE27compute_merged_bond_indicess3_0B8_
FNDA:0,_RNCNvMNtNtCsaogGgQeyHx_17tensor4all_treetn6treetn8additionINtB6_6TreeTNppE27compute_merged_bond_indicess4_0B8_
FNDA:0,_RNCNvMNtNtCsaogGgQeyHx_17tensor4all_treetn6treetn8additionINtB6_6TreeTNppE27compute_merged_bond_indicess5_0B8_
FNDA:0,_RNCNvMNtNtCsaogGgQeyHx_17tensor4all_treetn6treetn8additionINtB6_6TreeTNppE27compute_merged_bond_indicess6_0B8_
FNDA:0,_RNCNvMNtNtCsaogGgQeyHx_17tensor4all_treetn6treetn8additionINtB6_6TreeTNppE27compute_merged_bond_indicess_0B8_
FNDA:0,_RNvMNtNtCsaogGgQeyHx_17tensor4all_treetn6treetn8additionINtB4_6TreeTNppE27compute_merged_bond_indicesB6_
FNDA:0,_RNvMNtNtCsaogGgQeyHx_17tensor4all_treetn6treetn8additionINtB4_6TreeTNppE3addB6_
FNF:11
FNH:0
DA:55,0
DA:56,0
DA:57,0
DA:58,0
DA:59,0
DA:60,0
DA:62,0
DA:64,0
DA:65,0
DA:66,0
DA:67,0
DA:68,0
DA:69,0
DA:71,0
DA:72,0
DA:73,0
DA:74,0
DA:76,0
DA:77,0
DA:78,0
DA:79,0
DA:80,0
DA:81,0
DA:82,0
DA:83,0
DA:84,0
DA:85,0
DA:88,0
DA:89,0
DA:90,0
DA:91,0
DA:92,0
DA:93,0
DA:94,0
DA:95,0
DA:98,0
DA:99,0
DA:100,0
DA:101,0
DA:102,0
DA:103,0
DA:104,0
DA:105,0
DA:106,0
DA:107,0
DA:108,0
DA:109,0
DA:110,0
DA:112,0
DA:113,0
DA:114,0
DA:115,0
DA:125,0
DA:128,0
DA:129,0
DA:131,0
DA:134,0
DA:135,0
DA:136,0
DA:137,0
DA:138,0
DA:139,0
DA:140,0
DA:144,0
DA:145,0
DA:160,0
DA:161,0
DA:162,0
DA:163,0
DA:164,0
DA:167,0
DA:168,0
DA:169,0
DA:170,0
DA:171,0
DA:174,0
DA:175,0
DA:177,0
DA:178,0
DA:179,0
DA:181,0
DA:182,0
DA:185,0
DA:187,0
DA:188,0
DA:189,0
DA:190,0
DA:191,0
DA:192,0
DA:193,0
DA:194,0
DA:195,0
DA:196,0
DA:197,0
DA:200,0
DA:201,0
DA:202,0
DA:206,0
DA:207,0
BRF:0
BRH:0
LF:108
LH:0
end_of_record
SF:/Users/ken/git_for_collab4/tensor4all-rs/crates/tensor4all-treetn/src/treetn/canonicalize.rs
FN:47,_RINvMNtNtCsaogGgQeyHx_17tensor4all_treetn6treetn12canonicalizeINtB5_6TreeTNNtNtNtCsbrO2ourfQV3_15tensor4all_core8defaults12tensordynlen12TensorDynLenjE12canonicalizeAjj1_ECsaRfSWFUMrL5_22tensor4all_itensorlike
FN:47,_RINvMNtNtCsaogGgQeyHx_17tensor4all_treetn6treetn12canonicalizeINtB5_6TreeTNNtNtNtCsbrO2ourfQV3_15tensor4all_core8defaults12tensordynlen12TensorDynLenjE12canonicalizeINtNtCsganj50Cd8Gx_5alloc3vec3VecjEECsaRfSWFUMrL5_22tensor4all_itensorlike
FN:47,_RINvMNtNtCsaogGgQeyHx_17tensor4all_treetn6treetn12canonicalizeINtB5_6TreeTNNtNtNtCsbrO2ourfQV3_15tensor4all_core8defaults12tensordynlen12TensorDynLenjE12canonicalizeINtNtNtNtCskzPJi2J8k3N_4core4iter7sources4once4OncejEECsaRfSWFUMrL5_22tensor4all_itensorlike
FN:83,_RINvMNtNtCsaogGgQeyHx_17tensor4all_treetn6treetn12canonicalizeINtB5_6TreeTNNtNtNtCsbrO2ourfQV3_15tensor4all_core8defaults12tensordynlen12TensorDynLenjE16canonicalize_mutINtNtNtNtCskzPJi2J8k3N_4core4iter7sources4once4OncejEECsaRfSWFUMrL5_22tensor4all_itensorlike
FN:104,_RINvMNtNtCsaogGgQeyHx_17tensor4all_treetn6treetn12canonicalizeINtB5_6TreeTNNtNtNtCsbrO2ourfQV3_15tensor4all_core8defaults12tensordynlen12TensorDynLenjE17canonicalize_implAjj1_ECsaRfSWFUMrL5_22tensor4all_itensorlike
FN:104,_RINvMNtNtCsaogGgQeyHx_17tensor4all_treetn6treetn12canonicalizeINtB5_6TreeTNNtNtNtCsbrO2ourfQV3_15tensor4all_core8defaults12tensordynlen12TensorDynLenjE17canonicalize_implINtNtNtNtCsiThrkg7suPy_3std11collections4hash3set7HashSetjEECsaRfSWFUMrL5_22tensor4all_itensorlike
FN:47,_RINvMNtNtCsaogGgQeyHx_17tensor4all_treetn6treetn12canonicalizeINtB5_6TreeTNppE12canonicalizepEB7_
FN:83,_RINvMNtNtCsaogGgQeyHx_17tensor4all_treetn6treetn12canonicalizeINtB5_6TreeTNppE16canonicalize_mutpEB7_
FN:104,_RINvMNtNtCsaogGgQeyHx_17tensor4all_treetn6treetn12canonicalizeINtB5_6TreeTNppE17canonicalize_implpEB7_
FN:47,_RINvMNtNtCsaogGgQeyHx_17tensor4all_treetn6treetn12canonicalizeINtB5_6TreeTNNtNtNtCsbrO2ourfQV3_15tensor4all_core8defaults12tensordynlen12TensorDynLenjE12canonicalizeAjj1_ECsk8nCQTNnVi9_22tensor4all_itensorlike
FN:47,_RINvMNtNtCsaogGgQeyHx_17tensor4all_treetn6treetn12canonicalizeINtB5_6TreeTNNtNtNtCsbrO2ourfQV3_15tensor4all_core8defaults12tensordynlen12TensorDynLenjE12canonicalizeINtNtCsganj50Cd8Gx_5alloc3vec3VecjEECsk8nCQTNnVi9_22tensor4all_itensorlike
FN:47,_RINvMNtNtCsaogGgQeyHx_17tensor4all_treetn6treetn12canonicalizeINtB5_6TreeTNNtNtNtCsbrO2ourfQV3_15tensor4all_core8defaults12tensordynlen12TensorDynLenjE12canonicalizeINtNtNtNtCskzPJi2J8k3N_4core4iter7sources4once4OncejEECsk8nCQTNnVi9_22tensor4all_itensorlike
FN:83,_RINvMNtNtCsaogGgQeyHx_17tensor4all_treetn6treetn12canonicalizeINtB5_6TreeTNNtNtNtCsbrO2ourfQV3_15tensor4all_core8defaults12tensordynlen12TensorDynLenjE16canonicalize_mutINtNtNtNtCskzPJi2J8k3N_4core4iter7sources4once4OncejEECsk8nCQTNnVi9_22tensor4all_itensorlike
FN:104,_RINvMNtNtCsaogGgQeyHx_17tensor4all_treetn6treetn12canonicalizeINtB5_6TreeTNNtNtNtCsbrO2ourfQV3_15tensor4all_core8defaults12tensordynlen12TensorDynLenjE17canonicalize_implAjj1_ECsk8nCQTNnVi9_22tensor4all_itensorlike
FN:104,_RINvMNtNtCsaogGgQeyHx_17tensor4all_treetn6treetn12canonicalizeINtB5_6TreeTNNtNtNtCsbrO2ourfQV3_15tensor4all_core8defaults12tensordynlen12TensorDynLenjE17canonicalize_implINtNtNtNtCsiThrkg7suPy_3std11collections4hash3set7HashSetjEECsk8nCQTNnVi9_22tensor4all_itensorlike
FNDA:0,_RINvMNtNtCsaogGgQeyHx_17tensor4all_treetn6treetn12canonicalizeINtB5_6TreeTNNtNtNtCsbrO2ourfQV3_15tensor4all_core8defaults12tensordynlen12TensorDynLenjE12canonicalizeAjj1_ECsaRfSWFUMrL5_22tensor4all_itensorlike
FNDA:0,_RINvMNtNtCsaogGgQeyHx_17tensor4all_treetn6treetn12canonicalizeINtB5_6TreeTNNtNtNtCsbrO2ourfQV3_15tensor4all_core8defaults12tensordynlen12TensorDynLenjE12canonicalizeINtNtCsganj50Cd8Gx_5alloc3vec3VecjEECsaRfSWFUMrL5_22tensor4all_itensorlike
FNDA:0,_RINvMNtNtCsaogGgQeyHx_17tensor4all_treetn6treetn12canonicalizeINtB5_6TreeTNNtNtNtCsbrO2ourfQV3_15tensor4all_core8defaults12tensordynlen12TensorDynLenjE12canonicalizeINtNtNtNtCskzPJi2J8k3N_4core4iter7sources4once4OncejEECsaRfSWFUMrL5_22tensor4all_itensorlike
FNDA:0,_RINvMNtNtCsaogGgQeyHx_17tensor4all_treetn6treetn12canonicalizeINtB5_6TreeTNNtNtNtCsbrO2ourfQV3_15tensor4all_core8defaults12tensordynlen12TensorDynLenjE16canonicalize_mutINtNtNtNtCskzPJi2J8k3N_4core4iter7sources4once4OncejEECsaRfSWFUMrL5_22tensor4all_itensorlike
FNDA:0,_RINvMNtNtCsaogGgQeyHx_17tensor4all_treetn6treetn12canonicalizeINtB5_6TreeTNNtNtNtCsbrO2ourfQV3_15tensor4all_core8defaults12tensordynlen12TensorDynLenjE17canonicalize_implAjj1_ECsaRfSWFUMrL5_22tensor4all_itensorlike
FNDA:0,_RINvMNtNtCsaogGgQeyHx_17tensor4all_treetn6treetn12canonicalizeINtB5_6TreeTNNtNtNtCsbrO2ourfQV3_15tensor4all_core8defaults12tensordynlen12TensorDynLenjE17canonicalize_implINtNtNtNtCsiThrkg7suPy_3std11collections4hash3set7HashSetjEECsaRfSWFUMrL5_22tensor4all_itensorlike
FNDA:0,_RINvMNtNtCsaogGgQeyHx_17tensor4all_treetn6treetn12canonicalizeINtB5_6TreeTNppE12canonicalizepEB7_
FNDA:0,_RINvMNtNtCsaogGgQeyHx_17tensor4all_treetn6treetn12canonicalizeINtB5_6TreeTNppE16canonicalize_mutpEB7_
FNDA:0,_RINvMNtNtCsaogGgQeyHx_17tensor4all_treetn6treetn12canonicalizeINtB5_6TreeTNppE17canonicalize_implpEB7_
FNDA:2,_RINvMNtNtCsaogGgQeyHx_17tensor4all_treetn6treetn12canonicalizeINtB5_6TreeTNNtNtNtCsbrO2ourfQV3_15tensor4all_core8defaults12tensordynlen12TensorDynLenjE12canonicalizeAjj1_ECsk8nCQTNnVi9_22tensor4all_itensorlike
FNDA:7,_RINvMNtNtCsaogGgQeyHx_17tensor4all_treetn6treetn12canonicalizeINtB5_6TreeTNNtNtNtCsbrO2ourfQV3_15tensor4all_core8defaults12tensordynlen12TensorDynLenjE12canonicalizeINtNtCsganj50Cd8Gx_5alloc3vec3VecjEECsk8nCQTNnVi9_22tensor4all_itensorlike
FNDA:0,_RINvMNtNtCsaogGgQeyHx_17tensor4all_treetn6treetn12canonicalizeINtB5_6TreeTNNtNtNtCsbrO2ourfQV3_15tensor4all_core8defaults12tensordynlen12TensorDynLenjE12canonicalizeINtNtNtNtCskzPJi2J8k3N_4core4iter7sources4once4OncejEECsk8nCQTNnVi9_22tensor4all_itensorlike
FNDA:0,_RINvMNtNtCsaogGgQeyHx_17tensor4all_treetn6treetn12canonicalizeINtB5_6TreeTNNtNtNtCsbrO2ourfQV3_15tensor4all_core8defaults12tensordynlen12TensorDynLenjE16canonicalize_mutINtNtNtNtCskzPJi2J8k3N_4core4iter7sources4once4OncejEECsk8nCQTNnVi9_22tensor4all_itensorlike
FNDA:1,_RINvMNtNtCsaogGgQeyHx_17tensor4all_treetn6treetn12canonicalizeINtB5_6TreeTNNtNtNtCsbrO2ourfQV3_15tensor4all_core8defaults12tensordynlen12TensorDynLenjE17canonicalize_implAjj1_ECsk8nCQTNnVi9_22tensor4all_itensorlike
FNDA:9,_RINvMNtNtCsaogGgQeyHx_17tensor4all_treetn6treetn12canonicalizeINtB5_6TreeTNNtNtNtCsbrO2ourfQV3_15tensor4all_core8defaults12tensordynlen12TensorDynLenjE17canonicalize_implINtNtNtNtCsiThrkg7suPy_3std11collections4hash3set7HashSetjEECsk8nCQTNnVi9_22tensor4all_itensorlike
FNF:3
FNH:2
DA:47,9
DA:48,9
DA:49,9
DA:50,9
DA:51,9
DA:52,9
DA:55,9
DA:57,2
DA:58,0
DA:59,0
DA:60,0
DA:61,0
DA:62,0
DA:63,0
DA:64,0
DA:65,0
DA:66,0
DA:67,2
DA:70,2
DA:71,0
DA:72,2
DA:73,7
DA:76,9
DA:77,9
DA:78,9
DA:83,0
DA:84,0
DA:85,0
DA:86,0
DA:87,0
DA:88,0
DA:89,0
DA:91,0
DA:92,0
DA:93,0
DA:94,0
DA:95,0
DA:97,0
DA:99,0
DA:104,10
DA:105,10
DA:106,10
DA:107,10
DA:108,10
DA:109,10
DA:111,10
DA:112,8
DA:113,1
DA:114,1
DA:118,10
DA:121,10
DA:122,10
DA:123,0
DA:127,10
DA:128,10
DA:129,10
DA:130,10
DA:131,10
DA:132,10
DA:135,22
DA:136,12
DA:140,10
DA:142,10
DA:143,10
BRF:0
BRH:0
LF:64
LH:38
end_of_record
SF:/Users/ken/git_for_collab4/tensor4all-rs/crates/tensor4all-treetn/src/treetn/contraction.rs
FN:833,_RNvMNtNtCsaogGgQeyHx_17tensor4all_treetn6treetn11contractionINtB4_6TreeTNNtNtNtCsbrO2ourfQV3_15tensor4all_core8defaults12tensordynlen12TensorDynLenjE14contract_naiveCsaRfSWFUMrL5_22tensor4all_itensorlike
FN:229,_RNvMNtNtCsaogGgQeyHx_17tensor4all_treetn6treetn11contractionINtB4_6TreeTNNtNtNtCsbrO2ourfQV3_15tensor4all_core8defaults12tensordynlen12TensorDynLenjE14contract_zipupCsaRfSWFUMrL5_22tensor4all_itensorlike
FN:37,_RNvMNtNtCsaogGgQeyHx_17tensor4all_treetn6treetn11contractionINtB4_6TreeTNNtNtNtCsbrO2ourfQV3_15tensor4all_core8defaults12tensordynlen12TensorDynLenjE17sim_internal_indsCsaRfSWFUMrL5_22tensor4all_itensorlike
FN:99,_RNvMNtNtCsaogGgQeyHx_17tensor4all_treetn6treetn11contractionINtB4_6TreeTNNtNtNtCsbrO2ourfQV3_15tensor4all_core8defaults12tensordynlen12TensorDynLenjE18contract_to_tensorCsaRfSWFUMrL5_22tensor4all_itensorlike
FN:247,_RNvMNtNtCsaogGgQeyHx_17tensor4all_treetn6treetn11contractionINtB4_6TreeTNNtNtNtCsbrO2ourfQV3_15tensor4all_core8defaults12tensordynlen12TensorDynLenjE19contract_zipup_withCsaRfSWFUMrL5_22tensor4all_itensorlike
FN:544,_RNvMNtNtCsaogGgQeyHx_17tensor4all_treetn6treetn11contractionINtB4_6TreeTNNtNtNtCsbrO2ourfQV3_15tensor4all_core8defaults12tensordynlen12TensorDynLenjE31contract_zipup_tree_accumulatedCsaRfSWFUMrL5_22tensor4all_itensorlike
FN:991,_RINvNtNtCsaogGgQeyHx_17tensor4all_treetn6treetn11contraction19find_common_indicesNtNtNtCsbrO2ourfQV3_15tensor4all_core8defaults12tensordynlen12TensorDynLenECsaRfSWFUMrL5_22tensor4all_itensorlike
FN:1160,_RINvNtNtCsaogGgQeyHx_17tensor4all_treetn6treetn11contraction24contract_naive_to_treetnNtNtNtCsbrO2ourfQV3_15tensor4all_core8defaults12tensordynlen12TensorDynLenjECsaRfSWFUMrL5_22tensor4all_itensorlike
FN:1111,_RINvNtNtCsaogGgQeyHx_17tensor4all_treetn6treetn11contraction8contractNtNtNtCsbrO2ourfQV3_15tensor4all_core8defaults12tensordynlen12TensorDynLenjECsaRfSWFUMrL5_22tensor4all_itensorlike
FN:998,_RNCINvNtNtCsaogGgQeyHx_17tensor4all_treetn6treetn11contraction19find_common_indicesNtNtNtCsbrO2ourfQV3_15tensor4all_core8defaults12tensordynlen12TensorDynLenE0CsaRfSWFUMrL5_22tensor4all_itensorlike
FN:1002,_RNCINvNtNtCsaogGgQeyHx_17tensor4all_treetn6treetn11contraction19find_common_indicesNtNtNtCsbrO2ourfQV3_15tensor4all_core8defaults12tensordynlen12TensorDynLenEs_0CsaRfSWFUMrL5_22tensor4all_itensorlike
FN:1190,_RNCINvNtNtCsaogGgQeyHx_17tensor4all_treetn6treetn11contraction24contract_naive_to_treetnNtNtNtCsbrO2ourfQV3_15tensor4all_core8defaults12tensordynlen12TensorDynLenjE0CsaRfSWFUMrL5_22tensor4all_itensorlike
FN:1203,_RNCINvNtNtCsaogGgQeyHx_17tensor4all_treetn6treetn11contraction24contract_naive_to_treetnNtNtNtCsbrO2ourfQV3_15tensor4all_core8defaults12tensordynlen12TensorDynLenjEs_0CsaRfSWFUMrL5_22tensor4all_itensorlike
FN:146,_RNCNCNvMNtNtCsaogGgQeyHx_17tensor4all_treetn6treetn11contractionINtB8_6TreeTNNtNtNtCsbrO2ourfQV3_15tensor4all_core8defaults12tensordynlen12TensorDynLenjE18contract_to_tensors3_00CsaRfSWFUMrL5_22tensor4all_itensorlike
FN:614,_RNCNCNvMNtNtCsaogGgQeyHx_17tensor4all_treetn6treetn11contractionINtB8_6TreeTNNtNtNtCsbrO2ourfQV3_15tensor4all_core8defaults12tensordynlen12TensorDynLenjE31contract_zipup_tree_accumulateds4_00CsaRfSWFUMrL5_22tensor4all_itensorlike
FN:618,_RNCNCNvMNtNtCsaogGgQeyHx_17tensor4all_treetn6treetn11contractionINtB8_6TreeTNNtNtNtCsbrO2ourfQV3_15tensor4all_core8defaults12tensordynlen12TensorDynLenjE31contract_zipup_tree_accumulateds4_0s_0CsaRfSWFUMrL5_22tensor4all_itensorlike
FN:853,_RNCNvMNtNtCsaogGgQeyHx_17tensor4all_treetn6treetn11contractionINtB6_6TreeTNNtNtNtCsbrO2ourfQV3_15tensor4all_core8defaults12tensordynlen12TensorDynLenjE14contract_naive0CsaRfSWFUMrL5_22tensor4all_itensorlike
FN:856,_RNCNvMNtNtCsaogGgQeyHx_17tensor4all_treetn6treetn11contractionINtB6_6TreeTNNtNtNtCsbrO2ourfQV3_15tensor4all_core8defaults12tensordynlen12TensorDynLenjE14contract_naives_0CsaRfSWFUMrL5_22tensor4all_itensorlike
FN:114,_RNCNvMNtNtCsaogGgQeyHx_17tensor4all_treetn6treetn11contractionINtB6_6TreeTNNtNtNtCsbrO2ourfQV3_15tensor4all_core8defaults12tensordynlen12TensorDynLenjE18contract_to_tensor0CsaRfSWFUMrL5_22tensor4all_itensorlike
FN:130,_RNCNvMNtNtCsaogGgQeyHx_17tensor4all_treetn6treetn11contractionINtB6_6TreeTNNtNtNtCsbrO2ourfQV3_15tensor4all_core8defaults12tensordynlen12TensorDynLenjE18contract_to_tensors0_0CsaRfSWFUMrL5_22tensor4all_itensorlike
FN:132,_RNCNvMNtNtCsaogGgQeyHx_17tensor4all_treetn6treetn11contractionINtB6_6TreeTNNtNtNtCsbrO2ourfQV3_15tensor4all_core8defaults12tensordynlen12TensorDynLenjE18contract_to_tensors1_0CsaRfSWFUMrL5_22tensor4all_itensorlike
FN:136,_RNCNvMNtNtCsaogGgQeyHx_17tensor4all_treetn6treetn11contractionINtB6_6TreeTNNtNtNtCsbrO2ourfQV3_15tensor4all_core8defaults12tensordynlen12TensorDynLenjE18contract_to_tensors2_0CsaRfSWFUMrL5_22tensor4all_itensorlike
FN:146,_RNCNvMNtNtCsaogGgQeyHx_17tensor4all_treetn6treetn11contractionINtB6_6TreeTNNtNtNtCsbrO2ourfQV3_15tensor4all_core8defaults12tensordynlen12TensorDynLenjE18contract_to_tensors3_0CsaRfSWFUMrL5_22tensor4all_itensorlike
FN:153,_RNCNvMNtNtCsaogGgQeyHx_17tensor4all_treetn6treetn11contractionINtB6_6TreeTNNtNtNtCsbrO2ourfQV3_15tensor4all_core8defaults12tensordynlen12TensorDynLenjE18contract_to_tensors4_0CsaRfSWFUMrL5_22tensor4all_itensorlike
FN:156,_RNCNvMNtNtCsaogGgQeyHx_17tensor4all_treetn6treetn11contractionINtB6_6TreeTNNtNtNtCsbrO2ourfQV3_15tensor4all_core8defaults12tensordynlen12TensorDynLenjE18contract_to_tensors5_0CsaRfSWFUMrL5_22tensor4all_itensorlike
FN:168,_RNCNvMNtNtCsaogGgQeyHx_17tensor4all_treetn6treetn11contractionINtB6_6TreeTNNtNtNtCsbrO2ourfQV3_15tensor4all_core8defaults12tensordynlen12TensorDynLenjE18contract_to_tensors6_0CsaRfSWFUMrL5_22tensor4all_itensorlike
FN:195,_RNCNvMNtNtCsaogGgQeyHx_17tensor4all_treetn6treetn11contractionINtB6_6TreeTNNtNtNtCsbrO2ourfQV3_15tensor4all_core8defaults12tensordynlen12TensorDynLenjE18contract_to_tensors7_0CsaRfSWFUMrL5_22tensor4all_itensorlike
FN:118,_RNCNvMNtNtCsaogGgQeyHx_17tensor4all_treetn6treetn11contractionINtB6_6TreeTNNtNtNtCsbrO2ourfQV3_15tensor4all_core8defaults12tensordynlen12TensorDynLenjE18contract_to_tensors_0CsaRfSWFUMrL5_22tensor4all_itensorlike
FN:287,_RNCNvMNtNtCsaogGgQeyHx_17tensor4all_treetn6treetn11contractionINtB6_6TreeTNNtNtNtCsbrO2ourfQV3_15tensor4all_core8defaults12tensordynlen12TensorDynLenjE19contract_zipup_with0CsaRfSWFUMrL5_22tensor4all_itensorlike
FN:302,_RNCNvMNtNtCsaogGgQeyHx_17tensor4all_treetn6treetn11contractionINtB6_6TreeTNNtNtNtCsbrO2ourfQV3_15tensor4all_core8defaults12tensordynlen12TensorDynLenjE19contract_zipup_withs0_0CsaRfSWFUMrL5_22tensor4all_itensorlike
FN:305,_RNCNvMNtNtCsaogGgQeyHx_17tensor4all_treetn6treetn11contractionINtB6_6TreeTNNtNtNtCsbrO2ourfQV3_15tensor4all_core8defaults12tensordynlen12TensorDynLenjE19contract_zipup_withs1_0CsaRfSWFUMrL5_22tensor4all_itensorlike
FN:309,_RNCNvMNtNtCsaogGgQeyHx_17tensor4all_treetn6treetn11contractionINtB6_6TreeTNNtNtNtCsbrO2ourfQV3_15tensor4all_core8defaults12tensordynlen12TensorDynLenjE19contract_zipup_withs2_0CsaRfSWFUMrL5_22tensor4all_itensorlike
FN:317,_RNCNvMNtNtCsaogGgQeyHx_17tensor4all_treetn6treetn11contractionINtB6_6TreeTNNtNtNtCsbrO2ourfQV3_15tensor4all_core8defaults12tensordynlen12TensorDynLenjE19contract_zipup_withs3_0CsaRfSWFUMrL5_22tensor4all_itensorlike
FN:331,_RNCNvMNtNtCsaogGgQeyHx_17tensor4all_treetn6treetn11contractionINtB6_6TreeTNNtNtNtCsbrO2ourfQV3_15tensor4all_core8defaults12tensordynlen12TensorDynLenjE19contract_zipup_withs4_0CsaRfSWFUMrL5_22tensor4all_itensorlike
FN:334,_RNCNvMNtNtCsaogGgQeyHx_17tensor4all_treetn6treetn11contractionINtB6_6TreeTNNtNtNtCsbrO2ourfQV3_15tensor4all_core8defaults12tensordynlen12TensorDynLenjE19contract_zipup_withs5_0CsaRfSWFUMrL5_22tensor4all_itensorlike
FN:336,_RNCNvMNtNtCsaogGgQeyHx_17tensor4all_treetn6treetn11contractionINtB6_6TreeTNNtNtNtCsbrO2ourfQV3_15tensor4all_core8defaults12tensordynlen12TensorDynLenjE19contract_zipup_withs6_0CsaRfSWFUMrL5_22tensor4all_itensorlike
FN:339,_RNCNvMNtNtCsaogGgQeyHx_17tensor4all_treetn6treetn11contractionINtB6_6TreeTNNtNtNtCsbrO2ourfQV3_15tensor4all_core8defaults12tensordynlen12TensorDynLenjE19contract_zipup_withs7_0CsaRfSWFUMrL5_22tensor4all_itensorlike
FN:372,_RNCNvMNtNtCsaogGgQeyHx_17tensor4all_treetn6treetn11contractionINtB6_6TreeTNNtNtNtCsbrO2ourfQV3_15tensor4all_core8defaults12tensordynlen12TensorDynLenjE19contract_zipup_withs8_0CsaRfSWFUMrL5_22tensor4all_itensorlike
FN:375,_RNCNvMNtNtCsaogGgQeyHx_17tensor4all_treetn6treetn11contractionINtB6_6TreeTNNtNtNtCsbrO2ourfQV3_15tensor4all_core8defaults12tensordynlen12TensorDynLenjE19contract_zipup_withs9_0CsaRfSWFUMrL5_22tensor4all_itensorlike
FN:299,_RNCNvMNtNtCsaogGgQeyHx_17tensor4all_treetn6treetn11contractionINtB6_6TreeTNNtNtNtCsbrO2ourfQV3_15tensor4all_core8defaults12tensordynlen12TensorDynLenjE19contract_zipup_withs_0CsaRfSWFUMrL5_22tensor4all_itensorlike
FN:382,_RNCNvMNtNtCsaogGgQeyHx_17tensor4all_treetn6treetn11contractionINtB6_6TreeTNNtNtNtCsbrO2ourfQV3_15tensor4all_core8defaults12tensordynlen12TensorDynLenjE19contract_zipup_withsa_0CsaRfSWFUMrL5_22tensor4all_itensorlike
FN:392,_RNCNvMNtNtCsaogGgQeyHx_17tensor4all_treetn6treetn11contractionINtB6_6TreeTNNtNtNtCsbrO2ourfQV3_15tensor4all_core8defaults12tensordynlen12TensorDynLenjE19contract_zipup_withsb_0CsaRfSWFUMrL5_22tensor4all_itensorlike
FN:396,_RNCNvMNtNtCsaogGgQeyHx_17tensor4all_treetn6treetn11contractionINtB6_6TreeTNNtNtNtCsbrO2ourfQV3_15tensor4all_core8defaults12tensordynlen12TensorDynLenjE19contract_zipup_withsc_0CsaRfSWFUMrL5_22tensor4all_itensorlike
FN:404,_RNCNvMNtNtCsaogGgQeyHx_17tensor4all_treetn6treetn11contractionINtB6_6TreeTNNtNtNtCsbrO2ourfQV3_15tensor4all_core8defaults12tensordynlen12TensorDynLenjE19contract_zipup_withsd_0CsaRfSWFUMrL5_22tensor4all_itensorlike
FN:411,_RNCNvMNtNtCsaogGgQeyHx_17tensor4all_treetn6treetn11contractionINtB6_6TreeTNNtNtNtCsbrO2ourfQV3_15tensor4all_core8defaults12tensordynlen12TensorDynLenjE19contract_zipup_withse_0CsaRfSWFUMrL5_22tensor4all_itensorlike
FN:428,_RNCNvMNtNtCsaogGgQeyHx_17tensor4all_treetn6treetn11contractionINtB6_6TreeTNNtNtNtCsbrO2ourfQV3_15tensor4all_core8defaults12tensordynlen12TensorDynLenjE19contract_zipup_withsf_0CsaRfSWFUMrL5_22tensor4all_itensorlike
FN:439,_RNCNvMNtNtCsaogGgQeyHx_17tensor4all_treetn6treetn11contractionINtB6_6TreeTNNtNtNtCsbrO2ourfQV3_15tensor4all_core8defaults12tensordynlen12TensorDynLenjE19contract_zipup_withsg_0CsaRfSWFUMrL5_22tensor4all_itensorlike
FN:464,_RNCNvMNtNtCsaogGgQeyHx_17tensor4all_treetn6treetn11contractionINtB6_6TreeTNNtNtNtCsbrO2ourfQV3_15tensor4all_core8defaults12tensordynlen12TensorDynLenjE19contract_zipup_withsh_0CsaRfSWFUMrL5_22tensor4all_itensorlike
FN:468,_RNCNvMNtNtCsaogGgQeyHx_17tensor4all_treetn6treetn11contractionINtB6_6TreeTNNtNtNtCsbrO2ourfQV3_15tensor4all_core8defaults12tensordynlen12TensorDynLenjE19contract_zipup_withsi_0CsaRfSWFUMrL5_22tensor4all_itensorlike
FN:569,_RNCNvMNtNtCsaogGgQeyHx_17tensor4all_treetn6treetn11contractionINtB6_6TreeTNNtNtNtCsbrO2ourfQV3_15tensor4all_core8defaults12tensordynlen12TensorDynLenjE31contract_zipup_tree_accumulated0CsaRfSWFUMrL5_22tensor4all_itensorlike
FN:581,_RNCNvMNtNtCsaogGgQeyHx_17tensor4all_treetn6treetn11contractionINtB6_6TreeTNNtNtNtCsbrO2ourfQV3_15tensor4all_core8defaults12tensordynlen12TensorDynLenjE31contract_zipup_tree_accumulateds0_0CsaRfSWFUMrL5_22tensor4all_itensorlike
FN:585,_RNCNvMNtNtCsaogGgQeyHx_17tensor4all_treetn6treetn11contractionINtB6_6TreeTNNtNtNtCsbrO2ourfQV3_15tensor4all_core8defaults12tensordynlen12TensorDynLenjE31contract_zipup_tree_accumulateds1_0CsaRfSWFUMrL5_22tensor4all_itensorlike
FN:588,_RNCNvMNtNtCsaogGgQeyHx_17tensor4all_treetn6treetn11contractionINtB6_6TreeTNNtNtNtCsbrO2ourfQV3_15tensor4all_core8defaults12tensordynlen12TensorDynLenjE31contract_zipup_tree_accumulateds2_0CsaRfSWFUMrL5_22tensor4all_itensorlike
FN:593,_RNCNvMNtNtCsaogGgQeyHx_17tensor4all_treetn6treetn11contractionINtB6_6TreeTNNtNtNtCsbrO2ourfQV3_15tensor4all_core8defaults12tensordynlen12TensorDynLenjE31contract_zipup_tree_accumulateds3_0CsaRfSWFUMrL5_22tensor4all_itensorlike
FN:613,_RNCNvMNtNtCsaogGgQeyHx_17tensor4all_treetn6treetn11contractionINtB6_6TreeTNNtNtNtCsbrO2ourfQV3_15tensor4all_core8defaults12tensordynlen12TensorDynLenjE31contract_zipup_tree_accumulateds4_0CsaRfSWFUMrL5_22tensor4all_itensorlike
FN:641,_RNCNvMNtNtCsaogGgQeyHx_17tensor4all_treetn6treetn11contractionINtB6_6TreeTNNtNtNtCsbrO2ourfQV3_15tensor4all_core8defaults12tensordynlen12TensorDynLenjE31contract_zipup_tree_accumulateds5_0CsaRfSWFUMrL5_22tensor4all_itensorlike
FN:644,_RNCNvMNtNtCsaogGgQeyHx_17tensor4all_treetn6treetn11contractionINtB6_6TreeTNNtNtNtCsbrO2ourfQV3_15tensor4all_core8defaults12tensordynlen12TensorDynLenjE31contract_zipup_tree_accumulateds6_0CsaRfSWFUMrL5_22tensor4all_itensorlike
FN:648,_RNCNvMNtNtCsaogGgQeyHx_17tensor4all_treetn6treetn11contractionINtB6_6TreeTNNtNtNtCsbrO2ourfQV3_15tensor4all_core8defaults12tensordynlen12TensorDynLenjE31contract_zipup_tree_accumulateds7_0CsaRfSWFUMrL5_22tensor4all_itensorlike
FN:654,_RNCNvMNtNtCsaogGgQeyHx_17tensor4all_treetn6treetn11contractionINtB6_6TreeTNNtNtNtCsbrO2ourfQV3_15tensor4all_core8defaults12tensordynlen12TensorDynLenjE31contract_zipup_tree_accumulateds8_0CsaRfSWFUMrL5_22tensor4all_itensorlike
FN:663,_RNCNvMNtNtCsaogGgQeyHx_17tensor4all_treetn6treetn11contractionINtB6_6TreeTNNtNtNtCsbrO2ourfQV3_15tensor4all_core8defaults12tensordynlen12TensorDynLenjE31contract_zipup_tree_accumulateds9_0CsaRfSWFUMrL5_22tensor4all_itensorlike
FN:578,_RNCNvMNtNtCsaogGgQeyHx_17tensor4all_treetn6treetn11contractionINtB6_6TreeTNNtNtNtCsbrO2ourfQV3_15tensor4all_core8defaults12tensordynlen12TensorDynLenjE31contract_zipup_tree_accumulateds_0CsaRfSWFUMrL5_22tensor4all_itensorlike
FN:692,_RNCNvMNtNtCsaogGgQeyHx_17tensor4all_treetn6treetn11contractionINtB6_6TreeTNNtNtNtCsbrO2ourfQV3_15tensor4all_core8defaults12tensordynlen12TensorDynLenjE31contract_zipup_tree_accumulatedsa_0CsaRfSWFUMrL5_22tensor4all_itensorlike
FN:727,_RNCNvMNtNtCsaogGgQeyHx_17tensor4all_treetn6treetn11contractionINtB6_6TreeTNNtNtNtCsbrO2ourfQV3_15tensor4all_core8defaults12tensordynlen12TensorDynLenjE31contract_zipup_tree_accumulatedsb_0CsaRfSWFUMrL5_22tensor4all_itensorlike
FN:730,_RNCNvMNtNtCsaogGgQeyHx_17tensor4all_treetn6treetn11contractionINtB6_6TreeTNNtNtNtCsbrO2ourfQV3_15tensor4all_core8defaults12tensordynlen12TensorDynLenjE31contract_zipup_tree_accumulatedsc_0CsaRfSWFUMrL5_22tensor4all_itensorlike
FN:734,_RNCNvMNtNtCsaogGgQeyHx_17tensor4all_treetn6treetn11contractionINtB6_6TreeTNNtNtNtCsbrO2ourfQV3_15tensor4all_core8defaults12tensordynlen12TensorDynLenjE31contract_zipup_tree_accumulatedsd_0CsaRfSWFUMrL5_22tensor4all_itensorlike
FN:738,_RNCNvMNtNtCsaogGgQeyHx_17tensor4all_treetn6treetn11contractionINtB6_6TreeTNNtNtNtCsbrO2ourfQV3_15tensor4all_core8defaults12tensordynlen12TensorDynLenjE31contract_zipup_tree_accumulatedse_0CsaRfSWFUMrL5_22tensor4all_itensorlike
FN:754,_RNCNvMNtNtCsaogGgQeyHx_17tensor4all_treetn6treetn11contractionINtB6_6TreeTNNtNtNtCsbrO2ourfQV3_15tensor4all_core8defaults12tensordynlen12TensorDynLenjE31contract_zipup_tree_accumulatedsf_0CsaRfSWFUMrL5_22tensor4all_itensorlike
FN:757,_RNCNvMNtNtCsaogGgQeyHx_17tensor4all_treetn6treetn11contractionINtB6_6TreeTNNtNtNtCsbrO2ourfQV3_15tensor4all_core8defaults12tensordynlen12TensorDynLenjE31contract_zipup_tree_accumulatedsg_0CsaRfSWFUMrL5_22tensor4all_itensorlike
FN:763,_RNCNvMNtNtCsaogGgQeyHx_17tensor4all_treetn6treetn11contractionINtB6_6TreeTNNtNtNtCsbrO2ourfQV3_15tensor4all_core8defaults12tensordynlen12TensorDynLenjE31contract_zipup_tree_accumulatedsh_0CsaRfSWFUMrL5_22tensor4all_itensorlike
FN:767,_RNCNvMNtNtCsaogGgQeyHx_17tensor4all_treetn6treetn11contractionINtB6_6TreeTNNtNtNtCsbrO2ourfQV3_15tensor4all_core8defaults12tensordynlen12TensorDynLenjE31contract_zipup_tree_accumulatedsi_0CsaRfSWFUMrL5_22tensor4all_itensorlike
FN:991,_RINvNtNtCsaogGgQeyHx_17tensor4all_treetn6treetn11contraction19find_common_indicespEB6_
FN:1160,_RINvNtNtCsaogGgQeyHx_17tensor4all_treetn6treetn11contraction24contract_naive_to_treetnppEB6_
FN:1111,_RINvNtNtCsaogGgQeyHx_17tensor4all_treetn6treetn11contraction8contractppEB6_
FN:998,_RNCINvNtNtCsaogGgQeyHx_17tensor4all_treetn6treetn11contraction19find_common_indicespE0B8_
FN:1002,_RNCINvNtNtCsaogGgQeyHx_17tensor4all_treetn6treetn11contraction19find_common_indicespEs_0B8_
FN:1190,_RNCINvNtNtCsaogGgQeyHx_17tensor4all_treetn6treetn11contraction24contract_naive_to_treetnppE0B8_
FN:1203,_RNCINvNtNtCsaogGgQeyHx_17tensor4all_treetn6treetn11contraction24contract_naive_to_treetnppEs_0B8_
FN:146,_RNCNCNvMNtNtCsaogGgQeyHx_17tensor4all_treetn6treetn11contractionINtB8_6TreeTNppE18contract_to_tensors3_00Ba_
FN:614,_RNCNCNvMNtNtCsaogGgQeyHx_17tensor4all_treetn6treetn11contractionINtB8_6TreeTNppE31contract_zipup_tree_accumulateds4_00Ba_
FN:618,_RNCNCNvMNtNtCsaogGgQeyHx_17tensor4all_treetn6treetn11contractionINtB8_6TreeTNppE31contract_zipup_tree_accumulateds4_0s_0Ba_
FN:853,_RNCNvMNtNtCsaogGgQeyHx_17tensor4all_treetn6treetn11contractionINtB6_6TreeTNppE14contract_naive0B8_
FN:856,_RNCNvMNtNtCsaogGgQeyHx_17tensor4all_treetn6treetn11contractionINtB6_6TreeTNppE14contract_naives_0B8_
FN:114,_RNCNvMNtNtCsaogGgQeyHx_17tensor4all_treetn6treetn11contractionINtB6_6TreeTNppE18contract_to_tensor0B8_
FN:130,_RNCNvMNtNtCsaogGgQeyHx_17tensor4all_treetn6treetn11contractionINtB6_6TreeTNppE18contract_to_tensors0_0B8_
FN:132,_RNCNvMNtNtCsaogGgQeyHx_17tensor4all_treetn6treetn11contractionINtB6_6TreeTNppE18contract_to_tensors1_0B8_
FN:136,_RNCNvMNtNtCsaogGgQeyHx_17tensor4all_treetn6treetn11contractionINtB6_6TreeTNppE18contract_to_tensors2_0B8_
FN:146,_RNCNvMNtNtCsaogGgQeyHx_17tensor4all_treetn6treetn11contractionINtB6_6TreeTNppE18contract_to_tensors3_0B8_
FN:153,_RNCNvMNtNtCsaogGgQeyHx_17tensor4all_treetn6treetn11contractionINtB6_6TreeTNppE18contract_to_tensors4_0B8_
FN:156,_RNCNvMNtNtCsaogGgQeyHx_17tensor4all_treetn6treetn11contractionINtB6_6TreeTNppE18contract_to_tensors5_0B8_
FN:168,_RNCNvMNtNtCsaogGgQeyHx_17tensor4all_treetn6treetn11contractionINtB6_6TreeTNppE18contract_to_tensors6_0B8_
FN:195,_RNCNvMNtNtCsaogGgQeyHx_17tensor4all_treetn6treetn11contractionINtB6_6TreeTNppE18contract_to_tensors7_0B8_
FN:118,_RNCNvMNtNtCsaogGgQeyHx_17tensor4all_treetn6treetn11contractionINtB6_6TreeTNppE18contract_to_tensors_0B8_
FN:287,_RNCNvMNtNtCsaogGgQeyHx_17tensor4all_treetn6treetn11contractionINtB6_6TreeTNppE19contract_zipup_with0B8_
FN:302,_RNCNvMNtNtCsaogGgQeyHx_17tensor4all_treetn6treetn11contractionINtB6_6TreeTNppE19contract_zipup_withs0_0B8_
FN:305,_RNCNvMNtNtCsaogGgQeyHx_17tensor4all_treetn6treetn11contractionINtB6_6TreeTNppE19contract_zipup_withs1_0B8_
FN:309,_RNCNvMNtNtCsaogGgQeyHx_17tensor4all_treetn6treetn11contractionINtB6_6TreeTNppE19contract_zipup_withs2_0B8_
FN:317,_RNCNvMNtNtCsaogGgQeyHx_17tensor4all_treetn6treetn11contractionINtB6_6TreeTNppE19contract_zipup_withs3_0B8_
FN:331,_RNCNvMNtNtCsaogGgQeyHx_17tensor4all_treetn6treetn11contractionINtB6_6TreeTNppE19contract_zipup_withs4_0B8_
FN:334,_RNCNvMNtNtCsaogGgQeyHx_17tensor4all_treetn6treetn11contractionINtB6_6TreeTNppE19contract_zipup_withs5_0B8_
FN:336,_RNCNvMNtNtCsaogGgQeyHx_17tensor4all_treetn6treetn11contractionINtB6_6TreeTNppE19contract_zipup_withs6_0B8_
FN:339,_RNCNvMNtNtCsaogGgQeyHx_17tensor4all_treetn6treetn11contractionINtB6_6TreeTNppE19contract_zipup_withs7_0B8_
FN:372,_RNCNvMNtNtCsaogGgQeyHx_17tensor4all_treetn6treetn11contractionINtB6_6TreeTNppE19contract_zipup_withs8_0B8_
FN:375,_RNCNvMNtNtCsaogGgQeyHx_17tensor4all_treetn6treetn11contractionINtB6_6TreeTNppE19contract_zipup_withs9_0B8_
FN:299,_RNCNvMNtNtCsaogGgQeyHx_17tensor4all_treetn6treetn11contractionINtB6_6TreeTNppE19contract_zipup_withs_0B8_
FN:382,_RNCNvMNtNtCsaogGgQeyHx_17tensor4all_treetn6treetn11contractionINtB6_6TreeTNppE19contract_zipup_withsa_0B8_
FN:392,_RNCNvMNtNtCsaogGgQeyHx_17tensor4all_treetn6treetn11contractionINtB6_6TreeTNppE19contract_zipup_withsb_0B8_
FN:396,_RNCNvMNtNtCsaogGgQeyHx_17tensor4all_treetn6treetn11contractionINtB6_6TreeTNppE19contract_zipup_withsc_0B8_
FN:404,_RNCNvMNtNtCsaogGgQeyHx_17tensor4all_treetn6treetn11contractionINtB6_6TreeTNppE19contract_zipup_withsd_0B8_
FN:411,_RNCNvMNtNtCsaogGgQeyHx_17tensor4all_treetn6treetn11contractionINtB6_6TreeTNppE19contract_zipup_withse_0B8_
FN:428,_RNCNvMNtNtCsaogGgQeyHx_17tensor4all_treetn6treetn11contractionINtB6_6TreeTNppE19contract_zipup_withsf_0B8_
FN:439,_RNCNvMNtNtCsaogGgQeyHx_17tensor4all_treetn6treetn11contractionINtB6_6TreeTNppE19contract_zipup_withsg_0B8_
FN:464,_RNCNvMNtNtCsaogGgQeyHx_17tensor4all_treetn6treetn11contractionINtB6_6TreeTNppE19contract_zipup_withsh_0B8_
FN:468,_RNCNvMNtNtCsaogGgQeyHx_17tensor4all_treetn6treetn11contractionINtB6_6TreeTNppE19contract_zipup_withsi_0B8_
FN:892,_RNCNvMNtNtCsaogGgQeyHx_17tensor4all_treetn6treetn11contractionINtB6_6TreeTNppE26validate_ortho_consistency0B8_
FN:917,_RNCNvMNtNtCsaogGgQeyHx_17tensor4all_treetn6treetn11contractionINtB6_6TreeTNppE26validate_ortho_consistencys0_0B8_
FN:921,_RNCNvMNtNtCsaogGgQeyHx_17tensor4all_treetn6treetn11contractionINtB6_6TreeTNppE26validate_ortho_consistencys1_0B8_
FN:928,_RNCNvMNtNtCsaogGgQeyHx_17tensor4all_treetn6treetn11contractionINtB6_6TreeTNppE26validate_ortho_consistencys2_0B8_
FN:965,_RNCNvMNtNtCsaogGgQeyHx_17tensor4all_treetn6treetn11contractionINtB6_6TreeTNppE26validate_ortho_consistencys3_0B8_
FN:916,_RNCNvMNtNtCsaogGgQeyHx_17tensor4all_treetn6treetn11contractionINtB6_6TreeTNppE26validate_ortho_consistencys_0B8_
FN:569,_RNCNvMNtNtCsaogGgQeyHx_17tensor4all_treetn6treetn11contractionINtB6_6TreeTNppE31contract_zipup_tree_accumulated0B8_
FN:581,_RNCNvMNtNtCsaogGgQeyHx_17tensor4all_treetn6treetn11contractionINtB6_6TreeTNppE31contract_zipup_tree_accumulateds0_0B8_
FN:585,_RNCNvMNtNtCsaogGgQeyHx_17tensor4all_treetn6treetn11contractionINtB6_6TreeTNppE31contract_zipup_tree_accumulateds1_0B8_
FN:588,_RNCNvMNtNtCsaogGgQeyHx_17tensor4all_treetn6treetn11contractionINtB6_6TreeTNppE31contract_zipup_tree_accumulateds2_0B8_
FN:593,_RNCNvMNtNtCsaogGgQeyHx_17tensor4all_treetn6treetn11contractionINtB6_6TreeTNppE31contract_zipup_tree_accumulateds3_0B8_
FN:613,_RNCNvMNtNtCsaogGgQeyHx_17tensor4all_treetn6treetn11contractionINtB6_6TreeTNppE31contract_zipup_tree_accumulateds4_0B8_
FN:641,_RNCNvMNtNtCsaogGgQeyHx_17tensor4all_treetn6treetn11contractionINtB6_6TreeTNppE31contract_zipup_tree_accumulateds5_0B8_
FN:644,_RNCNvMNtNtCsaogGgQeyHx_17tensor4all_treetn6treetn11contractionINtB6_6TreeTNppE31contract_zipup_tree_accumulateds6_0B8_
FN:648,_RNCNvMNtNtCsaogGgQeyHx_17tensor4all_treetn6treetn11contractionINtB6_6TreeTNppE31contract_zipup_tree_accumulateds7_0B8_
FN:654,_RNCNvMNtNtCsaogGgQeyHx_17tensor4all_treetn6treetn11contractionINtB6_6TreeTNppE31contract_zipup_tree_accumulateds8_0B8_
FN:663,_RNCNvMNtNtCsaogGgQeyHx_17tensor4all_treetn6treetn11contractionINtB6_6TreeTNppE31contract_zipup_tree_accumulateds9_0B8_
FN:578,_RNCNvMNtNtCsaogGgQeyHx_17tensor4all_treetn6treetn11contractionINtB6_6TreeTNppE31contract_zipup_tree_accumulateds_0B8_
FN:692,_RNCNvMNtNtCsaogGgQeyHx_17tensor4all_treetn6treetn11contractionINtB6_6TreeTNppE31contract_zipup_tree_accumulatedsa_0B8_
FN:727,_RNCNvMNtNtCsaogGgQeyHx_17tensor4all_treetn6treetn11contractionINtB6_6TreeTNppE31contract_zipup_tree_accumulatedsb_0B8_
FN:730,_RNCNvMNtNtCsaogGgQeyHx_17tensor4all_treetn6treetn11contractionINtB6_6TreeTNppE31contract_zipup_tree_accumulatedsc_0B8_
FN:734,_RNCNvMNtNtCsaogGgQeyHx_17tensor4all_treetn6treetn11contractionINtB6_6TreeTNppE31contract_zipup_tree_accumulatedsd_0B8_
FN:738,_RNCNvMNtNtCsaogGgQeyHx_17tensor4all_treetn6treetn11contractionINtB6_6TreeTNppE31contract_zipup_tree_accumulatedse_0B8_
FN:754,_RNCNvMNtNtCsaogGgQeyHx_17tensor4all_treetn6treetn11contractionINtB6_6TreeTNppE31contract_zipup_tree_accumulatedsf_0B8_
FN:757,_RNCNvMNtNtCsaogGgQeyHx_17tensor4all_treetn6treetn11contractionINtB6_6TreeTNppE31contract_zipup_tree_accumulatedsg_0B8_
FN:763,_RNCNvMNtNtCsaogGgQeyHx_17tensor4all_treetn6treetn11contractionINtB6_6TreeTNppE31contract_zipup_tree_accumulatedsh_0B8_
FN:767,_RNCNvMNtNtCsaogGgQeyHx_17tensor4all_treetn6treetn11contractionINtB6_6TreeTNppE31contract_zipup_tree_accumulatedsi_0B8_
FN:833,_RNvMNtNtCsaogGgQeyHx_17tensor4all_treetn6treetn11contractionINtB4_6TreeTNppE14contract_naiveB6_
FN:229,_RNvMNtNtCsaogGgQeyHx_17tensor4all_treetn6treetn11contractionINtB4_6TreeTNppE14contract_zipupB6_
FN:37,_RNvMNtNtCsaogGgQeyHx_17tensor4all_treetn6treetn11contractionINtB4_6TreeTNppE17sim_internal_indsB6_
FN:99,_RNvMNtNtCsaogGgQeyHx_17tensor4all_treetn6treetn11contractionINtB4_6TreeTNppE18contract_to_tensorB6_
FN:247,_RNvMNtNtCsaogGgQeyHx_17tensor4all_treetn6treetn11contractionINtB4_6TreeTNppE19contract_zipup_withB6_
FN:871,_RNvMNtNtCsaogGgQeyHx_17tensor4all_treetn6treetn11contractionINtB4_6TreeTNppE26validate_ortho_consistencyB6_
FN:544,_RNvMNtNtCsaogGgQeyHx_17tensor4all_treetn6treetn11contractionINtB4_6TreeTNppE31contract_zipup_tree_accumulatedB6_
FN:1077,_RNvMs0_NtNtCsaogGgQeyHx_17tensor4all_treetn6treetn11contractionNtB5_18ContractionOptions13with_max_rank
FN:1089,_RNvMs0_NtNtCsaogGgQeyHx_17tensor4all_treetn6treetn11contractionNtB5_18ContractionOptions16with_nfullsweeps
FN:1101,_RNvMs0_NtNtCsaogGgQeyHx_17tensor4all_treetn6treetn11contractionNtB5_18ContractionOptions18with_factorize_alg
FN:1095,_RNvMs0_NtNtCsaogGgQeyHx_17tensor4all_treetn6treetn11contractionNtB5_18ContractionOptions20with_convergence_tol
FN:1072,_RNvMs0_NtNtCsaogGgQeyHx_17tensor4all_treetn6treetn11contractionNtB5_18ContractionOptions3fit
FN:1059,_RNvMs0_NtNtCsaogGgQeyHx_17tensor4all_treetn6treetn11contractionNtB5_18ContractionOptions3new
